EXPORTS
    _CRT_MT @1 DATA
    _Z10wxLogDebugPKwz @2
    _Z10wxPGIdIsOkP12wxPGProperty @3
    _Z10wxStrtoullPKwPPwi @4
    _Z11wxPtrToUIntPKv @5
    _Z11wxUnusedVarI8wxStringEvRKT_ @6
    _Z11wxUnusedVarI9wxVariantEvRKT_ @7
    _Z11wxUnusedVarIP11cbStatusBarEvRKT_ @8
    _Z11wxUnusedVarIP8wxWindowEvRKT_ @9
    _Z11wxUnusedVarIPKwEvRKT_ @10
    _Z11wxUnusedVarIPiEvRKT_ @11
    _Z11wxUnusedVarIiEvRKT_ @12
    _Z12never_shrinkjj @13
    _Z13wxPGGetFailedPK12wxPGPropertyPKw @14
    _Z15wxFontToVariantRK6wxFont @15
    _Z15wxPGDoesNothingv @16
    _Z15wxSizeToVariantRK6wxSize @17
    _Z16wxGetTranslationPKwS0_ @18
    _Z16wxPGVariantToIntRK9wxVariantl @19
    _Z16wxPointToVariantRK7wxPoint @20
    _Z17wxFontFromVariantRK9wxVariant @21
    _Z17wxSizeFromVariantRK9wxVariant @22
    _Z18wxCheckDynamicCastP8wxObjectP11wxClassInfo @23
    _Z18wxPointFromVariantRK9wxVariant @24
    _Z19wxArrayIntToVariantRK10wxArrayInt @25
    _Z19wxLongLongToVariantRK16wxLongLongNative @26
    _Z19wxPGVariantToDoubleRK9wxVariantPd @27
    _Z20wxPGStringToLongLong8wxStringPxi @28
    _Z20wxPG_String_EndsWithRK8wxStringPKwPS_ @29
    _Z20wxULongLongToVariantRK17wxULongLongNative @30
    _Z21wxArrayIntFromVariantRK9wxVariant @31
    _Z21wxLongLongFromVariantRK9wxVariant @32
    _Z21wxPGStringToULongLong8wxStringPyi @33
    _Z21wxPGVariantToLongLongRK9wxVariantPx @34
    _Z22wxPGVariantToULongLongRK9wxVariantPy @35
    _Z22wxPG_VariantToWxObjectRK9wxVariantP11wxClassInfo @36
    _Z22wxULongLongFromVariantRK9wxVariant @37
    _Z23wxPGTypeOperationFailedPK12wxPGPropertyPKwS3_ @38
    _Z24wxPGVariantToWxObjectPtrRK9wxVariantPP8wxObject @39
    _Z24wxPG_TextCtrl_SetMarginsP8wxWindowRK7wxPoint @40
    _Z26wxPGTextCtrlEditor_OnFocusP12wxPGPropertyP10wxTextCtrl @41
    _Z27wxPGGetDefaultImageWildcardv @42
    _Z30wxColourPropertyValueToVariantRK21wxColourPropertyValue @43
    _Z30wxPGConstructChoiceEditorClassv @44
    _Z32wxColourPropertyValueFromVariantRK9wxVariant @45
    _Z32wxPGConstructCheckBoxEditorClassv @46
    _Z32wxPGConstructComboBoxEditorClassv @47
    _Z32wxPGConstructSpinCtrlEditorClassv @48
    _Z32wxPGConstructTextCtrlEditorClassv @49
    _Z36wxPGChoiceEditor_SetCustomPaintWidthP14wxPropertyGridP12wxPGComboBoxP12wxPGPropertyi @50
    _Z38wxPGConstructDatePickerCtrlEditorClassv @51
    _Z39wxPGConstructChoiceAndButtonEditorClassv @52
    _Z41wxPGConstructTextCtrlAndButtonEditorClassv @53
    _Z7wxsTreev @54
    _Z8wxStrlenPKw @55
    _Z9WXVARIANTI10wxArrayIntE9wxVariantRKT_ @56
    _Z9WXVARIANTI13wxArrayStringE9wxVariantRKT_ @57
    _Z9WXVARIANTI16wxLongLongNativeE9wxVariantRKT_ @58
    _Z9WXVARIANTI17wxULongLongNativeE9wxVariantRKT_ @59
    _Z9WXVARIANTI6wxSizeE9wxVariantRKT_ @60
    _Z9WXVARIANTI7wxPointE9wxVariantRKT_ @61
    _Z9WXVARIANTI8wxColourE9wxVariantRKT_ @62
    _Z9grow_lf70jj @63
    _Z9wxStrtollPKwPPwi @64
    _Z9wxsExtResv @65
    _Z9wxsPluginv @66
    _ZGVZN13wxsGUIFactory7GetHashEvE4Hash @67 DATA
    _ZN10EditorBase10QueryCloseEv @68
    _ZN10EditorBase11SetFilenameERK8wxString @69
    _ZN10EditorBase11SetModifiedEb @70
    _ZN10EditorBase12ClearHistoryEv @71
    _ZN10EditorBase12IsStaticPageEv @72
    _ZN10EditorBase12SetDebugLineEi @73
    _ZN10EditorBase12SetErrorLineEi @74
    _ZN10EditorBase14ToggleBookmarkEi @75
    _ZN10EditorBase15GotoNextChangedEv @76
    _ZN10EditorBase16AddToContextMenuEP6wxMenu10ModuleTypeb @77
    _ZN10EditorBase16GotoNextBookmarkEv @78
    _ZN10EditorBase16ToggleBreakpointEib @79
    _ZN10EditorBase18GotoNextBreakpointEv @80
    _ZN10EditorBase19GotoPreviousChangedEv @81
    _ZN10EditorBase19SetChangeCollectionEb @82
    _ZN10EditorBase20GotoPreviousBookmarkEv @83
    _ZN10EditorBase22GotoPreviousBreakpointEv @84
    _ZN10EditorBase23OnAfterBuildContextMenuE10ModuleType @85
    _ZN10EditorBase24OnBeforeBuildContextMenuERK7wxPoint10ModuleType @86
    _ZN10EditorBase3CutEv @87
    _ZN10EditorBase4CopyEv @88
    _ZN10EditorBase4RedoEv @89
    _ZN10EditorBase4SaveEv @90
    _ZN10EditorBase4UndoEv @91
    _ZN10EditorBase5PasteEv @92
    _ZN10EditorBase6SaveAsEv @93
    _ZN10EditorBase8GotoLineEib @94
    _ZN10EditorBase9SelectAllEv @95
    _ZN10EditorBaseaSERKS_ @96
    _ZN10LogManager11LogInternalERK8wxStringiN6Logger5levelE @97
    _ZN10LogManager13DebugLogErrorERK8wxString @98
    _ZN10LogManager3LogERK8wxStringiN6Logger5levelE @99
    _ZN10LogManager8DebugLogERK8wxStringN6Logger5levelE @100
    _ZN10NullLogger6AppendERK8wxStringN6Logger5levelE @101
    _ZN10NullLoggerC1Ev @102
    _ZN10NullLoggerD0Ev @103
    _ZN10NullLoggerD1Ev @104
    _ZN10SquirrelVM8GetVMPtrEv @105
    _ZN10StringHashaSERKS_ @106
    _ZN10wxArrayInt3AddEij @107
    _ZN10wxArrayInt5beginEv @108
    _ZN10wxArrayInt5eraseEPi @109
    _ZN10wxArrayInt8RemoveAtEjj @110
    _ZN10wxArrayInt9push_backERKi @111
    _ZN10wxArrayIntC1ERKS_ @112
    _ZN10wxArrayIntC1Ev @113
    _ZN10wxArrayIntD1Ev @114
    _ZN10wxArrayIntaSERKS_ @115
    _ZN10wxCheckBoxC1EP8wxWindowiRK8wxStringRK7wxPointRK6wxSizelRK11wxValidatorS4_ @116
    _ZN10wxComboBoxC1EP8wxWindowiRK8wxStringRK7wxPointRK6wxSizeRK13wxArrayStringlRK11wxValidatorS4_ @117
    _ZN10wxComboBoxC1EP8wxWindowiRK8wxStringRK7wxPointRK6wxSizeiPS3_lRK11wxValidatorS4_ @118
    _ZN10wxDateTime3NowEv @119
    _ZN10wxDateTimeC1ERK2tm @120
    _ZN10wxDateTimeC1Ev @121
    _ZN10wxFileNameC1ERK8wxString12wxPathFormat @122
    _ZN10wxFileNameC1ERKS_ @123
    _ZN10wxFileNameC1Ev @124
    _ZN10wxFileNameD1Ev @125
    _ZN10wxFileNameaSERK8wxString @126
    _ZN10wxFontBaseC2ERKS_ @127
    _ZN10wxFontBaseC2Ev @128
    _ZN10wxFontBaseaSERKS_ @129
    _ZN10wxFontData14SetInitialFontERK6wxFont @130
    _ZN10wxFontData9SetColourERK8wxColour @131
    _ZN10wxFontDataaSERKS_ @132
    _ZN10wxGDIImageC2ERKS_ @133
    _ZN10wxGDIImageC2Ev @134
    _ZN10wxGDIImageD2Ev @135
    _ZN10wxGDIImageaSERKS_ @136
    _ZN10wxListBase6AssignERKS_ @137
    _ZN10wxListBaseC2E9wxKeyType @138
    _ZN10wxListCtrlC1EP8wxWindowiRK7wxPointRK6wxSizelRK11wxValidatorRK8wxString @139
    _ZN10wxListCtrlC2Ev @140
    _ZN10wxListViewC1EP8wxWindowiRK7wxPointRK6wxSizelRK11wxValidatorRK8wxString @141
    _ZN10wxListbookC1EP8wxWindowiRK7wxPointRK6wxSizelRK8wxString @142
    _ZN10wxMemoryDCC1Ev @143
    _ZN10wxMemoryDCC2Ev @144
    _ZN10wxMemoryDCD1Ev @145
    _ZN10wxMemoryDCD2Ev @146
    _ZN10wxMenuBase12GetMenuItemsEv @147
    _ZN10wxMenuBase15AppendCheckItemEiRK8wxStringS2_ @148
    _ZN10wxMenuBase15AppendSeparatorEv @149
    _ZN10wxMenuBase15InsertCheckItemEjiRK8wxStringS2_ @150
    _ZN10wxMenuBase6AppendEiRK8wxStringS2_10wxItemKind @151
    _ZN10wxMenuBase6InsertEjiRK8wxStringS2_10wxItemKind @152
    _ZN10wxMenuBaseC2El @153
    _ZN10wxPGCanvas11OnMouseMoveER12wxMouseEvent @154
    _ZN10wxPGCanvas12OnMouseClickER12wxMouseEvent @155
    _ZN10wxPGCanvas13sm_eventTableE @156 DATA
    _ZN10wxPGCanvas15OnNavigationKeyER20wxNavigationKeyEvent @157
    _ZN10wxPGCanvas17OnMouseRightClickER12wxMouseEvent @158
    _ZN10wxPGCanvas17sm_eventHashTableE @159 DATA
    _ZN10wxPGCanvas18OnMouseDoubleClickER12wxMouseEvent @160
    _ZN10wxPGCanvas20sm_eventTableEntriesE @161 DATA
    _ZN10wxPGCanvas5OnKeyER10wxKeyEvent @162
    _ZN10wxPGCanvas7OnKeyUpER10wxKeyEvent @163
    _ZN10wxPGCanvas7OnPaintER12wxPaintEvent @164
    _ZN10wxPGCanvas9OnMouseUpER12wxMouseEvent @165
    _ZN10wxPGCanvasC1Ev @166
    _ZN10wxPGCanvasD0Ev @167
    _ZN10wxPGCanvasD1Ev @168
    _ZN10wxPGColour10SetColour2ERK8wxColour @169
    _ZN10wxPGColourC1ERK8wxColour @170
    _ZN10wxPGColourC1Ev @171
    _ZN10wxPGColourC2ERK8wxColour @172
    _ZN10wxPGColourC2Ev @173
    _ZN10wxPGColourD0Ev @174
    _ZN10wxPGColourD1Ev @175
    _ZN10wxPGColouraSERKS_ @176
    _ZN10wxPGEditor12ms_classInfoE @177 DATA
    _ZN10wxPGEditorC1Ev @178
    _ZN10wxPGEditorC2Ev @179
    _ZN10wxPGEditorD0Ev @180
    _ZN10wxPGEditorD1Ev @181
    _ZN10wxPGEditorD2Ev @182
    _ZN10wxRadioBoxC1EP8wxWindowiRK8wxStringRK7wxPointRK6wxSizeRK13wxArrayStringilRK11wxValidatorS4_ @183
    _ZN10wxSashEdgeC1Ev @184
    _ZN10wxSpinCtrlC1EP8wxWindowiRK8wxStringRK7wxPointRK6wxSizeliiiS4_ @185
    _ZN10wxStockGDI8instanceEv @186
    _ZN10wxTextAttrC1Ev @187
    _ZN10wxTextAttrD1Ev @188
    _ZN10wxTextCtrlC1EP8wxWindowiRK8wxStringRK7wxPointRK6wxSizelRK11wxValidatorS4_ @189
    _ZN10wxTextCtrlC1Ev @190
    _ZN10wxTreeCtrl12EndEditLabelERK12wxTreeItemIdb @191
    _ZN10wxTreeCtrlC1EP8wxWindowiRK7wxPointRK6wxSizelRK11wxValidatorRK8wxString @192
    _ZN10wxTreeCtrlC2EP8wxWindowiRK7wxPointRK6wxSizelRK11wxValidatorRK8wxString @193
    _ZN10wxTreebookC1EP8wxWindowiRK7wxPointRK6wxSizelRK8wxString @194
    _ZN10wxsItemRes11GetEditModeEv @195
    _ZN10wxsItemRes11OnPopupMenuEl @196
    _ZN10wxsItemRes12BuildResDataEP13wxsItemEditor @197
    _ZN10wxsItemRes12OnReadConfigEPK12TiXmlElement @198
    _ZN10wxsItemRes12ms_classInfoE @199 DATA
    _ZN10wxsItemRes13OnGetTreeIconEv @200
    _ZN10wxsItemRes13OnGetUsingXRCEv @201
    _ZN10wxsItemRes13OnWriteConfigEP12TiXmlElement @202
    _ZN10wxsItemRes14GetHdrFileNameEv @203
    _ZN10wxsItemRes14GetSrcFileNameEv @204
    _ZN10wxsItemRes14GetWxsFileNameEv @205
    _ZN10wxsItemRes14GetXrcFileNameEv @206
    _ZN10wxsItemRes14OnCreateEditorEP8wxWindow @207
    _ZN10wxsItemRes14OnGetCanBeMainEv @208
    _ZN10wxsItemRes15OnCanHandleFileERK8wxString @209
    _ZN10wxsItemRes15OnDeleteCleanupEb @210
    _ZN10wxsItemRes15OnFillPopupMenuEP6wxMenu @211
    _ZN10wxsItemRes17CreateNewResourceERNS_17NewResourceParamsE @212
    _ZN10wxsItemRes17NewResourceParamsC1Ev @213
    _ZN10wxsItemRes17NewResourceParamsD1Ev @214
    _ZN10wxsItemRes20OnGetDeclarationFileEv @215
    _ZN10wxsItemResC1EP10wxsProjectRK8wxStringb @216
    _ZN10wxsItemResC1ERK8wxStringPK12TiXmlElementS2_ @217
    _ZN10wxsItemResC2EP10wxsProjectRK8wxStringb @218
    _ZN10wxsItemResC2ERK8wxStringPK12TiXmlElementS2_ @219
    _ZN10wxsItemResD0Ev @220
    _ZN10wxsItemResD1Ev @221
    _ZN10wxsItemResD2Ev @222
    _ZN10wxsListBox14OnBuildPreviewEP8wxWindowl @223
    _ZN10wxsListBox19OnBuildCreatingCodeEv @224
    _ZN10wxsListBox22OnEnumWidgetPropertiesEl @225
    _ZN10wxsListBoxC1EP14wxsItemResData @226
    _ZN10wxsListBoxC2EP14wxsItemResData @227
    _ZN10wxsListBoxD0Ev @228
    _ZN10wxsListBoxD1Ev @229
    _ZN10wxsMenuBar11OnIsPointerEv @230
    _ZN10wxsMenuBar13OnCanAddChildEP7wxsItemb @231
    _ZN10wxsMenuBar13OnMouseDClickEP8wxWindowii @232
    _ZN10wxsMenuBar14OnXmlReadChildEP12TiXmlElementbb @233
    _ZN10wxsMenuBar18OnCanAddToResourceEP14wxsItemResDatab @234
    _ZN10wxsMenuBar19OnBuildCreatingCodeEv @235
    _ZN10wxsMenuBar20OnEnumToolPropertiesEl @236
    _ZN10wxsMenuBarC1EP14wxsItemResData @237
    _ZN10wxsMenuBarC2EP14wxsItemResData @238
    _ZN10wxsMenuBarD0Ev @239
    _ZN10wxsMenuBarD1Ev @240
    _ZN10wxsProject10ResourcesT3AddEP11wxsResourcej @241
    _ZN10wxsProject10ResourcesT8RemoveAtEjj @242
    _ZN10wxsProject10ResourcesTC1Ev @243
    _ZN10wxsProject10ResourcesTD1Ev @244
    _ZN10wxsProject10UpdateNameEv @245
    _ZN10wxsProject11AddResourceEP11wxsResource @246
    _ZN10wxsProject11DelResourceEP11wxsResource @247
    _ZN10wxsProject11GetResourceEi @248
    _ZN10wxsProject12FindResourceERK8wxString @249
    _ZN10wxsProject12GetCBProjectEv @250
    _ZN10wxsProject12NotifyChangeEv @251
    _ZN10wxsProject13CanOpenEditorERK8wxString @252
    _ZN10wxsProject13TryOpenEditorERK8wxString @253
    _ZN10wxsProject14GetProjectPathEv @254
    _ZN10wxsProject14RecoverWxsFileERK8wxString @255
    _ZN10wxsProject14ResBrowserIdsT4findERK8wxString @256
    _ZN10wxsProject14ResBrowserIdsTC1Ej12wxStringHash13wxStringEqual @257
    _ZN10wxsProject14ResBrowserIdsTD1Ev @258
    _ZN10wxsProject14ResBrowserIdsTixERK8wxString @259
    _ZN10wxsProject17GetResourcesCountEv @260
    _ZN10wxsProject17ReadConfigurationEP12TiXmlElement @261
    _ZN10wxsProject18WriteConfigurationEP12TiXmlElement @262
    _ZN10wxsProject21GetResourceTypeTreeIdERK8wxString @263
    _ZN10wxsProject24GetWasModifiedDuringLoadEv @264
    _ZN10wxsProject28GetProjectConfigurationPanelEP8wxWindow @265
    _ZN10wxsProject36ResBrowserIdsT_wxImplementation_PairC1ERK8wxStringRK12wxTreeItemId @266
    _ZN10wxsProject36ResBrowserIdsT_wxImplementation_PairC1ERKS0_ @267
    _ZN10wxsProject36ResBrowserIdsT_wxImplementation_PairD1Ev @268
    _ZN10wxsProject37ResBrowserIdsT_wxImplementation_KeyExC1Ev @269
    _ZN10wxsProject41ResBrowserIdsT_wxImplementation_HashTable10CreateNodeERKNS_36ResBrowserIdsT_wxImplementation_PairEj @270
    _ZN10wxsProject41ResBrowserIdsT_wxImplementation_HashTable10DeleteNodeEP21_wxHashTable_NodeBase @271
    _ZN10wxsProject41ResBrowserIdsT_wxImplementation_HashTable11ResizeTableEj @272
    _ZN10wxsProject41ResBrowserIdsT_wxImplementation_HashTable15GetOrCreateNodeERKNS_36ResBrowserIdsT_wxImplementation_PairERb @273
    _ZN10wxsProject41ResBrowserIdsT_wxImplementation_HashTable16GetBucketForNodeEPS0_PNS0_4NodeE @274
    _ZN10wxsProject41ResBrowserIdsT_wxImplementation_HashTable3endEv @275
    _ZN10wxsProject41ResBrowserIdsT_wxImplementation_HashTable4Node6m_nextEv @276
    _ZN10wxsProject41ResBrowserIdsT_wxImplementation_HashTable4NodeC1ERKNS_36ResBrowserIdsT_wxImplementation_PairE @277
    _ZN10wxsProject41ResBrowserIdsT_wxImplementation_HashTable4NodeD1Ev @278
    _ZN10wxsProject41ResBrowserIdsT_wxImplementation_HashTable5clearEv @279
    _ZN10wxsProject41ResBrowserIdsT_wxImplementation_HashTable8IteratorC2EPNS0_4NodeEPKS0_ @280
    _ZN10wxsProject41ResBrowserIdsT_wxImplementation_HashTable8iteratorC1EPNS0_4NodeEPS0_ @281
    _ZN10wxsProject41ResBrowserIdsT_wxImplementation_HashTableC2EjRK12wxStringHashRK13wxStringEqualRKNS_37ResBrowserIdsT_wxImplementation_KeyExE @282
    _ZN10wxsProject41ResBrowserIdsT_wxImplementation_HashTableD2Ev @283
    _ZN10wxsProject6GetGUIEv @284
    _ZN10wxsProject6SetGUIEP6wxsGUI @285
    _ZN10wxsProject9ConfigureEv @286
    _ZN10wxsProjectC1EP9cbProject @287
    _ZN10wxsProjectC2EP9cbProject @288
    _ZN10wxsProjectD1Ev @289
    _ZN10wxsProjectD2Ev @290
    _ZN10wxsToolBar11OnIsPointerEv @291
    _ZN10wxsToolBar13OnCanAddChildEP7wxsItemb @292
    _ZN10wxsToolBar13OnMouseDClickEP8wxWindowii @293
    _ZN10wxsToolBar14OnXmlReadChildEP12TiXmlElementbb @294
    _ZN10wxsToolBar18OnCanAddToResourceEP14wxsItemResDatab @295
    _ZN10wxsToolBar19OnBuildCreatingCodeEv @296
    _ZN10wxsToolBar20OnEnumToolPropertiesEl @297
    _ZN10wxsToolBarC1EP14wxsItemResData @298
    _ZN10wxsToolBarC2EP14wxsItemResData @299
    _ZN10wxsToolBarD0Ev @300
    _ZN10wxsToolBarD1Ev @301
    _ZN11TiXmlString4initEj @302
    _ZN11TiXmlString4initEjj @303
    _ZN11TiXmlString4quitEv @304
    _ZN11TiXmlStringC1EPKc @305
    _ZN11TiXmlStringC1Ev @306
    _ZN11TiXmlStringD1Ev @307
    _ZN11TiXmlStringaSEPKc @308
    _ZN11wxAnimationC1ERK8wxString15wxAnimationType @309
    _ZN11wxAnimationC1Ev @310
    _ZN11wxAnimationD1Ev @311
    _ZN11wxArrayBool3AddEbj @312
    _ZN11wxArrayBoolC1Ev @313
    _ZN11wxArrayBoolD1Ev @314
    _ZN11wxArrayLong3AddElj @315
    _ZN11wxArrayLong8RemoveAtEjj @316
    _ZN11wxArrayLongC1Ev @317
    _ZN11wxArrayLongD1Ev @318
    _ZN11wxBrushBaseC2ERKS_ @319
    _ZN11wxBrushBaseD0Ev @320
    _ZN11wxBrushBaseD1Ev @321
    _ZN11wxBrushBaseaSERKS_ @322
    _ZN11wxClassInfoC1EPKwPKS_S3_iPFP8wxObjectvE @323
    _ZN11wxComboCtrlC2Ev @324
    _ZN11wxDirDialogD1Ev @325
    _ZN11wxFrameBase15PositionMenuBarEv @326
    _ZN11wxGDIObject12FreeResourceEb @327
    _ZN11wxGDIObject15RealizeResourceEv @328
    _ZN11wxGDIObjectC2ERKS_ @329
    _ZN11wxGDIObjectC2Ev @330
    _ZN11wxGDIObjectD2Ev @331
    _ZN11wxGDIObjectaSERKS_ @332
    _ZN11wxGaugeBaseC2Ev @333
    _ZN11wxImageListC1Eiibi @334
    _ZN11wxImageListaSERKS_ @335
    _ZN11wxPGChoices10AssignDataEP15wxPGChoicesData @336
    _ZN11wxPGChoices10EnsureDataEv @337
    _ZN11wxPGChoices11AddAsSortedERK8wxStringi @338
    _ZN11wxPGChoices11ExtractDataEv @339
    _ZN11wxPGChoices12SetExclusiveEv @340
    _ZN11wxPGChoices3AddEPPKwPKl @341
    _ZN11wxPGChoices3AddERK13wxArrayStringPKl @342
    _ZN11wxPGChoices3AddERK13wxArrayStringRK10wxArrayInt @343
    _ZN11wxPGChoices3AddERK15wxPGChoiceEntry @344
    _ZN11wxPGChoices3AddERK8wxStringRK8wxBitmapi @345
    _ZN11wxPGChoices3AddERK8wxStringi @346
    _ZN11wxPGChoices3SetEPPKwPKl @347
    _ZN11wxPGChoices3SetER13wxArrayStringPKl @348
    _ZN11wxPGChoices3SetERK13wxArrayStringRK10wxArrayInt @349
    _ZN11wxPGChoices4FreeEv @350
    _ZN11wxPGChoices4InitEv @351
    _ZN11wxPGChoices4ItemEj @352
    _ZN11wxPGChoices5ClearEv @353
    _ZN11wxPGChoices6AssignERKS_ @354
    _ZN11wxPGChoices6InsertERK15wxPGChoiceEntryi @355
    _ZN11wxPGChoices6InsertERK8wxStringii @356
    _ZN11wxPGChoices7GetDataEv @357
    _ZN11wxPGChoices8RemoveAtEjj @358
    _ZN11wxPGChoicesC1EP15wxPGChoicesData @359
    _ZN11wxPGChoicesC1EPPKwPKl @360
    _ZN11wxPGChoicesC1ERK13wxArrayStringRK10wxArrayInt @361
    _ZN11wxPGChoicesC1ERKS_ @362
    _ZN11wxPGChoicesC1Ev @363
    _ZN11wxPGChoicesC2EP15wxPGChoicesData @364
    _ZN11wxPGChoicesC2EPPKwPKl @365
    _ZN11wxPGChoicesC2ERK13wxArrayStringRK10wxArrayInt @366
    _ZN11wxPGChoicesC2ERKS_ @367
    _ZN11wxPGChoicesC2Ev @368
    _ZN11wxPGChoicesD1Ev @369
    _ZN11wxPGChoicesD2Ev @370
    _ZN11wxPGChoicesaSERKS_ @371
    _ZN11wxPGChoicesixEj @372
    _ZN11wxScrollBarC1EP8wxWindowiRK7wxPointRK6wxSizelRK11wxValidatorRK8wxString @373
    _ZN11wxSizeEventC1ERK6wxSizei @374
    _ZN11wxSizeEventD1Ev @375
    _ZN11wxSizerItem13SetProportionEi @376
    _ZN11wxSizerItem7SetFlagEi @377
    _ZN11wxSizerItem9SetBorderEi @378
    _ZN11wxSmithMime8OpenFileERK8wxString @379
    _ZN11wxSmithMimeC1Ev @380
    _ZN11wxSmithMimeC2Ev @381
    _ZN11wxSmithMimeD0Ev @382
    _ZN11wxSmithMimeD1Ev @383
    _ZN11wxSpinEventC1Eii @384
    _ZN11wxSpinEventD1Ev @385
    _ZN11wxStaticBoxC1EP8wxWindowiRK8wxStringRK7wxPointRK6wxSizelS4_ @386
    _ZN11wxStaticBoxC2Ev @387
    _ZN11wxStaticBoxD2Ev @388
    _ZN11wxStopWatchC1Ev @389
    _ZN11wxTimerBase4InitEv @390
    _ZN11wxTimerBase8SetOwnerEP12wxEvtHandleri @391
    _ZN11wxTimerBaseC2EP12wxEvtHandleri @392
    _ZN11wxTimerBaseC2Ev @393
    _ZN11wxValidator9SetWindowEP12wxWindowBase @394
    _ZN11wxsBoxSizer11OnIsPointerEv @395
    _ZN11wxsBoxSizer19OnBuildSizerPreviewEP8wxWindow @396
    _ZN11wxsBoxSizer21OnEnumSizerPropertiesEl @397
    _ZN11wxsBoxSizer24OnBuildSizerCreatingCodeEv @398
    _ZN11wxsBoxSizerC1EP14wxsItemResData @399
    _ZN11wxsBoxSizerC2EP14wxsItemResData @400
    _ZN11wxsBoxSizerD0Ev @401
    _ZN11wxsBoxSizerD1Ev @402
    _ZN11wxsCheckBox14OnBuildPreviewEP8wxWindowl @403
    _ZN11wxsCheckBox19OnBuildCreatingCodeEv @404
    _ZN11wxsCheckBox22OnEnumWidgetPropertiesEl @405
    _ZN11wxsCheckBoxC1EP14wxsItemResData @406
    _ZN11wxsCheckBoxC2EP14wxsItemResData @407
    _ZN11wxsCheckBoxD0Ev @408
    _ZN11wxsCheckBoxD1Ev @409
    _ZN11wxsComboBox14OnBuildPreviewEP8wxWindowl @410
    _ZN11wxsComboBox19OnBuildCreatingCodeEv @411
    _ZN11wxsComboBox22OnEnumWidgetPropertiesEl @412
    _ZN11wxsComboBoxC1EP14wxsItemResData @413
    _ZN11wxsComboBoxC2EP14wxsItemResData @414
    _ZN11wxsComboBoxD0Ev @415
    _ZN11wxsComboBoxD1Ev @416
    _ZN11wxsFontData13BuildFontCodeERK8wxStringP15wxsCoderContext @417
    _ZN11wxsFontData9BuildFontEv @418
    _ZN11wxsFontDataC1Ev @419
    _ZN11wxsFontDataD1Ev @420
    _ZN11wxsFontDataaSERKS_ @421
    _ZN11wxsFrameRes19OnBuildExactPreviewEP8wxWindowP14wxsItemResData @422
    _ZN11wxsFrameRes20OnGetAppBuildingCodeEv @423
    _ZN11wxsFrameRes7ResTypeE @424 DATA
    _ZN11wxsFrameResC1EP10wxsProject @425
    _ZN11wxsFrameResC1ERK8wxStringP12TiXmlElement @426
    _ZN11wxsFrameResD0Ev @427
    _ZN11wxsFrameResD1Ev @428
    _ZN11wxsGLCanvas14OnBuildPreviewEP8wxWindowl @429
    _ZN11wxsGLCanvas19OnBuildCreatingCodeEv @430
    _ZN11wxsGLCanvas22OnEnumWidgetPropertiesEl @431
    _ZN11wxsGLCanvasC1EP14wxsItemResData @432
    _ZN11wxsGLCanvasC2EP14wxsItemResData @433
    _ZN11wxsGLCanvasD0Ev @434
    _ZN11wxsGLCanvasD1Ev @435
    _ZN11wxsItemInfoC1Ev @436
    _ZN11wxsItemInfoC2Ev @437
    _ZN11wxsItemInfoD1Ev @438
    _ZN11wxsItemInfoD2Ev @439
    _ZN11wxsListCtrl14OnBuildPreviewEP8wxWindowl @440
    _ZN11wxsListCtrl19OnBuildCreatingCodeEv @441
    _ZN11wxsListCtrl22OnEnumWidgetPropertiesEl @442
    _ZN11wxsListCtrlC1EP14wxsItemResData @443
    _ZN11wxsListCtrlC2EP14wxsItemResData @444
    _ZN11wxsListCtrlD0Ev @445
    _ZN11wxsListCtrlD1Ev @446
    _ZN11wxsListView14OnBuildPreviewEP8wxWindowl @447
    _ZN11wxsListView19OnBuildCreatingCodeEv @448
    _ZN11wxsListView22OnEnumWidgetPropertiesEl @449
    _ZN11wxsListViewC1EP14wxsItemResData @450
    _ZN11wxsListViewC2EP14wxsItemResData @451
    _ZN11wxsListViewD0Ev @452
    _ZN11wxsListViewD1Ev @453
    _ZN11wxsListbook12OnBuildExtraEv @454
    _ZN11wxsListbook12OnMouseClickEP8wxWindowii @455
    _ZN11wxsListbook13OnAddChildQPPEP7wxsItemP9wxsAdvQPP @456
    _ZN11wxsListbook13OnCanAddChildEP7wxsItemb @457
    _ZN11wxsListbook14OnBuildPreviewEP8wxWindowl @458
    _ZN11wxsListbook19OnBuildCreatingCodeEv @459
    _ZN11wxsListbook22UpdateCurrentSelectionEv @460
    _ZN11wxsListbook23OnIsChildPreviewVisibleEP7wxsItem @461
    _ZN11wxsListbook24OnXmlGetExtraObjectClassEv @462
    _ZN11wxsListbook25OnEnumContainerPropertiesEl @463
    _ZN11wxsListbook27OnEnsureChildPreviewVisibleEP7wxsItem @464
    _ZN11wxsListbookC1EP14wxsItemResData @465
    _ZN11wxsListbookC2EP14wxsItemResData @466
    _ZN11wxsListbookD0Ev @467
    _ZN11wxsListbookD1Ev @468
    _ZN11wxsMenuItem10OnXmlWriteEP12TiXmlElementbb @469
    _ZN11wxsMenuItem11OnIsPointerEv @470
    _ZN11wxsMenuItem12GetClassNameEv @471
    _ZN11wxsMenuItem14OnGetTreeLabelERi @472
    _ZN11wxsMenuItem14OnXmlReadChildEP12TiXmlElementbb @473
    _ZN11wxsMenuItem15OnEnumDeclFilesER13wxArrayStringS1_13wxsCodingLang @474
    _ZN11wxsMenuItem16OnCanAddToParentEP9wxsParentb @475
    _ZN11wxsMenuItem18OnCanAddToResourceEP14wxsItemResDatab @476
    _ZN11wxsMenuItem19OnBuildCreatingCodeEv @477
    _ZN11wxsMenuItem20OnEnumToolPropertiesEl @478
    _ZN11wxsMenuItem22OnBuildXRCFetchingCodeEv @479
    _ZN11wxsMenuItem23OnBuildDeclarationsCodeEv @480
    _ZN11wxsMenuItem9OnXmlReadEP12TiXmlElementbb @481
    _ZN11wxsMenuItemC1EP14wxsItemResDatab @482
    _ZN11wxsMenuItemC2EP14wxsItemResDatab @483
    _ZN11wxsMenuItemD0Ev @484
    _ZN11wxsMenuItemD1Ev @485
    _ZN11wxsNotebook12OnBuildExtraEv @486
    _ZN11wxsNotebook12OnMouseClickEP8wxWindowii @487
    _ZN11wxsNotebook13OnAddChildQPPEP7wxsItemP9wxsAdvQPP @488
    _ZN11wxsNotebook13OnCanAddChildEP7wxsItemb @489
    _ZN11wxsNotebook14OnBuildPreviewEP8wxWindowl @490
    _ZN11wxsNotebook14OnPreparePopupEP6wxMenu @491
    _ZN11wxsNotebook19OnBuildCreatingCodeEv @492
    _ZN11wxsNotebook22UpdateCurrentSelectionEv @493
    _ZN11wxsNotebook23OnIsChildPreviewVisibleEP7wxsItem @494
    _ZN11wxsNotebook24OnXmlGetExtraObjectClassEv @495
    _ZN11wxsNotebook25OnEnumContainerPropertiesEl @496
    _ZN11wxsNotebook27OnEnsureChildPreviewVisibleEP7wxsItem @497
    _ZN11wxsNotebook7OnPopupEl @498
    _ZN11wxsNotebookC1EP14wxsItemResData @499
    _ZN11wxsNotebookC2EP14wxsItemResData @500
    _ZN11wxsNotebookD0Ev @501
    _ZN11wxsNotebookD1Ev @502
    _ZN11wxsPanelRes19OnBuildExactPreviewEP8wxWindowP14wxsItemResData @503
    _ZN11wxsPanelRes20OnGetAppBuildingCodeEv @504
    _ZN11wxsPanelRes7ResTypeE @505 DATA
    _ZN11wxsPanelResC1EP10wxsProject @506
    _ZN11wxsPanelResC1ERK8wxStringP12TiXmlElement @507
    _ZN11wxsPanelResD0Ev @508
    _ZN11wxsPanelResD1Ev @509
    _ZN11wxsProperty10PGRegisterEP20wxsPropertyContainerP21wxPropertyGridManagerP12wxPGPropertyl @510
    _ZN11wxsProperty11GetDataNameEv @511
    _ZN11wxsProperty11GetPriorityEv @512
    _ZN11wxsProperty12XmlGetStringEP12TiXmlElementR8wxStringRKS2_ @513
    _ZN11wxsProperty12XmlSetStringEP12TiXmlElementRK8wxStringS4_ @514
    _ZN11wxsProperty14PropStreamReadEP20wxsPropertyContainerP17wxsPropertyStream @515
    _ZN11wxsProperty15PropStreamWriteEP20wxsPropertyContainerP17wxsPropertyStream @516
    _ZN11wxsProperty18GetPropertiesFlagsEP20wxsPropertyContainer @517
    _ZN11wxsProperty6PGReadEP20wxsPropertyContainerP21wxPropertyGridManagerP12wxPGPropertyl @518
    _ZN11wxsProperty7PGWriteEP20wxsPropertyContainerP21wxPropertyGridManagerP12wxPGPropertyl @519
    _ZN11wxsProperty7XmlReadEP20wxsPropertyContainerP12TiXmlElement @520
    _ZN11wxsProperty8PGCreateEP20wxsPropertyContainerP21wxPropertyGridManagerP12wxPGProperty @521
    _ZN11wxsProperty8XmlWriteEP20wxsPropertyContainerP12TiXmlElement @522
    _ZN11wxsProperty9GetPGNameEv @523
    _ZN11wxsPropertyC1ERK8wxStringS2_i @524
    _ZN11wxsPropertyC2ERK8wxStringS2_i @525
    _ZN11wxsPropertyD0Ev @526
    _ZN11wxsPropertyD1Ev @527
    _ZN11wxsPropertyD2Ev @528
    _ZN11wxsRadioBox14OnBuildPreviewEP8wxWindowl @529
    _ZN11wxsRadioBox19OnBuildCreatingCodeEv @530
    _ZN11wxsRadioBox22OnEnumWidgetPropertiesEl @531
    _ZN11wxsRadioBoxC1EP14wxsItemResData @532
    _ZN11wxsRadioBoxC2EP14wxsItemResData @533
    _ZN11wxsRadioBoxD0Ev @534
    _ZN11wxsRadioBoxD1Ev @535
    _ZN11wxsResource10GetProjectEv @536
    _ZN11wxsResource10ReadConfigEPK12TiXmlElement @537
    _ZN11wxsResource11GetLanguageEv @538
    _ZN11wxsResource11OnPopupMenuEl @539
    _ZN11wxsResource11SetLanguageE13wxsCodingLang @540
    _ZN11wxsResource11WriteConfigEP12TiXmlElement @541
    _ZN11wxsResource12EditorClosedEv @542
    _ZN11wxsResource12ms_classInfoE @543 DATA
    _ZN11wxsResource13DeleteCleanupEb @544
    _ZN11wxsResource13GetTreeItemIdEv @545
    _ZN11wxsResource13OnGetTreeIconEv @546
    _ZN11wxsResource14BuildTreeEntryERK12wxTreeItemId @547
    _ZN11wxsResource14GetProjectPathEv @548
    _ZN11wxsResource15GetResourceNameEv @549
    _ZN11wxsResource15GetResourceTypeEv @550
    _ZN11wxsResource15OnDeleteCleanupEb @551
    _ZN11wxsResource15OnFillPopupMenuEP6wxMenu @552
    _ZN11wxsResource15SetResourceNameERK8wxString @553
    _ZN11wxsResource18GetAppBuildingCodeEv @554
    _ZN11wxsResource18GetDeclarationFileEv @555
    _ZN11wxsResource20OnGetAppBuildingCodeEv @556
    _ZN11wxsResource20OnGetDeclarationFileEv @557
    _ZN11wxsResource27wxsResourceRootTreeItemData12OnRightClickEv @558
    _ZN11wxsResource27wxsResourceRootTreeItemData14DeleteResourceEv @559
    _ZN11wxsResource27wxsResourceRootTreeItemData7OnPopupEl @560
    _ZN11wxsResource27wxsResourceRootTreeItemData8OnSelectEv @561
    _ZN11wxsResource27wxsResourceRootTreeItemDataC1EPS_ @562
    _ZN11wxsResource27wxsResourceRootTreeItemDataD0Ev @563
    _ZN11wxsResource27wxsResourceRootTreeItemDataD1Ev @564
    _ZN11wxsResource6GetGUIEv @565
    _ZN11wxsResource8EditOpenEv @566
    _ZN11wxsResource9EditCloseEv @567
    _ZN11wxsResource9GetEditorEv @568
    _ZN11wxsResourceC1EP10wxsProjectRK8wxStringS4_ @569
    _ZN11wxsResourceC2EP10wxsProjectRK8wxStringS4_ @570
    _ZN11wxsResourceD0Ev @571
    _ZN11wxsResourceD1Ev @572
    _ZN11wxsResourceD2Ev @573
    _ZN11wxsSettings10ID_BUTTON1E @574 DATA
    _ZN11wxsSettings10ID_BUTTON2E @575 DATA
    _ZN11wxsSettings10ID_CHOICE1E @576 DATA
    _ZN11wxsSettings10ID_CHOICE2E @577 DATA
    _ZN11wxsSettings12ID_CHECKBOX1E @578 DATA
    _ZN11wxsSettings12ID_CHECKBOX2E @579 DATA
    _ZN11wxsSettings12ID_CHECKBOX3E @580 DATA
    _ZN11wxsSettings12ID_CHECKBOX4E @581 DATA
    _ZN11wxsSettings12ID_CHECKBOX5E @582 DATA
    _ZN11wxsSettings12ID_CHECKBOX6E @583 DATA
    _ZN11wxsSettings12ID_CHECKBOX7E @584 DATA
    _ZN11wxsSettings12ID_CHECKBOX8E @585 DATA
    _ZN11wxsSettings12ID_CHECKBOX9E @586 DATA
    _ZN11wxsSettings12ID_COMBOBOX1E @587 DATA
    _ZN11wxsSettings12ID_SPINCTRL1E @588 DATA
    _ZN11wxsSettings12ID_SPINCTRL2E @589 DATA
    _ZN11wxsSettings12ID_SPINCTRL3E @590 DATA
    _ZN11wxsSettings13ID_CHECKBOX10E @591 DATA
    _ZN11wxsSettings13ID_CHECKBOX11E @592 DATA
    _ZN11wxsSettings13sm_eventTableE @593 DATA
    _ZN11wxsSettings14ID_STATICTEXT1E @594 DATA
    _ZN11wxsSettings14ID_STATICTEXT2E @595 DATA
    _ZN11wxsSettings14ID_STATICTEXT3E @596 DATA
    _ZN11wxsSettings14ID_STATICTEXT4E @597 DATA
    _ZN11wxsSettings14ID_STATICTEXT5E @598 DATA
    _ZN11wxsSettings14ID_STATICTEXT6E @599 DATA
    _ZN11wxsSettings14ID_STATICTEXT7E @600 DATA
    _ZN11wxsSettings14ID_STATICTEXT8E @601 DATA
    _ZN11wxsSettings14ID_STATICTEXT9E @602 DATA
    _ZN11wxsSettings14OnUseGridClickER14wxCommandEvent @603
    _ZN11wxsSettings15ID_RADIOBUTTON1E @604 DATA
    _ZN11wxsSettings15ID_RADIOBUTTON2E @605 DATA
    _ZN11wxsSettings15ID_RADIOBUTTON3E @606 DATA
    _ZN11wxsSettings15ID_RADIOBUTTON4E @607 DATA
    _ZN11wxsSettings15ID_STATICTEXT10E @608 DATA
    _ZN11wxsSettings15ID_STATICTEXT11E @609 DATA
    _ZN11wxsSettings15ID_STATICTEXT12E @610 DATA
    _ZN11wxsSettings15ID_STATICTEXT13E @611 DATA
    _ZN11wxsSettings15ID_STATICTEXT14E @612 DATA
    _ZN11wxsSettings17sm_eventHashTableE @613 DATA
    _ZN11wxsSettings20OnDragParentColClickER14wxCommandEvent @614
    _ZN11wxsSettings20OnDragTargetColClickER14wxCommandEvent @615
    _ZN11wxsSettings20sm_eventTableEntriesE @616 DATA
    _ZN11wxsSettings7OnApplyEv @617
    _ZN11wxsSettings8OnCancelEv @618
    _ZN11wxsSettingsC1EP8wxWindowi @619
    _ZN11wxsSettingsC2EP8wxWindowi @620
    _ZN11wxsSettingsD0Ev @621
    _ZN11wxsSettingsD1Ev @622
    _ZN11wxsSettingsD2Ev @623
    _ZN11wxsSpinCtrl14OnBuildPreviewEP8wxWindowl @624
    _ZN11wxsSpinCtrl19OnBuildCreatingCodeEv @625
    _ZN11wxsSpinCtrl22OnEnumWidgetPropertiesEl @626
    _ZN11wxsSpinCtrlC1EP14wxsItemResData @627
    _ZN11wxsSpinCtrlC2EP14wxsItemResData @628
    _ZN11wxsSpinCtrlD0Ev @629
    _ZN11wxsSpinCtrlD1Ev @630
    _ZN11wxsStyleSet8AddStyleEPKwll @631
    _ZN11wxsStyleSet8EndStyleEv @632
    _ZN11wxsStyleSetC1EPKw @633
    _ZN11wxsStyleSetC2EPKw @634
    _ZN11wxsStyleSetD1Ev @635
    _ZN11wxsStyleSetD2Ev @636
    _ZN11wxsTextCtrl14OnBuildPreviewEP8wxWindowl @637
    _ZN11wxsTextCtrl19OnBuildCreatingCodeEv @638
    _ZN11wxsTextCtrl22OnEnumWidgetPropertiesEl @639
    _ZN11wxsTextCtrlC1EP14wxsItemResData @640
    _ZN11wxsTextCtrlC2EP14wxsItemResData @641
    _ZN11wxsTextCtrlD0Ev @642
    _ZN11wxsTextCtrlD1Ev @643
    _ZN11wxsTreeCtrl14OnBuildPreviewEP8wxWindowl @644
    _ZN11wxsTreeCtrl19OnBuildCreatingCodeEv @645
    _ZN11wxsTreeCtrl22OnEnumWidgetPropertiesEl @646
    _ZN11wxsTreeCtrlC1EP14wxsItemResData @647
    _ZN11wxsTreeCtrlC2EP14wxsItemResData @648
    _ZN11wxsTreeCtrlD0Ev @649
    _ZN11wxsTreeCtrlD1Ev @650
    _ZN11wxsTreebook12OnBuildExtraEv @651
    _ZN11wxsTreebook12OnMouseClickEP8wxWindowii @652
    _ZN11wxsTreebook13OnAddChildQPPEP7wxsItemP9wxsAdvQPP @653
    _ZN11wxsTreebook13OnCanAddChildEP7wxsItemb @654
    _ZN11wxsTreebook14OnBuildPreviewEP8wxWindowl @655
    _ZN11wxsTreebook14OnPreparePopupEP6wxMenu @656
    _ZN11wxsTreebook19OnBuildCreatingCodeEv @657
    _ZN11wxsTreebook22UpdateCurrentSelectionEv @658
    _ZN11wxsTreebook23OnIsChildPreviewVisibleEP7wxsItem @659
    _ZN11wxsTreebook24OnXmlGetExtraObjectClassEv @660
    _ZN11wxsTreebook25OnEnumContainerPropertiesEl @661
    _ZN11wxsTreebook27OnEnsureChildPreviewVisibleEP7wxsItem @662
    _ZN11wxsTreebook7OnPopupEl @663
    _ZN11wxsTreebookC1EP14wxsItemResData @664
    _ZN11wxsTreebookC2EP14wxsItemResData @665
    _ZN11wxsTreebookD0Ev @666
    _ZN11wxsTreebookD1Ev @667
    _ZN12BuildTargetsaSERKS_ @668
    _ZN12IFunctorBaseC2Ev @669
    _ZN12IFunctorBaseD0Ev @670
    _ZN12IFunctorBaseD1Ev @671
    _ZN12IFunctorBaseD2Ev @672
    _ZN12ProjectFilesaSERKS_ @673
    _ZN12StackHandler11GetUserDataEiPv @674
    _ZN12StackHandler13GetParamCountEv @675
    _ZN12StackHandlerC1EP4SQVM @676
    _ZN12TiXmlElement14FirstAttributeEv @677
    _ZN12TiXmlPrinter4CStrEv @678
    _ZN12TiXmlPrinter9SetIndentEPKc @679
    _ZN12TiXmlPrinterC1Ev @680
    _ZN12TiXmlPrinterD1Ev @681
    _ZN12TiXmlVisitor10VisitEnterERK12TiXmlElementPK14TiXmlAttribute @682
    _ZN12TiXmlVisitor10VisitEnterERK13TiXmlDocument @683
    _ZN12TiXmlVisitor5VisitERK12TiXmlComment @684
    _ZN12TiXmlVisitor5VisitERK12TiXmlUnknown @685
    _ZN12TiXmlVisitor5VisitERK16TiXmlDeclaration @686
    _ZN12TiXmlVisitor5VisitERK9TiXmlText @687
    _ZN12TiXmlVisitor9VisitExitERK12TiXmlElement @688
    _ZN12TiXmlVisitor9VisitExitERK13TiXmlDocument @689
    _ZN12TiXmlVisitorC2Ev @690
    _ZN12TiXmlVisitorD0Ev @691
    _ZN12TiXmlVisitorD1Ev @692
    _ZN12TiXmlVisitorD2Ev @693
    _ZN12cbMimePlugin10RemoveMenuEP9wxMenuBar @694
    _ZN12cbMimePlugin12BuildToolBarEP12wxAuiToolBar @695
    _ZN12cbMimePlugin13RemoveToolBarEP12wxAuiToolBar @696
    _ZN12cbMimePlugin15BuildModuleMenuE10ModuleTypeP6wxMenuPK12FileTreeData @697
    _ZN12cbMimePlugin9BuildMenuEP9wxMenuBar @698
    _ZN12cbMimePluginD0Ev @699
    _ZN12cbMimePluginD1Ev @700
    _ZN12cbMimePluginD2Ev @701
    _ZN12cbToolPlugin10RemoveMenuEP9wxMenuBar @702
    _ZN12cbToolPlugin12BuildToolBarEP12wxAuiToolBar @703
    _ZN12cbToolPlugin13RemoveToolBarEP12wxAuiToolBar @704
    _ZN12cbToolPlugin15BuildModuleMenuE10ModuleTypeP6wxMenuPK12FileTreeData @705
    _ZN12cbToolPlugin9BuildMenuEP9wxMenuBar @706
    _ZN12cbToolPluginD0Ev @707
    _ZN12cbToolPluginD1Ev @708
    _ZN12wxAppConsole11GetInstanceEv @709
    _ZN12wxArrayPagesC1Ev @710
    _ZN12wxArrayPagesD1Ev @711
    _ZN12wxAuiToolBar17SetToolBitmapSizeERK6wxSize @712
    _ZN12wxBufferedDC10InitCommonEP4wxDCi @713
    _ZN12wxBufferedDC4InitEP4wxDCR8wxBitmapi @714
    _ZN12wxBufferedDC6UnMaskEv @715
    _ZN12wxBufferedDCC1EP4wxDCR8wxBitmapi @716
    _ZN12wxBufferedDCD1Ev @717
    _ZN12wxButtonBase10SetDefaultEv @718
    _ZN12wxButtonBase13SetImageLabelERK8wxBitmap @719
    _ZN12wxButtonBase15SetImageMarginsEii @720
    _ZN12wxButtonBaseC2Ev @721
    _ZN12wxButtonBaseD0Ev @722
    _ZN12wxButtonBaseD1Ev @723
    _ZN12wxButtonBaseD2Ev @724
    _ZN12wxCharBufferD1Ev @725
    _ZN12wxChoiceBaseC2Ev @726
    _ZN12wxChoicebookC1EP8wxWindowiRK7wxPointRK6wxSizelRK8wxString @727
    _ZN12wxClientDataC2Ev @728
    _ZN12wxClientDataD0Ev @729
    _ZN12wxClientDataD1Ev @730
    _ZN12wxClientDataD2Ev @731
    _ZN12wxCloseEvent4VetoEb @732
    _ZN12wxColourBase3SetEhhhh @733
    _ZN12wxColourBase3SetEm @734
    _ZN12wxColourBaseC2ERKS_ @735
    _ZN12wxColourBaseC2Ev @736
    _ZN12wxColourBaseD2Ev @737
    _ZN12wxColourBaseaSERKS_ @738
    _ZN12wxColourData13SetChooseFullEb @739
    _ZN12wxColourData9GetColourEv @740
    _ZN12wxColourData9SetColourERK8wxColour @741
    _ZN12wxDataFormatC1EPKw @742
    _ZN12wxDataFormatC1Et @743
    _ZN12wxDataFormataSERKS_ @744
    _ZN12wxDialogBaseC2Ev @745
    _ZN12wxDialogBaseD2Ev @746
    _ZN12wxEvtHandler10DisconnectEiM8wxObjectFvR7wxEventEPS0_PS_ @747
    _ZN12wxEvtHandler10DisconnectEiiM8wxObjectFvR7wxEventEPS0_PS_ @748
    _ZN12wxEvtHandler12TryValidatorER7wxEvent @749
    _ZN12wxEvtHandler13SetClientDataEPv @750
    _ZN12wxEvtHandler15SetClientObjectEP12wxClientData @751
    _ZN12wxEvtHandler7ConnectEiM8wxObjectFvR7wxEventEPS0_PS_ @752
    _ZN12wxEvtHandler7ConnectEiiM8wxObjectFvR7wxEventEPS0_PS_ @753
    _ZN12wxFileDialogD1Ev @754
    _ZN12wxFontDialogC1EP8wxWindowRK10wxFontData @755
    _ZN12wxFontDialogD1Ev @756
    _ZN12wxHtmlWindow10SetBordersEi @757
    _ZN12wxHtmlWindowC1EP8wxWindowiRK7wxPointRK6wxSizelRK8wxString @758
    _ZN12wxMBConvUTF8C1Ei @759
    _ZN12wxObjectList10CreateNodeEP10wxNodeBaseS1_PvRK9wxListKey @760
    _ZN12wxObjectList14const_iteratorC1EP16wxObjectListNodeS2_ @761
    _ZN12wxObjectList14const_iteratorC1ERKNS_8iteratorE @762
    _ZN12wxObjectList14const_iteratorC1Ev @763
    _ZN12wxObjectList14const_iteratorppEi @764
    _ZN12wxObjectList3endEv @765
    _ZN12wxObjectList5beginEv @766
    _ZN12wxObjectList6AppendEP8wxObject @767
    _ZN12wxObjectList8iteratorC1EP16wxObjectListNodeS2_ @768
    _ZN12wxObjectList8iteratorC1Ev @769
    _ZN12wxObjectList8iteratorppEi @770
    _ZN12wxObjectListD0Ev @771
    _ZN12wxObjectListD1Ev @772
    _ZN12wxObjectListD2Ev @773
    _ZN12wxPGComboBox16PositionTextCtrlEii @774
    _ZN12wxPGComboBox6CreateEP8wxWindowiRK8wxStringRK7wxPointRK6wxSizeRK13wxArrayStringlRK11wxValidatorS4_ @775
    _ZN12wxPGComboBoxC1Ev @776
    _ZN12wxPGComboBoxD0Ev @777
    _ZN12wxPGComboBoxD1Ev @778
    _ZN12wxPGProperty10ChangeFlagEjb @779
    _ZN12wxPGProperty10GetChoicesEv @780
    _ZN12wxPGProperty10OnSetValueEv @781
    _ZN12wxPGProperty10SetChoicesER11wxPGChoices @782
    _ZN12wxPGProperty10SetChoicesERK13wxArrayStringRK10wxArrayInt @783
    _ZN12wxPGProperty11AcquireCellEj @784
    _ZN12wxPGProperty11AppendChildEPS_ @785
    _ZN12wxPGProperty11GetValueRefEv @786
    _ZN12wxPGProperty11InsertChildEiPS_ @787
    _ZN12wxPGProperty11SetExpandedEb @788
    _ZN12wxPGProperty12AppendChoiceERK8wxStringi @789
    _ZN12wxPGProperty12DeleteChoiceEi @790
    _ZN12wxPGProperty12InsertChoiceERK8wxStringii @791
    _ZN12wxPGProperty12SetAttributeERK8wxString9wxVariant @792
    _ZN12wxPGProperty12SetMaxLengthEi @793
    _ZN12wxPGProperty12SetValidatorERK11wxValidator @794
    _ZN12wxPGProperty12ms_classInfoE @795 DATA
    _ZN12wxPGProperty13GetChoiceInfoEP14wxPGChoiceInfo @796
    _ZN12wxPGProperty13OnCustomPaintER4wxDCRK6wxRectR13wxPGPaintData @797
    _ZN12wxPGProperty13RefreshEditorEv @798
    _ZN12wxPGProperty13SetAttributesERK20wxPGAttributeStorage @799
    _ZN12wxPGProperty13SetClientDataEPv @800
    _ZN12wxPGProperty13SetHelpStringERK8wxString @801
    _ZN12wxPGProperty13SetValueImageER8wxBitmap @802
    _ZN12wxPGProperty14DeleteChildrenEv @803
    _ZN12wxPGProperty14DoSetAttributeERK8wxStringR9wxVariant @804
    _ZN12wxPGProperty14RecreateEditorEv @805
    _ZN12wxPGProperty14SetCommonValueEi @806
    _ZN12wxPGProperty14SetParentStateEP19wxPropertyGridState @807
    _ZN12wxPGProperty14SetWasModifiedEb @808
    _ZN12wxPGProperty15AddPrivateChildEPS_ @809
    _ZN12wxPGProperty15GetChoiceStringEj @810
    _ZN12wxPGProperty15GetOrCreateCellEj @811
    _ZN12wxPGProperty15RefreshChildrenEv @812
    _ZN12wxPGProperty15SetDefaultValueER9wxVariant @813
    _ZN12wxPGProperty15SetParentalTypeEi @814
    _ZN12wxPGProperty15SetValueFromIntEli @815
    _ZN12wxPGProperty15SubPropsChangedEi @816
    _ZN12wxPGProperty17EnableCommonValueEb @817
    _ZN12wxPGProperty18SetChoiceSelectionEiRK14wxPGChoiceInfo @818
    _ZN12wxPGProperty18SetFlagRecursivelyEjb @819
    _ZN12wxPGProperty18SetFlagsFromStringERK8wxString @820
    _ZN12wxPGProperty18SetValueFromStringERK8wxStringi @821
    _ZN12wxPGProperty18UpdateParentValuesEv @822
    _ZN12wxPGProperty19OnValidationFailureER9wxVariant @823
    _ZN12wxPGProperty19SetChoicesExclusiveEv @824
    _ZN12wxPGProperty20FixIndexesOfChildrenEj @825
    _ZN12wxPGProperty20PrepareSubPropertiesEv @826
    _ZN12wxPGProperty21SetValueToUnspecifiedEv @827
    _ZN12wxPGProperty28PrepareValueForDialogEditingEP14wxPropertyGrid @828
    _ZN12wxPGProperty4HideEbi @829
    _ZN12wxPGProperty4InitERK8wxStringS2_ @830
    _ZN12wxPGProperty4InitEv @831
    _ZN12wxPGProperty5EmptyEv @832
    _ZN12wxPGProperty5GetIdEv @833
    _ZN12wxPGProperty6DoHideEbi @834
    _ZN12wxPGProperty7DoEmptyEv @835
    _ZN12wxPGProperty7OnEventEP14wxPropertyGridP8wxWindowR7wxEvent @836
    _ZN12wxPGProperty7SetCellEiP8wxPGCell @837
    _ZN12wxPGProperty7SetFlagEj @838
    _ZN12wxPGProperty7SetNameERK8wxString @839
    _ZN12wxPGProperty8AddChildEPS_ @840
    _ZN12wxPGProperty8SetLabelERK8wxString @841
    _ZN12wxPGProperty8SetValueE9wxVariantPS0_i @842
    _ZN12wxPGProperty9AddChild2EPS_ib @843
    _ZN12wxPGProperty9ClearFlagEj @844
    _ZN12wxPGProperty9DoSetNameERK8wxString @845
    _ZN12wxPGProperty9SetEditorEPK10wxPGEditor @846
    _ZN12wxPGProperty9SetEditorERK8wxString @847
    _ZN12wxPGPropertyC1ERK8wxStringS2_ @848
    _ZN12wxPGPropertyC1Ev @849
    _ZN12wxPGPropertyC2ERK8wxStringS2_ @850
    _ZN12wxPGPropertyC2Ev @851
    _ZN12wxPGPropertyD0Ev @852
    _ZN12wxPGPropertyD1Ev @853
    _ZN12wxPGPropertyD2Ev @854
    _ZN12wxPickerBaseC2Ev @855
    _ZN12wxPickerBaseD2Ev @856
    _ZN12wxRegionBase8SubtractERK6wxRect @857
    _ZN12wxSashWindowC1EP8wxWindowiRK7wxPointRK6wxSizelRK8wxString @858
    _ZN12wxSashWindowC2Ev @859
    _ZN12wxSliderBase10ClearTicksEv @860
    _ZN12wxSliderBase11SetTickFreqEii @861
    _ZN12wxSliderBase12SetSelectionEii @862
    _ZN12wxSliderBase7SetTickEi @863
    _ZN12wxSliderBase8ClearSelEv @864
    _ZN12wxSliderBaseC2Ev @865
    _ZN12wxSliderBaseD0Ev @866
    _ZN12wxSliderBaseD1Ev @867
    _ZN12wxSliderBaseD2Ev @868
    _ZN12wxSpinButtonC1EP8wxWindowiRK7wxPointRK6wxSizelRK8wxString @869
    _ZN12wxSpinButtonC1Ev @870
    _ZN12wxSpinButtonC2Ev @871
    _ZN12wxStaticLineC1EP8wxWindowiRK7wxPointRK6wxSizelRK8wxString @872
    _ZN12wxStaticTextC1EP8wxWindowiRK8wxStringRK7wxPointRK6wxSizelS4_ @873
    _ZN12wxStringBase10ConcatSelfEjPKw @874
    _ZN12wxStringBase16reverse_iteratorC1EPw @875
    _ZN12wxStringBase2atEj @876
    _ZN12wxStringBase4InitEv @877
    _ZN12wxStringBase5clearEv @878
    _ZN12wxStringBase6appendEPKw @879
    _ZN12wxStringBase6appendERKS_ @880
    _ZN12wxStringBase6insertEjRKS_ @881
    _ZN12wxStringBase6rbeginEv @882
    _ZN12wxStringBase7reserveEj @883
    _ZN12wxStringBaseC2EPKw @884
    _ZN12wxStringBaseC2ERKS_ @885
    _ZN12wxStringBaseC2Ev @886
    _ZN12wxStringBaseD1Ev @887
    _ZN12wxStringBaseD2Ev @888
    _ZN12wxStringBasepLEPKw @889
    _ZN12wxStringBasepLERKS_ @890
    _ZN12wxStringBasepLEw @891
    _ZN12wxStringData4LockEv @892
    _ZN12wxStringData6UnlockEv @893
    _ZN12wxStringHashC1Ev @894
    _ZN12wxStringHashaSERKS_ @895
    _ZN12wxTreeItemIdC1Ev @896
    _ZN12wxWidgetsGUI10ScanForAppEP11ProjectFile @897
    _ZN12wxWidgetsGUI12CreateNewAppERK8wxString @898
    _ZN12wxWidgetsGUI12OnReadConfigEP12TiXmlElement @899
    _ZN12wxWidgetsGUI12ms_classInfoE @900 DATA
    _ZN12wxWidgetsGUI13AddSmithToAppERK8wxString13wxsCodingLang @901
    _ZN12wxWidgetsGUI13OnWriteConfigEP12TiXmlElement @902
    _ZN12wxWidgetsGUI13SetInitParamsEbb @903
    _ZN12wxWidgetsGUI15GetAppClassNameERK8wxString13wxsCodingLang @904
    _ZN12wxWidgetsGUI16SetAppSourceFileERK8wxString @905
    _ZN12wxWidgetsGUI18GetLoadedResourcesEv @906
    _ZN12wxWidgetsGUI18IsAppSourceManagedERK8wxString13wxsCodingLang @907
    _ZN12wxWidgetsGUI19SetMainResourceNameERK8wxString @908
    _ZN12wxWidgetsGUI22EnumerateMainResourcesER13wxArrayString @909
    _ZN12wxWidgetsGUI24OnRebuildApplicationCodeEv @910
    _ZN12wxWidgetsGUI25OnBuildConfigurationPanelEP8wxWindow @911
    _ZN12wxWidgetsGUI26OnCreateApplicationBindingEv @912
    _ZN12wxWidgetsGUI27OnCheckIfApplicationManagedEv @913
    _ZN12wxWidgetsGUI5MatchERK8wxStringiw @914
    _ZN12wxWidgetsGUI7IsWhiteERK8wxStringi @915
    _ZN12wxWidgetsGUI7IsWhiteEw @916
    _ZN12wxWidgetsGUIC1EP10wxsProject @917
    _ZN12wxWidgetsGUIC2EP10wxsProject @918
    _ZN12wxWidgetsGUID0Ev @919
    _ZN12wxWidgetsGUID1Ev @920
    _ZN12wxWidgetsGUID2Ev @921
    _ZN12wxWidgetsRes12ms_classInfoE @922 DATA
    _ZN12wxWidgetsResC2EP10wxsProjectRK8wxString @923
    _ZN12wxWidgetsResD0Ev @924
    _ZN12wxWidgetsResD1Ev @925
    _ZN12wxWidgetsResD2Ev @926
    _ZN12wxWindowBase10SetMaxSizeERK6wxSize @927
    _ZN12wxWindowBase10SetMinSizeERK6wxSize @928
    _ZN12wxWindowBase10SetToolTipEP9wxToolTip @929
    _ZN12wxWindowBase11GetChildrenEv @930
    _ZN12wxWindowBase11RefreshRectERK6wxRectb @931
    _ZN12wxWindowBase12GetValidatorEv @932
    _ZN12wxWindowBase12NewControlIdEv @933
    _ZN12wxWindowBase12SetSizeHintsEiiiiii @934
    _ZN12wxWindowBase13SetClientSizeERK6wxSize @935
    _ZN12wxWindowBase14SetTransparentEh @936
    _ZN12wxWindowBase14SetVirtualSizeEii @937
    _ZN12wxWindowBase15GetUpdateRegionEv @938
    _ZN12wxWindowBase15SetThemeEnabledEb @939
    _ZN12wxWindowBase17CanSetTransparentEv @940
    _ZN12wxWindowBase18SetBackgroundStyleE17wxBackgroundStyle @941
    _ZN12wxWindowBase18SetInitialBestSizeERK6wxSize @942
    _ZN12wxWindowBase19SetAcceleratorTableERK18wxAcceleratorTable @943
    _ZN12wxWindowBase21ConvertDialogToPixelsERK6wxSize @944
    _ZN12wxWindowBase21ConvertPixelsToDialogERK6wxSize @945
    _ZN12wxWindowBase24HasTransparentBackgroundEv @946
    _ZN12wxWindowBase31GetMainWindowOfCompositeControlEv @947
    _ZN12wxWindowBase4HideEv @948
    _ZN12wxWindowBase4MoveERK7wxPointi @949
    _ZN12wxWindowBase4MoveEiii @950
    _ZN12wxWindowBase5SetIdEi @951
    _ZN12wxWindowBase6CenterEi @952
    _ZN12wxWindowBase6CentreEi @953
    _ZN12wxWindowBase7DisableEv @954
    _ZN12wxWindowBase7SetNameERK8wxString @955
    _ZN12wxWindowBase7SetSizeERK6wxRecti @956
    _ZN12wxWindowBase7SetSizeERK6wxSize @957
    _ZN12wxWindowBase7SetSizeEii @958
    _ZN12wxWindowBase7SetSizeEiiiii @959
    _ZN12wxWindowBase9PopupMenuEP6wxMenuRK7wxPoint @960
    _ZN12wxWindowBase9PrepareDCER4wxDC @961
    _ZN12wxWindowBase9SetParentEPS_ @962
    _ZN12wxWindowList10CreateNodeEP10wxNodeBaseS1_PvRK9wxListKey @963
    _ZN12wxWindowList3endEv @964
    _ZN12wxWindowList5beginEv @965
    _ZN12wxWindowList8iteratorC1EP16wxWindowListNodeS2_ @966
    _ZN12wxWindowListC1ERKS_ @967
    _ZN12wxWindowListD0Ev @968
    _ZN12wxWindowListD1Ev @969
    _ZN12wxsCodeMarks18ValidateIdentifierE13wxsCodingLangRK8wxString @970
    _ZN12wxsCodeMarks2IdERK8wxString @971
    _ZN12wxsCodeMarks3BegE13wxsCodingLangRK8wxString @972
    _ZN12wxsCodeMarks3BegE13wxsCodingLangRK8wxStringS3_ @973
    _ZN12wxsCodeMarks3EndE13wxsCodingLang @974
    _ZN12wxsCodeMarks4NameE13wxsCodingLang @975
    _ZN12wxsCodeMarks6StringE13wxsCodingLangRK8wxString @976
    _ZN12wxsCodeMarks7UnknownERK8wxString13wxsCodingLang @977
    _ZN12wxsCodeMarks8WxStringE13wxsCodingLangRK8wxStringb @978
    _ZN12wxsCodeMarks9IdFromExtERK8wxString @979
    _ZN12wxsContainer12OnAddItemQPPEP9wxsAdvQPP @980
    _ZN12wxsContainer13OnCanAddChildEP7wxsItemb @981
    _ZN12wxsContainer15AddChildrenCodeEv @982
    _ZN12wxsContainer17OnAddContainerQPPEP9wxsAdvQPP @983
    _ZN12wxsContainer18AddChildrenPreviewEP8wxWindowl @984
    _ZN12wxsContainer20OnEnumItemPropertiesEl @985
    _ZN12wxsContainerC1EP14wxsItemResDataPK11wxsItemInfoPK12wxsEventDescPK11wxsStyleSetl @986
    _ZN12wxsContainerC2EP14wxsItemResDataPK11wxsItemInfoPK12wxsEventDescPK11wxsStyleSetl @987
    _ZN12wxsContainerD0Ev @988
    _ZN12wxsContainerD1Ev @989
    _ZN12wxsContainerD2Ev @990
    _ZN12wxsCorrector10AfterPasteEP7wxsItem @991
    _ZN12wxsCorrector10ClearCacheEv @992
    _ZN12wxsCorrector10FixVarNameER8wxString @993
    _ZN12wxsCorrector11AfterChangeEP7wxsItem @994
    _ZN12wxsCorrector11BeforePasteEP7wxsItem @995
    _ZN12wxsCorrector11GlobalCheckEv @996
    _ZN12wxsCorrector11RebuildSetsEv @997
    _ZN12wxsCorrector11wxStringSet13Insert_ResultC1ERKNS_38wxStringSet_wxImplementation_HashTable8iteratorERKb @998
    _ZN12wxsCorrector11wxStringSet4findERK8wxString @999
    _ZN12wxsCorrector11wxStringSet5eraseERK8wxString @1000
    _ZN12wxsCorrector11wxStringSet6insertERK8wxString @1001
    _ZN12wxsCorrector11wxStringSetC1Ej12wxStringHash13wxStringEqual @1002
    _ZN12wxsCorrector11wxStringSetD1Ev @1003
    _ZN12wxsCorrector12SetNewIdNameEP7wxsItem @1004
    _ZN12wxsCorrector13SetNewVarNameEP7wxsItem @1005
    _ZN12wxsCorrector14BeforePasteReqEP7wxsItem @1006
    _ZN12wxsCorrector14RebuildSetsReqEP7wxsItemS1_ @1007
    _ZN12wxsCorrector19IsWxWidgetsIdPrefixERK8wxString @1008
    _ZN12wxsCorrector22FixAfterLoadCheckNamesEP7wxsItem @1009
    _ZN12wxsCorrector34wxStringSet_wxImplementation_KeyExC1Ev @1010
    _ZN12wxsCorrector38wxStringSet_wxImplementation_HashTable10CreateNodeERK8wxStringj @1011
    _ZN12wxsCorrector38wxStringSet_wxImplementation_HashTable10DeleteNodeEP21_wxHashTable_NodeBase @1012
    _ZN12wxsCorrector38wxStringSet_wxImplementation_HashTable11ResizeTableEj @1013
    _ZN12wxsCorrector38wxStringSet_wxImplementation_HashTable15GetOrCreateNodeERK8wxStringRb @1014
    _ZN12wxsCorrector38wxStringSet_wxImplementation_HashTable16GetBucketForNodeEPS0_PNS0_4NodeE @1015
    _ZN12wxsCorrector38wxStringSet_wxImplementation_HashTable3endEv @1016
    _ZN12wxsCorrector38wxStringSet_wxImplementation_HashTable4Node6m_nextEv @1017
    _ZN12wxsCorrector38wxStringSet_wxImplementation_HashTable4NodeC1ERK8wxString @1018
    _ZN12wxsCorrector38wxStringSet_wxImplementation_HashTable4NodeD1Ev @1019
    _ZN12wxsCorrector38wxStringSet_wxImplementation_HashTable5clearEv @1020
    _ZN12wxsCorrector38wxStringSet_wxImplementation_HashTable5eraseERK8wxString @1021
    _ZN12wxsCorrector38wxStringSet_wxImplementation_HashTable8IteratorC2EPNS0_4NodeEPKS0_ @1022
    _ZN12wxsCorrector38wxStringSet_wxImplementation_HashTable8iteratorC1EPNS0_4NodeEPS0_ @1023
    _ZN12wxsCorrector38wxStringSet_wxImplementation_HashTableC2EjRK12wxStringHashRK13wxStringEqualRKNS_34wxStringSet_wxImplementation_KeyExE @1024
    _ZN12wxsCorrector38wxStringSet_wxImplementation_HashTableD2Ev @1025
    _ZN12wxsCorrector9FillEmptyEP7wxsItem @1026
    _ZN12wxsCorrector9FixIdNameER8wxString @1027
    _ZN12wxsCorrectorC1EP14wxsItemResData @1028
    _ZN12wxsCorrectorC2EP14wxsItemResData @1029
    _ZN12wxsCorrectorD1Ev @1030
    _ZN12wxsDialogRes19OnBuildExactPreviewEP8wxWindowP14wxsItemResData @1031
    _ZN12wxsDialogRes20OnGetAppBuildingCodeEv @1032
    _ZN12wxsDialogRes7ResTypeE @1033 DATA
    _ZN12wxsDialogResC1EP10wxsProject @1034
    _ZN12wxsDialogResC1ERK8wxStringP12TiXmlElement @1035
    _ZN12wxsDialogResD0Ev @1036
    _ZN12wxsDialogResD1Ev @1037
    _ZN12wxsDirDialog19OnBuildCreatingCodeEv @1038
    _ZN12wxsDirDialog20OnEnumToolPropertiesEl @1039
    _ZN12wxsDirDialogC1EP14wxsItemResData @1040
    _ZN12wxsDirDialogC2EP14wxsItemResData @1041
    _ZN12wxsDirDialogD0Ev @1042
    _ZN12wxsDirDialogD1Ev @1043
    _ZN12wxsEventDescD1Ev @1044
    _ZN12wxsGridPanel10DrawBorderEv @1045
    _ZN12wxsGridPanel11GetGridSizeEv @1046
    _ZN12wxsGridPanel12ms_classInfoE @1047 DATA
    _ZN12wxsGridPanel13sm_eventTableE @1048 DATA
    _ZN12wxsGridPanel17sm_eventHashTableE @1049 DATA
    _ZN12wxsGridPanel20sm_eventTableEntriesE @1050 DATA
    _ZN12wxsGridPanel7OnPaintER12wxPaintEvent @1051
    _ZN12wxsGridPanelC1EP8wxWindowiRK7wxPointRK6wxSizelRK8wxString @1052
    _ZN12wxsGridPanelC1Ev @1053
    _ZN12wxsGridPanelC2EP8wxWindowiRK7wxPointRK6wxSizelRK8wxString @1054
    _ZN12wxsGridPanelC2Ev @1055
    _ZN12wxsGridPanelD0Ev @1056
    _ZN12wxsGridPanelD1Ev @1057
    _ZN12wxsGridPanelD2Ev @1058
    _ZN12wxsGridSizer11OnIsPointerEv @1059
    _ZN12wxsGridSizer19OnBuildSizerPreviewEP8wxWindow @1060
    _ZN12wxsGridSizer21OnEnumSizerPropertiesEl @1061
    _ZN12wxsGridSizer24OnBuildSizerCreatingCodeEv @1062
    _ZN12wxsGridSizerC1EP14wxsItemResData @1063
    _ZN12wxsGridSizerC2EP14wxsItemResData @1064
    _ZN12wxsGridSizerD0Ev @1065
    _ZN12wxsGridSizerD1Ev @1066
    _ZN12wxsImageList10GetPreviewEi @1067
    _ZN12wxsImageList12GetImageListER11wxImageList @1068
    _ZN12wxsImageList12StoreXpmDataEv @1069
    _ZN12wxsImageList19OnBuildCreatingCodeEv @1070
    _ZN12wxsImageList20OnEnumToolPropertiesEl @1071
    _ZN12wxsImageList7DoBuildEv @1072
    _ZN12wxsImageList8GetCountEv @1073
    _ZN12wxsImageListC1EP14wxsItemResData @1074
    _ZN12wxsImageListC2EP14wxsItemResData @1075
    _ZN12wxsImageListD0Ev @1076
    _ZN12wxsImageListD1Ev @1077
    _ZN12wxsScrollBar14OnBuildPreviewEP8wxWindowl @1078
    _ZN12wxsScrollBar19OnBuildCreatingCodeEv @1079
    _ZN12wxsScrollBar22OnEnumWidgetPropertiesEl @1080
    _ZN12wxsScrollBarC1EP14wxsItemResData @1081
    _ZN12wxsScrollBarC2EP14wxsItemResData @1082
    _ZN12wxsScrollBarD0Ev @1083
    _ZN12wxsScrollBarD1Ev @1084
    _ZN12wxsStaticBox14OnBuildPreviewEP8wxWindowl @1085
    _ZN12wxsStaticBox19OnBuildCreatingCodeEv @1086
    _ZN12wxsStaticBox22OnEnumWidgetPropertiesEl @1087
    _ZN12wxsStaticBoxC1EP14wxsItemResData @1088
    _ZN12wxsStaticBoxC2EP14wxsItemResData @1089
    _ZN12wxsStaticBoxD0Ev @1090
    _ZN12wxsStaticBoxD1Ev @1091
    _ZN12wxsStatusBar10OnXmlWriteEP12TiXmlElementbb @1092
    _ZN12wxsStatusBar11OnIsPointerEv @1093
    _ZN12wxsStatusBar13OnCanAddChildEP7wxsItemb @1094
    _ZN12wxsStatusBar16OnCanAddToParentEP9wxsParentb @1095
    _ZN12wxsStatusBar16UpdateArraysSizeEi @1096
    _ZN12wxsStatusBar18OnCanAddToResourceEP14wxsItemResDatab @1097
    _ZN12wxsStatusBar19OnBuildCreatingCodeEv @1098
    _ZN12wxsStatusBar20OnAddExtraPropertiesEP22wxsPropertyGridManager @1099
    _ZN12wxsStatusBar20OnEnumToolPropertiesEl @1100
    _ZN12wxsStatusBar22OnExtraPropertyChangedEP22wxsPropertyGridManagerP12wxPGProperty @1101
    _ZN12wxsStatusBar8IdsArrayC1Ev @1102
    _ZN12wxsStatusBar8IdsArrayD1Ev @1103
    _ZN12wxsStatusBar9OnXmlReadEP12TiXmlElementbb @1104
    _ZN12wxsStatusBarC1EP14wxsItemResData @1105
    _ZN12wxsStatusBarC2EP14wxsItemResData @1106
    _ZN12wxsStatusBarD0Ev @1107
    _ZN12wxsStatusBarD1Ev @1108
    _ZN12wxsStopWatch11OnIsPointerEv @1109
    _ZN12wxsStopWatch19OnBuildCreatingCodeEv @1110
    _ZN12wxsStopWatch20OnEnumToolPropertiesEl @1111
    _ZN12wxsStopWatchC1EP14wxsItemResData @1112
    _ZN12wxsStopWatchC2EP14wxsItemResData @1113
    _ZN12wxsStopWatchD0Ev @1114
    _ZN12wxsStopWatchD1Ev @1115
    _ZN12wxsToolSpace11AreAnyToolsEv @1116
    _ZN12wxsToolSpace12OnMouseClickER12wxMouseEvent @1117
    _ZN12wxsToolSpace12OnMouseRightER12wxMouseEvent @1118
    _ZN12wxsToolSpace13OnMouseDClickER12wxMouseEvent @1119
    _ZN12wxsToolSpace13sm_eventTableE @1120 DATA
    _ZN12wxsToolSpace16RefreshSelectionEv @1121
    _ZN12wxsToolSpace17sm_eventHashTableE @1122 DATA
    _ZN12wxsToolSpace19AfterPreviewChangedEv @1123
    _ZN12wxsToolSpace20BeforePreviewChangedEv @1124
    _ZN12wxsToolSpace20sm_eventTableEntriesE @1125 DATA
    _ZN12wxsToolSpace22RecalculateVirtualSizeEv @1126
    _ZN12wxsToolSpace7OnMouseER12wxMouseEvent @1127
    _ZN12wxsToolSpace7OnPaintER12wxPaintEvent @1128
    _ZN12wxsToolSpace9FindEntryERiS0_ @1129
    _ZN12wxsToolSpace9OnKeyDownER10wxKeyEvent @1130
    _ZN12wxsToolSpaceC1EP8wxWindowP14wxsItemResData @1131
    _ZN12wxsToolSpaceC2EP8wxWindowP14wxsItemResData @1132
    _ZN12wxsToolSpaceD0Ev @1133
    _ZN12wxsToolSpaceD1Ev @1134
    _ZN12wxsToolSpaceD2Ev @1135
    _ZN13ConfigManager13GetDataFolderEb @1136
    _ZN13EditorManager11GetNotebookEv @1137
    _ZN13EditorManager13IsBuiltinOpenERK8wxString @1138
    _ZN13EditorManager16GetBuiltinEditorERK8wxString @1139
    _ZN13SquirrelErrorC1EPKc @1140
    _ZN13TiXmlDocument11RootElementEv @1141
    _ZN13TiXmlDocumentD1Ev @1142
    _ZN13wxArrayString9push_backERK8wxString @1143
    _ZN13wxArrayStringC1Ev @1144
    _ZN13wxControlBaseC2Ev @1145
    _ZN13wxDirProperty12ms_classInfoE @1146 DATA
    _ZN13wxDirProperty13OnButtonClickEP14wxPropertyGridR8wxString @1147
    _ZN13wxDirProperty14DoSetAttributeERK8wxStringR9wxVariant @1148
    _ZN13wxDirProperty14wxCreateObjectEv @1149
    _ZN13wxDirPropertyC1ERK8wxStringS2_S2_ @1150
    _ZN13wxDirPropertyC2ERK8wxStringS2_S2_ @1151
    _ZN13wxDirPropertyD0Ev @1152
    _ZN13wxDirPropertyD1Ev @1153
    _ZN13wxDirPropertyD2Ev @1154
    _ZN13wxIntProperty12DoValidationEPK12wxPGPropertyRxP18wxPGValidationInfoi @1155
    _ZN13wxIntProperty12ms_classInfoE @1156 DATA
    _ZN13wxIntProperty14wxCreateObjectEv @1157
    _ZN13wxIntProperty17GetClassValidatorEv @1158
    _ZN13wxIntPropertyC1ERK8wxStringS2_RK16wxLongLongNative @1159
    _ZN13wxIntPropertyC1ERK8wxStringS2_l @1160
    _ZN13wxIntPropertyC2ERK8wxStringS2_RK16wxLongLongNative @1161
    _ZN13wxIntPropertyC2ERK8wxStringS2_l @1162
    _ZN13wxIntPropertyD0Ev @1163
    _ZN13wxIntPropertyD1Ev @1164
    _ZN13wxIntPropertyD2Ev @1165
    _ZN13wxIntegerHashC1Ev @1166
    _ZN13wxIntegerHashaSERKS_ @1167
    _ZN13wxListBoxBase6InsertERK8wxStringj @1168
    _ZN13wxListBoxBase6InsertERK8wxStringjP12wxClientData @1169
    _ZN13wxListBoxBaseC2Ev @1170
    _ZN13wxMapTreeAttrC1Ej13wxPointerHash14wxPointerEqual @1171
    _ZN13wxMapTreeAttrD1Ev @1172
    _ZN13wxMutexLockerC1ER7wxMutex @1173
    _ZN13wxMutexLockerD1Ev @1174
    _ZN13wxNotifyEventC2Eii @1175
    _ZN13wxNotifyEventD2Ev @1176
    _ZN13wxPGVIterator4NextEv @1177
    _ZN13wxPGVIterator5UnRefEv @1178
    _ZN13wxPGVIteratorC1EP17wxPGVIteratorBase @1179
    _ZN13wxPGVIteratorC1ERKS_ @1180
    _ZN13wxPGVIteratorC1Ev @1181
    _ZN13wxPGVIteratorC2EP17wxPGVIteratorBase @1182
    _ZN13wxPGVIteratorC2ERKS_ @1183
    _ZN13wxPGVIteratorC2Ev @1184
    _ZN13wxPGVIteratorD1Ev @1185
    _ZN13wxPGVIteratorD2Ev @1186
    _ZN13wxPGVIteratoraSERKS_ @1187
    _ZN13wxPointerHashC1Ev @1188
    _ZN13wxPointerHashaSERKS_ @1189
    _ZN13wxRadioButtonC1EP8wxWindowiRK8wxStringRK7wxPointRK6wxSizelRK11wxValidatorS4_ @1190
    _ZN13wxStringEqualC1Ev @1191
    _ZN13wxStringEqualaSERKS_ @1192
    _ZN13wxVariantData17GetValueClassInfoEv @1193
    _ZN13wxVariantData4ReadER8wxString @1194
    _ZN13wxVariantData6DecRefEv @1195
    _ZN13wxVariantData6IncRefEv @1196
    _ZN13wxVariantDataC2Ev @1197
    _ZN13wxVariantDataD2Ev @1198
    _ZN13wxsChoicebook12OnBuildExtraEv @1199
    _ZN13wxsChoicebook12OnMouseClickEP8wxWindowii @1200
    _ZN13wxsChoicebook13OnAddChildQPPEP7wxsItemP9wxsAdvQPP @1201
    _ZN13wxsChoicebook13OnCanAddChildEP7wxsItemb @1202
    _ZN13wxsChoicebook14OnBuildPreviewEP8wxWindowl @1203
    _ZN13wxsChoicebook19OnBuildCreatingCodeEv @1204
    _ZN13wxsChoicebook22UpdateCurrentSelectionEv @1205
    _ZN13wxsChoicebook23OnIsChildPreviewVisibleEP7wxsItem @1206
    _ZN13wxsChoicebook24OnXmlGetExtraObjectClassEv @1207
    _ZN13wxsChoicebook25OnEnumContainerPropertiesEl @1208
    _ZN13wxsChoicebook27OnEnsureChildPreviewVisibleEP7wxsItem @1209
    _ZN13wxsChoicebookC1EP14wxsItemResData @1210
    _ZN13wxsChoicebookC2EP14wxsItemResData @1211
    _ZN13wxsChoicebookD0Ev @1212
    _ZN13wxsChoicebookD1Ev @1213
    _ZN13wxsColourData9BuildCodeEP15wxsCoderContext @1214
    _ZN13wxsColourData9GetColourEv @1215
    _ZN13wxsColourDataC1ERK21wxColourPropertyValue @1216
    _ZN13wxsColourDataC1ERK8wxColour @1217
    _ZN13wxsColourDataC1Ej @1218
    _ZN13wxsColourDataD0Ev @1219
    _ZN13wxsColourDataD1Ev @1220
    _ZN13wxsColourDataaSERKS_ @1221
    _ZN13wxsFileDialog19OnBuildCreatingCodeEv @1222
    _ZN13wxsFileDialog20OnEnumToolPropertiesEl @1223
    _ZN13wxsFileDialogC1EP14wxsItemResData @1224
    _ZN13wxsFileDialogC2EP14wxsItemResData @1225
    _ZN13wxsFileDialogD0Ev @1226
    _ZN13wxsFileDialogD1Ev @1227
    _ZN13wxsFontDialog19OnBuildCreatingCodeEv @1228
    _ZN13wxsFontDialog20OnEnumToolPropertiesEl @1229
    _ZN13wxsFontDialogC1EP14wxsItemResData @1230
    _ZN13wxsFontDialogC2EP14wxsItemResData @1231
    _ZN13wxsFontDialogD0Ev @1232
    _ZN13wxsFontDialogD1Ev @1233
    _ZN13wxsGUIFactory12GUIItemHashT4findERK8wxString @1234
    _ZN13wxsGUIFactory12GUIItemHashTC1Ej12wxStringHash13wxStringEqual @1235
    _ZN13wxsGUIFactory12GUIItemHashTD1Ev @1236
    _ZN13wxsGUIFactory12GUIItemHashTixERK8wxString @1237
    _ZN13wxsGUIFactory34GUIItemHashT_wxImplementation_PairC1ERK8wxStringRKPKS_ @1238
    _ZN13wxsGUIFactory34GUIItemHashT_wxImplementation_PairC1ERKS0_ @1239
    _ZN13wxsGUIFactory34GUIItemHashT_wxImplementation_PairD1Ev @1240
    _ZN13wxsGUIFactory35GUIItemHashT_wxImplementation_KeyExC1Ev @1241
    _ZN13wxsGUIFactory39GUIItemHashT_wxImplementation_HashTable10CreateNodeERKNS_34GUIItemHashT_wxImplementation_PairEj @1242
    _ZN13wxsGUIFactory39GUIItemHashT_wxImplementation_HashTable10DeleteNodeEP21_wxHashTable_NodeBase @1243
    _ZN13wxsGUIFactory39GUIItemHashT_wxImplementation_HashTable11ResizeTableEj @1244
    _ZN13wxsGUIFactory39GUIItemHashT_wxImplementation_HashTable15GetOrCreateNodeERKNS_34GUIItemHashT_wxImplementation_PairERb @1245
    _ZN13wxsGUIFactory39GUIItemHashT_wxImplementation_HashTable16GetBucketForNodeEPS0_PNS0_4NodeE @1246
    _ZN13wxsGUIFactory39GUIItemHashT_wxImplementation_HashTable3endEv @1247
    _ZN13wxsGUIFactory39GUIItemHashT_wxImplementation_HashTable4Node6m_nextEv @1248
    _ZN13wxsGUIFactory39GUIItemHashT_wxImplementation_HashTable4NodeC1ERKNS_34GUIItemHashT_wxImplementation_PairE @1249
    _ZN13wxsGUIFactory39GUIItemHashT_wxImplementation_HashTable4NodeD1Ev @1250
    _ZN13wxsGUIFactory39GUIItemHashT_wxImplementation_HashTable5beginEv @1251
    _ZN13wxsGUIFactory39GUIItemHashT_wxImplementation_HashTable5clearEv @1252
    _ZN13wxsGUIFactory39GUIItemHashT_wxImplementation_HashTable8Iterator11GetNextNodeEv @1253
    _ZN13wxsGUIFactory39GUIItemHashT_wxImplementation_HashTable8Iterator8PlusPlusEv @1254
    _ZN13wxsGUIFactory39GUIItemHashT_wxImplementation_HashTable8IteratorC2EPNS0_4NodeEPKS0_ @1255
    _ZN13wxsGUIFactory39GUIItemHashT_wxImplementation_HashTable8iteratorC1EPNS0_4NodeEPS0_ @1256
    _ZN13wxsGUIFactory39GUIItemHashT_wxImplementation_HashTable8iteratorppEv @1257
    _ZN13wxsGUIFactory39GUIItemHashT_wxImplementation_HashTableC2EjRK12wxStringHashRK13wxStringEqualRKNS_35GUIItemHashT_wxImplementation_KeyExE @1258
    _ZN13wxsGUIFactory39GUIItemHashT_wxImplementation_HashTableD2Ev @1259
    _ZN13wxsGUIFactory5BuildERK8wxStringP10wxsProject @1260
    _ZN13wxsGUIFactory7GetHashEv @1261
    _ZN13wxsGUIFactory7GetNameEv @1262
    _ZN13wxsGUIFactory9SelectNewERK8wxStringP10wxsProject @1263
    _ZN13wxsGUIFactoryC1ERK8wxString @1264
    _ZN13wxsGUIFactoryC2ERK8wxString @1265
    _ZN13wxsGUIFactoryD0Ev @1266
    _ZN13wxsGUIFactoryD1Ev @1267
    _ZN13wxsGUIFactoryD2Ev @1268
    _ZN13wxsHtmlWindow14OnBuildPreviewEP8wxWindowl @1269
    _ZN13wxsHtmlWindow19OnBuildCreatingCodeEv @1270
    _ZN13wxsHtmlWindow22OnEnumWidgetPropertiesEl @1271
    _ZN13wxsHtmlWindowC1EP14wxsItemResData @1272
    _ZN13wxsHtmlWindowC2EP14wxsItemResData @1273
    _ZN13wxsHtmlWindowD0Ev @1274
    _ZN13wxsHtmlWindowD1Ev @1275
    _ZN13wxsItemEditor10GetItemResEv @1276
    _ZN13wxsItemEditor10OnInsAfterER14wxCommandEvent @1277
    _ZN13wxsItemEditor10OnInsPointER14wxCommandEvent @1278
    _ZN13wxsItemEditor11OnInsBeforeER14wxCommandEvent @1279
    _ZN13wxsItemEditor12BuildPaletteEP10wxNotebook @1280
    _ZN13wxsItemEditor12OnQuickPropsER14wxCommandEvent @1281
    _ZN13wxsItemEditor12RebuildIconsEv @1282
    _ZN13wxsItemEditor12ReloadImagesEv @1283
    _ZN13wxsItemEditor12m_AllEditorsE @1284 DATA
    _ZN13wxsItemEditor12m_InsIntoImgE @1285 DATA
    _ZN13wxsItemEditor12m_PreviewImgE @1286 DATA
    _ZN13wxsItemEditor13ConfigChangedEv @1287
    _ZN13wxsItemEditor13InsertRequestERK8wxString @1288
    _ZN13wxsItemEditor13m_InsAfterImgE @1289 DATA
    _ZN13wxsItemEditor13m_InsPointImgE @1290 DATA
    _ZN13wxsItemEditor13m_SelectedImgE @1291 DATA
    _ZN13wxsItemEditor13sm_eventTableE @1292 DATA
    _ZN13wxsItemEditor14GetWxsFileNameEv @1293
    _ZN13wxsItemEditor14GetXrcFileNameEv @1294
    _ZN13wxsItemEditor14RebuildPreviewEv @1295
    _ZN13wxsItemEditor14UpdateModifiedEv @1296
    _ZN13wxsItemEditor14m_ImagesLoadedE @1297 DATA
    _ZN13wxsItemEditor14m_InsBeforeImgE @1298 DATA
    _ZN13wxsItemEditor15RefreshContentsEv @1299
    _ZN13wxsItemEditor15UpdateSelectionEv @1300
    _ZN13wxsItemEditor16BuildInsTypeIconEP14wxBitmapButtonRK7wxImagei @1301
    _ZN13wxsItemEditor16GetReferenceItemERi @1302
    _ZN13wxsItemEditor16InitializeImagesEv @1303
    _ZN13wxsItemEditor16SetInsertionTypeEi @1304
    _ZN13wxsItemEditor17RebuildQuickPropsEP7wxsItem @1305
    _ZN13wxsItemEditor17sm_eventHashTableE @1306 DATA
    _ZN13wxsItemEditor19RebuildInsTypeIconsEv @1307
    _ZN13wxsItemEditor19m_QuickPropsImgOpenE @1308 DATA
    _ZN13wxsItemEditor20SetInsertionTypeMaskEi @1309
    _ZN13wxsItemEditor20m_QuickPropsImgCloseE @1310 DATA
    _ZN13wxsItemEditor20sm_eventTableEntriesE @1311 DATA
    _ZN13wxsItemEditor21InitializeVisualStuffEv @1312
    _ZN13wxsItemEditor21RebuildQuickPropsIconEv @1313
    _ZN13wxsItemEditor21ToggleQuickPropsPanelEb @1314
    _ZN13wxsItemEditor22InitializeResourceDataEv @1315
    _ZN13wxsItemEditor24StartInsertPointSequenceEPK11wxsItemInfo @1316
    _ZN13wxsItemEditor32WindowSet_wxImplementation_KeyExC1Ev @1317
    _ZN13wxsItemEditor36WindowSet_wxImplementation_HashTable10CreateNodeERKPS_j @1318
    _ZN13wxsItemEditor36WindowSet_wxImplementation_HashTable10DeleteNodeEP21_wxHashTable_NodeBase @1319
    _ZN13wxsItemEditor36WindowSet_wxImplementation_HashTable11ResizeTableEj @1320
    _ZN13wxsItemEditor36WindowSet_wxImplementation_HashTable15GetOrCreateNodeERKPS_Rb @1321
    _ZN13wxsItemEditor36WindowSet_wxImplementation_HashTable16GetBucketForNodeEPS0_PNS0_4NodeE @1322
    _ZN13wxsItemEditor36WindowSet_wxImplementation_HashTable3endEv @1323
    _ZN13wxsItemEditor36WindowSet_wxImplementation_HashTable4Node6m_nextEv @1324
    _ZN13wxsItemEditor36WindowSet_wxImplementation_HashTable4NodeC1ERKPS_ @1325
    _ZN13wxsItemEditor36WindowSet_wxImplementation_HashTable5beginEv @1326
    _ZN13wxsItemEditor36WindowSet_wxImplementation_HashTable5clearEv @1327
    _ZN13wxsItemEditor36WindowSet_wxImplementation_HashTable5eraseERKPKS_ @1328
    _ZN13wxsItemEditor36WindowSet_wxImplementation_HashTable8Iterator11GetNextNodeEv @1329
    _ZN13wxsItemEditor36WindowSet_wxImplementation_HashTable8Iterator8PlusPlusEv @1330
    _ZN13wxsItemEditor36WindowSet_wxImplementation_HashTable8IteratorC2EPNS0_4NodeEPKS0_ @1331
    _ZN13wxsItemEditor36WindowSet_wxImplementation_HashTable8iteratorC1EPNS0_4NodeEPS0_ @1332
    _ZN13wxsItemEditor36WindowSet_wxImplementation_HashTable8iteratorppEv @1333
    _ZN13wxsItemEditor36WindowSet_wxImplementation_HashTableC2EjRK13wxPointerHashRK14wxPointerEqualRKNS_32WindowSet_wxImplementation_KeyExE @1334
    _ZN13wxsItemEditor36WindowSet_wxImplementation_HashTableD2Ev @1335
    _ZN13wxsItemEditor3CutEv @1336
    _ZN13wxsItemEditor4CopyEv @1337
    _ZN13wxsItemEditor4RedoEv @1338
    _ZN13wxsItemEditor4SaveEv @1339
    _ZN13wxsItemEditor4UndoEv @1340
    _ZN13wxsItemEditor5PasteEv @1341
    _ZN13wxsItemEditor7OnPopupER14wxCommandEvent @1342
    _ZN13wxsItemEditor8OnButtonER14wxCommandEvent @1343
    _ZN13wxsItemEditor8OnDeleteER14wxCommandEvent @1344
    _ZN13wxsItemEditor8m_DelImgE @1345 DATA
    _ZN13wxsItemEditor9OnInsIntoER14wxCommandEvent @1346
    _ZN13wxsItemEditor9OnKeyDownER10wxKeyEvent @1347
    _ZN13wxsItemEditor9OnPreviewER14wxCommandEvent @1348
    _ZN13wxsItemEditor9ShowPopupEP7wxsItemP6wxMenu @1349
    _ZN13wxsItemEditor9WindowSet13Insert_ResultC1ERKNS_36WindowSet_wxImplementation_HashTable8iteratorERKb @1350
    _ZN13wxsItemEditor9WindowSet5eraseERKPS_ @1351
    _ZN13wxsItemEditor9WindowSet6insertERKPS_ @1352
    _ZN13wxsItemEditor9WindowSetC1Ej13wxPointerHash14wxPointerEqual @1353
    _ZN13wxsItemEditor9WindowSetD1Ev @1354
    _ZN13wxsItemEditorC1EP8wxWindowP10wxsItemRes @1355
    _ZN13wxsItemEditorC2EP8wxWindowP10wxsItemRes @1356
    _ZN13wxsItemEditorD0Ev @1357
    _ZN13wxsItemEditorD1Ev @1358
    _ZN13wxsItemEditorD2Ev @1359
    _ZN13wxsMenuEditor10ID_BUTTON1E @1360 DATA
    _ZN13wxsMenuEditor10ID_BUTTON2E @1361 DATA
    _ZN13wxsMenuEditor10ID_BUTTON3E @1362 DATA
    _ZN13wxsMenuEditor10ID_BUTTON4E @1363 DATA
    _ZN13wxsMenuEditor10ID_BUTTON5E @1364 DATA
    _ZN13wxsMenuEditor10ID_BUTTON6E @1365 DATA
    _ZN13wxsMenuEditor10SelectItemEPNS_8MenuItemE @1366
    _ZN13wxsMenuEditor11CorrectTypeEPNS_8MenuItemERbS2_S2_S2_S2_S2_ @1367
    _ZN13wxsMenuEditor11GetPreviousEPNS_8MenuItemE @1368
    _ZN13wxsMenuEditor12ApplyChangesEv @1369
    _ZN13wxsMenuEditor12ID_CHECKBOX1E @1370 DATA
    _ZN13wxsMenuEditor12ID_CHECKBOX2E @1371 DATA
    _ZN13wxsMenuEditor12ID_TEXTCTRL1E @1372 DATA
    _ZN13wxsMenuEditor12ID_TEXTCTRL2E @1373 DATA
    _ZN13wxsMenuEditor12ID_TEXTCTRL3E @1374 DATA
    _ZN13wxsMenuEditor12ID_TEXTCTRL4E @1375 DATA
    _ZN13wxsMenuEditor12ID_TREECTRL1E @1376 DATA
    _ZN13wxsMenuEditor13CreateContentEP8wxWindow @1377
    _ZN13wxsMenuEditor13OnTypeChangedER14wxCommandEvent @1378
    _ZN13wxsMenuEditor13StoreDataCopyEv @1379
    _ZN13wxsMenuEditor14CreateDataCopyEv @1380
    _ZN13wxsMenuEditor14DeleteDataCopyEv @1381
    _ZN13wxsMenuEditor14ID_STATICLINE1E @1382 DATA
    _ZN13wxsMenuEditor14ID_STATICLINE2E @1383 DATA
    _ZN13wxsMenuEditor14ID_STATICTEXT1E @1384 DATA
    _ZN13wxsMenuEditor14ID_STATICTEXT2E @1385 DATA
    _ZN13wxsMenuEditor14ID_STATICTEXT3E @1386 DATA
    _ZN13wxsMenuEditor14ID_STATICTEXT4E @1387 DATA
    _ZN13wxsMenuEditor14ID_STATICTEXT5E @1388 DATA
    _ZN13wxsMenuEditor14ID_STATICTEXT6E @1389 DATA
    _ZN13wxsMenuEditor14MenuItemHolderC1EPNS_8MenuItemE @1390
    _ZN13wxsMenuEditor14MenuItemHolderD0Ev @1391
    _ZN13wxsMenuEditor14MenuItemHolderD1Ev @1392
    _ZN13wxsMenuEditor14OnLabelChangedER14wxCommandEvent @1393
    _ZN13wxsMenuEditor15GetItemTreeNameEPNS_8MenuItemE @1394
    _ZN13wxsMenuEditor15ID_RADIOBUTTON1E @1395 DATA
    _ZN13wxsMenuEditor15ID_RADIOBUTTON2E @1396 DATA
    _ZN13wxsMenuEditor15ID_RADIOBUTTON3E @1397 DATA
    _ZN13wxsMenuEditor15ID_RADIOBUTTON4E @1398 DATA
    _ZN13wxsMenuEditor15ID_RADIOBUTTON5E @1399 DATA
    _ZN13wxsMenuEditor15OnButtonUpClickER14wxCommandEvent @1400
    _ZN13wxsMenuEditor16CheckConsistencyEv @1401
    _ZN13wxsMenuEditor16OnButtonDelClickER14wxCommandEvent @1402
    _ZN13wxsMenuEditor16OnButtonNewClickER14wxCommandEvent @1403
    _ZN13wxsMenuEditor16StoreDataCopyReqEP9wxsParentPNS_8MenuItemE @1404
    _ZN13wxsMenuEditor17CreateDataCopyReqEP10wxsMenuBarPNS_8MenuItemE @1405
    _ZN13wxsMenuEditor17CreateDataCopyReqEP11wxsMenuItemPNS_8MenuItemE @1406
    _ZN13wxsMenuEditor17CreateDataCopyReqEP7wxsMenuPNS_8MenuItemE @1407
    _ZN13wxsMenuEditor17DeleteDataCopyReqEPNS_8MenuItemE @1408
    _ZN13wxsMenuEditor17OnButtonDownClickER14wxCommandEvent @1409
    _ZN13wxsMenuEditor17OnButtonLeftClickER14wxCommandEvent @1410
    _ZN13wxsMenuEditor17UpdateMenuContentEv @1411
    _ZN13wxsMenuEditor18OnButtonRightClickER14wxCommandEvent @1412
    _ZN13wxsMenuEditor19CheckConsistencyReqEPNS_8MenuItemE @1413
    _ZN13wxsMenuEditor20UpdateMenuContentReqE12wxTreeItemIdPNS_8MenuItemE @1414
    _ZN13wxsMenuEditor25OnContentSelectionChangedER11wxTreeEvent @1415
    _ZN13wxsMenuEditor8MenuItemC1Ev @1416
    _ZN13wxsMenuEditor8MenuItemD1Ev @1417
    _ZN13wxsMenuEditorC1EP8wxWindowP10wxsMenuBar @1418
    _ZN13wxsMenuEditorC1EP8wxWindowP7wxsMenu @1419
    _ZN13wxsMenuEditorC2EP8wxWindowP10wxsMenuBar @1420
    _ZN13wxsMenuEditorC2EP8wxWindowP7wxsMenu @1421
    _ZN13wxsMenuEditorD0Ev @1422
    _ZN13wxsMenuEditorD1Ev @1423
    _ZN13wxsMenuEditorD2Ev @1424
    _ZN13wxsSashWindow13OnCanAddChildEP7wxsItemb @1425
    _ZN13wxsSashWindow14OnBuildPreviewEP8wxWindowl @1426
    _ZN13wxsSashWindow19OnBuildCreatingCodeEv @1427
    _ZN13wxsSashWindow25OnEnumContainerPropertiesEl @1428
    _ZN13wxsSashWindowC1EP14wxsItemResData @1429
    _ZN13wxsSashWindowC2EP14wxsItemResData @1430
    _ZN13wxsSashWindowD0Ev @1431
    _ZN13wxsSashWindowD1Ev @1432
    _ZN13wxsSearchCtrl14OnBuildPreviewEP8wxWindowl @1433
    _ZN13wxsSearchCtrl19OnBuildCreatingCodeEv @1434
    _ZN13wxsSearchCtrl22OnEnumWidgetPropertiesEl @1435
    _ZN13wxsSearchCtrlC1EP14wxsItemResData @1436
    _ZN13wxsSearchCtrlC2EP14wxsItemResData @1437
    _ZN13wxsSearchCtrlD0Ev @1438
    _ZN13wxsSearchCtrlD1Ev @1439
    _ZN13wxsSizerExtra13AllParamsCodeEP15wxsCoderContext @1440
    _ZN13wxsSizerExtra16OnEnumPropertiesEl @1441
    _ZN13wxsSizerExtraC1Ev @1442
    _ZN13wxsSizerExtraD0Ev @1443
    _ZN13wxsSizerExtraD1Ev @1444
    _ZN13wxsSpinButton14OnBuildPreviewEP8wxWindowl @1445
    _ZN13wxsSpinButton19OnBuildCreatingCodeEv @1446
    _ZN13wxsSpinButton22OnEnumWidgetPropertiesEl @1447
    _ZN13wxsSpinButtonC1EP14wxsItemResData @1448
    _ZN13wxsSpinButtonC2EP14wxsItemResData @1449
    _ZN13wxsSpinButtonD0Ev @1450
    _ZN13wxsSpinButtonD1Ev @1451
    _ZN13wxsStaticLine14OnBuildPreviewEP8wxWindowl @1452
    _ZN13wxsStaticLine19OnBuildCreatingCodeEv @1453
    _ZN13wxsStaticLine22OnEnumWidgetPropertiesEl @1454
    _ZN13wxsStaticLineC1EP14wxsItemResData @1455
    _ZN13wxsStaticLineC2EP14wxsItemResData @1456
    _ZN13wxsStaticLineD0Ev @1457
    _ZN13wxsStaticLineD1Ev @1458
    _ZN13wxsStaticText14OnBuildPreviewEP8wxWindowl @1459
    _ZN13wxsStaticText19OnBuildCreatingCodeEv @1460
    _ZN13wxsStaticText22OnEnumWidgetPropertiesEl @1461
    _ZN13wxsStaticTextC1EP14wxsItemResData @1462
    _ZN13wxsStaticTextC2EP14wxsItemResData @1463
    _ZN13wxsStaticTextD0Ev @1464
    _ZN13wxsStaticTextD1Ev @1465
    _ZN14ProjectManager11GetNotebookEv @1466
    _ZN14ProjectManager16GetActiveProjectEv @1467
    _ZN14cbEventFunctorI7wxSmith15CodeBlocksEventE4CallERS1_ @1468
    _ZN14cbEventFunctorI7wxSmith15CodeBlocksEventE7GetThisEv @1469
    _ZN14cbEventFunctorI7wxSmith15CodeBlocksEventEC1EPS0_MS0_FvRS1_E @1470
    _ZN14cbEventFunctorI7wxSmith15CodeBlocksEventED0Ev @1471
    _ZN14cbEventFunctorI7wxSmith15CodeBlocksEventED1Ev @1472
    _ZN14cbWizardPlugin10RemoveMenuEP9wxMenuBar @1473
    _ZN14cbWizardPlugin12BuildToolBarEP12wxAuiToolBar @1474
    _ZN14cbWizardPlugin15BuildModuleMenuE10ModuleTypeP6wxMenuPK12FileTreeData @1475
    _ZN14cbWizardPlugin16RemoveAuiToolBarEP12wxAuiToolBar @1476
    _ZN14cbWizardPlugin9BuildMenuEP9wxMenuBar @1477
    _ZN14cbWizardPluginD0Ev @1478
    _ZN14cbWizardPluginD1Ev @1479
    _ZN14wxArrayPtrVoid3AddEPvj @1480
    _ZN14wxArrayPtrVoid3endEv @1481
    _ZN14wxArrayPtrVoid4SortEPFiPPvS1_E @1482
    _ZN14wxArrayPtrVoid5beginEv @1483
    _ZN14wxArrayPtrVoid6InsertEPvjj @1484
    _ZN14wxArrayPtrVoid6RemoveEPv @1485
    _ZN14wxArrayPtrVoid6insertEPPvRKS0_ @1486
    _ZN14wxArrayPtrVoid8RemoveAtEjj @1487
    _ZN14wxArrayPtrVoid9push_backERKPv @1488
    _ZN14wxArrayPtrVoidC1Ev @1489
    _ZN14wxArrayPtrVoidD1Ev @1490
    _ZN14wxBaseArrayInt5beginEv @1491
    _ZN14wxBaseArrayInt5eraseEPi @1492
    _ZN14wxBaseArrayInt5eraseEPiS0_ @1493
    _ZN14wxBaseArrayInt9push_backERKi @1494
    _ZN14wxBitmapButtonC1EP8wxWindowiRK8wxBitmapRK7wxPointRK6wxSizelRK11wxValidatorRK8wxString @1495
    _ZN14wxBookCtrlBaseC2Ev @1496
    _ZN14wxBoolProperty12ms_classInfoE @1497 DATA
    _ZN14wxBoolProperty13GetChoiceInfoEP14wxPGChoiceInfo @1498
    _ZN14wxBoolProperty14DoSetAttributeERK8wxStringR9wxVariant @1499
    _ZN14wxBoolProperty14wxCreateObjectEv @1500
    _ZN14wxBoolPropertyC1ERK8wxStringS2_b @1501
    _ZN14wxBoolPropertyC2ERK8wxStringS2_b @1502
    _ZN14wxBoolPropertyD0Ev @1503
    _ZN14wxBoolPropertyD1Ev @1504
    _ZN14wxBoolPropertyD2Ev @1505
    _ZN14wxCheckBoxBase16DoSet3StateValueE15wxCheckBoxState @1506
    _ZN14wxCheckBoxBase16DoUpdateWindowUIER15wxUpdateUIEvent @1507
    _ZN14wxCheckBoxBase24HasTransparentBackgroundEv @1508
    _ZN14wxCheckBoxBaseC2Ev @1509
    _ZN14wxCheckBoxBaseD0Ev @1510
    _ZN14wxCheckBoxBaseD1Ev @1511
    _ZN14wxCheckBoxBaseD2Ev @1512
    _ZN14wxColourDialog13GetColourDataEv @1513
    _ZN14wxColourDialogD1Ev @1514
    _ZN14wxCommandEvent9SetStringERK8wxString @1515
    _ZN14wxCommandEventC2ERKS_ @1516
    _ZN14wxCommandEventD1Ev @1517
    _ZN14wxCommandEventD2Ev @1518
    _ZN14wxDateProperty10OnSetValueEv @1519
    _ZN14wxDateProperty12SetDateValueERK10wxDateTime @1520
    _ZN14wxDateProperty12ms_classInfoE @1521 DATA
    _ZN14wxDateProperty14DoSetAttributeERK8wxStringR9wxVariant @1522
    _ZN14wxDateProperty14wxCreateObjectEv @1523
    _ZN14wxDateProperty20ms_defaultDateFormatE @1524 DATA
    _ZN14wxDateProperty26DetermineDefaultDateFormatEb @1525
    _ZN14wxDateProperty9SetFormatERK8wxString @1526
    _ZN14wxDatePropertyC1ERK8wxStringS2_RK10wxDateTime @1527
    _ZN14wxDatePropertyC2ERK8wxStringS2_RK10wxDateTime @1528
    _ZN14wxDatePropertyD0Ev @1529
    _ZN14wxDatePropertyD1Ev @1530
    _ZN14wxDatePropertyD2Ev @1531
    _ZN14wxDialogHelperC2EP8wxDialog @1532
    _ZN14wxDialogHelperD2Ev @1533
    _ZN14wxEnumProperty12ms_classInfoE @1534 DATA
    _ZN14wxEnumProperty13GetChoiceInfoEP14wxPGChoiceInfo @1535
    _ZN14wxEnumProperty14wxCreateObjectEv @1536
    _ZN14wxEnumPropertyC1ERK8wxStringS2_PPKwPKlP11wxPGChoicesi @1537
    _ZN14wxEnumPropertyC1ERK8wxStringS2_PPKwPKli @1538
    _ZN14wxEnumPropertyC1ERK8wxStringS2_R11wxPGChoicesi @1539
    _ZN14wxEnumPropertyC1ERK8wxStringS2_RK13wxArrayStringRK10wxArrayInti @1540
    _ZN14wxEnumPropertyC2ERK8wxStringS2_PPKwPKlP11wxPGChoicesi @1541
    _ZN14wxEnumPropertyC2ERK8wxStringS2_PPKwPKli @1542
    _ZN14wxEnumPropertyC2ERK8wxStringS2_R11wxPGChoicesi @1543
    _ZN14wxEnumPropertyC2ERK8wxStringS2_RK13wxArrayStringRK10wxArrayInti @1544
    _ZN14wxEnumPropertyD0Ev @1545
    _ZN14wxEnumPropertyD1Ev @1546
    _ZN14wxEnumPropertyD2Ev @1547
    _ZN14wxFileProperty10OnSetValueEv @1548
    _ZN14wxFileProperty12ms_classInfoE @1549 DATA
    _ZN14wxFileProperty14DoSetAttributeERK8wxStringR9wxVariant @1550
    _ZN14wxFileProperty14wxCreateObjectEv @1551
    _ZN14wxFileProperty17GetClassValidatorEv @1552
    _ZN14wxFilePropertyC1ERK8wxStringS2_S2_ @1553
    _ZN14wxFilePropertyC2ERK8wxStringS2_S2_ @1554
    _ZN14wxFilePropertyD0Ev @1555
    _ZN14wxFilePropertyD1Ev @1556
    _ZN14wxFilePropertyD2Ev @1557
    _ZN14wxFontProperty10OnSetValueEv @1558
    _ZN14wxFontProperty12ms_classInfoE @1559 DATA
    _ZN14wxFontProperty14wxCreateObjectEv @1560
    _ZN14wxFontProperty15RefreshChildrenEv @1561
    _ZN14wxFontProperty7OnEventEP14wxPropertyGridP8wxWindowR7wxEvent @1562
    _ZN14wxFontPropertyC1ERK8wxStringS2_RK6wxFont @1563
    _ZN14wxFontPropertyC2ERK8wxStringS2_RK6wxFont @1564
    _ZN14wxFontPropertyD0Ev @1565
    _ZN14wxFontPropertyD1Ev @1566
    _ZN14wxFontPropertyD2Ev @1567
    _ZN14wxIntegerEqualC1Ev @1568
    _ZN14wxIntegerEqualaSERKS_ @1569
    _ZN14wxMemoryDCBase12SelectObjectER8wxBitmap @1570
    _ZN14wxMemoryDCBase20SelectObjectAsSourceERK8wxBitmap @1571
    _ZN14wxMemoryDCBaseC2Ev @1572
    _ZN14wxMemoryDCBaseD0Ev @1573
    _ZN14wxMemoryDCBaseD1Ev @1574
    _ZN14wxMemoryDCBaseD2Ev @1575
    _ZN14wxMenuItemList10CreateNodeEP10wxNodeBaseS1_PvRK9wxListKey @1576
    _ZN14wxMenuItemListC1E9wxKeyType @1577
    _ZN14wxMenuItemListD0Ev @1578
    _ZN14wxMenuItemListD1Ev @1579
    _ZN14wxPGHashMapI2I13Insert_ResultC1ERKN41wxPGHashMapI2I_wxImplementation_HashTable8iteratorERKb @1580
    _ZN14wxPGHashMapI2I13Insert_ResultC2ERKN41wxPGHashMapI2I_wxImplementation_HashTable8iteratorERKb @1581
    _ZN14wxPGHashMapI2I4findERKi @1582
    _ZN14wxPGHashMapI2I5countERKi @1583
    _ZN14wxPGHashMapI2I5eraseERKN41wxPGHashMapI2I_wxImplementation_HashTable14const_iteratorE @1584
    _ZN14wxPGHashMapI2I5eraseERKN41wxPGHashMapI2I_wxImplementation_HashTable8iteratorE @1585
    _ZN14wxPGHashMapI2I5eraseERKi @1586
    _ZN14wxPGHashMapI2I6insertERK36wxPGHashMapI2I_wxImplementation_Pair @1587
    _ZN14wxPGHashMapI2IC1Ej13wxIntegerHash14wxIntegerEqual @1588
    _ZN14wxPGHashMapI2IC2Ej13wxIntegerHash14wxIntegerEqual @1589
    _ZN14wxPGHashMapI2ID1Ev @1590
    _ZN14wxPGHashMapI2IixERKi @1591
    _ZN14wxPGHashMapP2P13Insert_ResultC1ERKN41wxPGHashMapP2P_wxImplementation_HashTable8iteratorERKb @1592
    _ZN14wxPGHashMapP2P13Insert_ResultC2ERKN41wxPGHashMapP2P_wxImplementation_HashTable8iteratorERKb @1593
    _ZN14wxPGHashMapP2P4findERKPKv @1594
    _ZN14wxPGHashMapP2P5countERKPKv @1595
    _ZN14wxPGHashMapP2P5eraseERKN41wxPGHashMapP2P_wxImplementation_HashTable14const_iteratorE @1596
    _ZN14wxPGHashMapP2P5eraseERKN41wxPGHashMapP2P_wxImplementation_HashTable8iteratorE @1597
    _ZN14wxPGHashMapP2P5eraseERKPv @1598
    _ZN14wxPGHashMapP2P6insertERK36wxPGHashMapP2P_wxImplementation_Pair @1599
    _ZN14wxPGHashMapP2PC1Ej13wxPointerHash14wxPointerEqual @1600
    _ZN14wxPGHashMapP2PC2Ej13wxPointerHash14wxPointerEqual @1601
    _ZN14wxPGHashMapP2PixERKPKv @1602
    _ZN14wxPGHashMapS2P13Insert_ResultC1ERKN41wxPGHashMapS2P_wxImplementation_HashTable8iteratorERKb @1603
    _ZN14wxPGHashMapS2P13Insert_ResultC2ERKN41wxPGHashMapS2P_wxImplementation_HashTable8iteratorERKb @1604
    _ZN14wxPGHashMapS2P4findERK8wxString @1605
    _ZN14wxPGHashMapS2P5countERK8wxString @1606
    _ZN14wxPGHashMapS2P5eraseERK8wxString @1607
    _ZN14wxPGHashMapS2P5eraseERKN41wxPGHashMapS2P_wxImplementation_HashTable14const_iteratorE @1608
    _ZN14wxPGHashMapS2P5eraseERKN41wxPGHashMapS2P_wxImplementation_HashTable8iteratorE @1609
    _ZN14wxPGHashMapS2P6insertERK36wxPGHashMapS2P_wxImplementation_Pair @1610
    _ZN14wxPGHashMapS2PC1Ej12wxStringHash13wxStringEqual @1611
    _ZN14wxPGHashMapS2PC2Ej12wxStringHash13wxStringEqual @1612
    _ZN14wxPGHashMapS2PD1Ev @1613
    _ZN14wxPGHashMapS2PixERK8wxString @1614
    _ZN14wxPGPropArgClsC1EPK12wxPGProperty @1615
    _ZN14wxPGPropArgClsC1EPKw @1616
    _ZN14wxPGPropArgClsC1ERK8wxString @1617
    _ZN14wxPGPropArgClsC1ERKS_ @1618
    _ZN14wxPGPropArgClsC1Ei @1619
    _ZN14wxPGPropArgClsC1Ev @1620
    _ZN14wxPGPropArgClsC2EPK12wxPGProperty @1621
    _ZN14wxPGPropArgClsC2EPKw @1622
    _ZN14wxPGPropArgClsC2ERK8wxString @1623
    _ZN14wxPGPropArgClsC2ERKS_ @1624
    _ZN14wxPGPropArgClsC2Ei @1625
    _ZN14wxPGPropArgClsC2Ev @1626
    _ZN14wxPGSpinButton12OnMouseEventER12wxMouseEvent @1627
    _ZN14wxPGSpinButton18OnMouseCaptureLostER23wxMouseCaptureLostEvent @1628
    _ZN14wxPGSpinButton7CaptureEv @1629
    _ZN14wxPGSpinButton7ReleaseEv @1630
    _ZN14wxPGSpinButtonC1Ev @1631
    _ZN14wxPGSpinButtonD0Ev @1632
    _ZN14wxPGSpinButtonD1Ev @1633
    _ZN14wxPGWindowListC1EP8wxWindow @1634
    _ZN14wxPGWindowListC1EP8wxWindowS1_ @1635
    _ZN14wxPointerEqualC1Ev @1636
    _ZN14wxPointerEqualaSERKS_ @1637
    _ZN14wxPropertyGrid10DoCollapseEP12wxPGPropertyb @1638
    _ZN14wxPropertyGrid10FitColumnsEv @1639
    _ZN14wxPropertyGrid10OnTLPCloseER12wxCloseEvent @1640
    _ZN14wxPropertyGrid10SetToolTipERK8wxString @1641
    _ZN14wxPropertyGrid11CacheColourERK8wxColour @1642
    _ZN14wxPropertyGrid11FreeEditorsEv @1643
    _ZN14wxPropertyGrid11GetLastItemEi @1644
    _ZN14wxPropertyGrid11OnMouseMoveER12wxMouseEvent @1645
    _ZN14wxPropertyGrid11SwitchStateEP19wxPropertyGridState @1646
    _ZN14wxPropertyGrid12EndLabelEditEb @1647
    _ZN14wxPropertyGrid12GetLastChildERK14wxPGPropArgCls @1648
    _ZN14wxPropertyGrid12GetStatusBarEv @1649
    _ZN14wxPropertyGrid12OnChildKeyUpER10wxKeyEvent @1650
    _ZN14wxPropertyGrid12OnFocusEventER12wxFocusEvent @1651
    _ZN14wxPropertyGrid12OnMouseClickER12wxMouseEvent @1652
    _ZN14wxPropertyGrid12OnMouseEntryER12wxMouseEvent @1653
    _ZN14wxPropertyGrid12ProcessEventER7wxEvent @1654
    _ZN14wxPropertyGrid12ResetColoursEv @1655
    _ZN14wxPropertyGrid12SetSelectionERK17wxArrayPGProperty @1656
    _ZN14wxPropertyGrid12ms_classInfoE @1657 DATA
    _ZN14wxPropertyGrid13EnsureVisibleERK14wxPGPropArgCls @1658
    _ZN14wxPropertyGrid13HandleMouseUpEijR12wxMouseEvent @1659
    _ZN14wxPropertyGrid13OnMouseCommonER12wxMouseEventPiS2_ @1660
    _ZN14wxPropertyGrid13OnScrollEventER16wxScrollWinEvent @1661
    _ZN14wxPropertyGrid13OnTLPChangingEP8wxWindow @1662
    _ZN14wxPropertyGrid13RefreshEditorEv @1663
    _ZN14wxPropertyGrid13RegainColoursEv @1664
    _ZN14wxPropertyGrid13SetExtraStyleEl @1665
    _ZN14wxPropertyGrid13SetLineColourERK8wxColour @1666
    _ZN14wxPropertyGrid13UnfocusEditorEv @1667
    _ZN14wxPropertyGrid13sm_eventTableE @1668 DATA
    _ZN14wxPropertyGrid14AddToSelectionERK14wxPGPropArgCls @1669
    _ZN14wxPropertyGrid14BeginLabelEditEj @1670
    _ZN14wxPropertyGrid14CenterSplitterEb @1671
    _ZN14wxPropertyGrid14DoEndLabelEditEbi @1672
    _ZN14wxPropertyGrid14DoHidePropertyEP12wxPGPropertybi @1673
    _ZN14wxPropertyGrid14DoSetSelectionERK17wxArrayPGPropertyi @1674
    _ZN14wxPropertyGrid14DoubleToStringER8wxStringdibPS0_ @1675
    _ZN14wxPropertyGrid14EditorValidateEv @1676
    _ZN14wxPropertyGrid14GetCaptionFontEv @1677
    _ZN14wxPropertyGrid14GetLastVisibleEv @1678
    _ZN14wxPropertyGrid14GetPrevVisibleERK14wxPGPropArgCls @1679
    _ZN14wxPropertyGrid14HandleChildKeyER10wxKeyEvent @1680
    _ZN14wxPropertyGrid14HandleKeyEventER10wxKeyEvent @1681
    _ZN14wxPropertyGrid14OnChildKeyDownER10wxKeyEvent @1682
    _ZN14wxPropertyGrid14OnMouseUpChildER12wxMouseEvent @1683
    _ZN14wxPropertyGrid14SelectPropertyERK14wxPGPropArgClsb @1684
    _ZN14wxPropertyGrid14SetColumnCountEi @1685
    _ZN14wxPropertyGrid14wxCreateObjectEv @1686
    _ZN14wxPropertyGrid15ClearTargetPageEv @1687
    _ZN14wxPropertyGrid15CustomSetCursorEib @1688
    _ZN14wxPropertyGrid15DoSelectAndEditEP12wxPGPropertyjj @1689
    _ZN14wxPropertyGrid15GetFirstVisibleEv @1690
    _ZN14wxPropertyGrid15GetLastPropertyEv @1691
    _ZN14wxPropertyGrid15GetNextPropertyERK14wxPGPropArgCls @1692
    _ZN14wxPropertyGrid15GetPrevPropertyERK14wxPGPropArgCls @1693
    _ZN14wxPropertyGrid15GetPropertyByIdERK14wxPGPropArgCls @1694
    _ZN14wxPropertyGrid15HandleMouseMoveEijR12wxMouseEvent @1695
    _ZN14wxPropertyGrid15OnCaptureChangeER26wxMouseCaptureChangedEvent @1696
    _ZN14wxPropertyGrid15OnNavigationKeyER20wxNavigationKeyEvent @1697
    _ZN14wxPropertyGrid15RefreshPropertyEP12wxPGProperty @1698
    _ZN14wxPropertyGrid15SetInternalFlagEl @1699
    _ZN14wxPropertyGrid15SetMarginColourERK8wxColour @1700
    _ZN14wxPropertyGrid15SetPropertyNameERK14wxPGPropArgClsRK8wxString @1701
    _ZN14wxPropertyGrid15SetSortFunctionEPFiPS_P12wxPGPropertyS2_E @1702
    _ZN14wxPropertyGrid15SetSplitterLeftEb @1703
    _ZN14wxPropertyGrid15SetVirtualWidthEi @1704
    _ZN14wxPropertyGrid16AddActionTriggerEiii @1705
    _ZN14wxPropertyGrid16DestroyEditorWndEP8wxWindow @1706
    _ZN14wxPropertyGrid16DoAddToSelectionEP12wxPGPropertyi @1707
    _ZN14wxPropertyGrid16DoBeginLabelEditEji @1708
    _ZN14wxPropertyGrid16DoEditorValidateEv @1709
    _ZN14wxPropertyGrid16DoSelectPropertyEP12wxPGPropertyj @1710
    _ZN14wxPropertyGrid16EnableCategoriesEb @1711
    _ZN14wxPropertyGrid16GetChildrenCountEv @1712
    _ZN14wxPropertyGrid16GetFirstPropertyEv @1713
    _ZN14wxPropertyGrid16HandleMouseClickEijR12wxMouseEvent @1714
    _ZN14wxPropertyGrid16OnComboItemPaintEP22wxPGCustomComboControliR4wxDCR6wxRecti @1715
    _ZN14wxPropertyGrid16OnMouseMoveChildER12wxMouseEvent @1716
    _ZN14wxPropertyGrid16ResetColumnSizesEb @1717
    _ZN14wxPropertyGrid16SetFocusOnCanvasEv @1718
    _ZN14wxPropertyGrid17ClearInternalFlagEl @1719
    _ZN14wxPropertyGrid17DoPropertyChangedEP12wxPGPropertyj @1720
    _ZN14wxPropertyGrid17DoSetPropertyNameEP12wxPGPropertyRK8wxString @1721
    _ZN14wxPropertyGrid17FixPosForTextCtrlEP8wxWindowjRK7wxPoint @1722
    _ZN14wxPropertyGrid17GetValidationInfoEv @1723
    _ZN14wxPropertyGrid17HandleFocusChangeEP8wxWindow @1724
    _ZN14wxPropertyGrid17IsMainButtonEventERK7wxEvent @1725
    _ZN14wxPropertyGrid17OnChildFocusEventER17wxChildFocusEvent @1726
    _ZN14wxPropertyGrid17OnMouseClickChildER12wxMouseEvent @1727
    _ZN14wxPropertyGrid17OnMouseMoveBottomER12wxMouseEvent @1728
    _ZN14wxPropertyGrid17OnMouseRightClickER12wxMouseEvent @1729
    _ZN14wxPropertyGrid17PerformValidationEP12wxPGPropertyR9wxVariant @1730
    _ZN14wxPropertyGrid17SetButtonShortcutEibb @1731
    _ZN14wxPropertyGrid17SetCellTextColourERK8wxColour @1732
    _ZN14wxPropertyGrid17SetPropertyColourERK14wxPGPropArgClsRK8wxColour @1733
    _ZN14wxPropertyGrid17ShowPropertyErrorERK14wxPGPropArgClsRK8wxString @1734
    _ZN14wxPropertyGrid17sm_eventHashTableE @1735 DATA
    _ZN14wxPropertyGrid18AutoGetTranslationEb @1736
    _ZN14wxPropertyGrid18MakeColumnEditableEjb @1737
    _ZN14wxPropertyGrid18OnMouseChildCommonER12wxMouseEventPiS2_ @1738
    _ZN14wxPropertyGrid18OnMouseDoubleClickER12wxMouseEvent @1739
    _ZN14wxPropertyGrid18OnSysColourChangedER23wxSysColourChangedEvent @1740
    _ZN14wxPropertyGrid18SetCurrentCategoryERK14wxPGPropArgCls @1741
    _ZN14wxPropertyGrid18SetTextColourIndexEP12wxPGPropertyii @1742
    _ZN14wxPropertyGrid18SetVerticalSpacingEi @1743
    _ZN14wxPropertyGrid18SetWindowStyleFlagEl @1744
    _ZN14wxPropertyGrid18SetupEventHandlingEP8wxWindowi @1745
    _ZN14wxPropertyGrid18SetupTextCtrlValueE8wxString @1746
    _ZN14wxPropertyGrid18ValueChangeInEventE9wxVariant @1747
    _ZN14wxPropertyGrid19ArrayStringToStringER8wxStringRK13wxArrayStringwwi @1748
    _ZN14wxPropertyGrid19ChangePropertyValueERK14wxPGPropArgCls9wxVariant @1749
    _ZN14wxPropertyGrid19ClearActionTriggersEi @1750
    _ZN14wxPropertyGrid19ClearModifiedStatusERK14wxPGPropArgCls @1751
    _ZN14wxPropertyGrid19ClearModifiedStatusEv @1752
    _ZN14wxPropertyGrid19DoHidePropertyErrorEP12wxPGProperty @1753
    _ZN14wxPropertyGrid19DoShowPropertyErrorEP12wxPGPropertyRK8wxString @1754
    _ZN14wxPropertyGrid19DrawItemAndChildrenEP12wxPGProperty @1755
    _ZN14wxPropertyGrid19OnCustomEditorEventER14wxCommandEvent @1756
    _ZN14wxPropertyGrid19OnValidationFailureEP12wxPGPropertyR9wxVariant @1757
    _ZN14wxPropertyGrid19RegisterEditorClassEP10wxPGEditorRK8wxStringb @1758
    _ZN14wxPropertyGrid19RemoveFromSelectionERK14wxPGPropArgCls @1759
    _ZN14wxPropertyGrid19SetEditorAppearanceERK8wxPGCell @1760
    _ZN14wxPropertyGrid19SetEmptySpaceColourERK8wxColour @1761
    _ZN14wxPropertyGrid19SetSplitterPositionEib @1762
    _ZN14wxPropertyGrid20ButtonTriggerKeyTestER10wxKeyEvent @1763
    _ZN14wxPropertyGrid20GenerateEditorButtonERK7wxPointRK6wxSize @1764
    _ZN14wxPropertyGrid20SetCaptionTextColourERK14wxPGPropArgClsRK8wxColour @1765
    _ZN14wxPropertyGrid20sm_eventTableEntriesE @1766 DATA
    _ZN14wxPropertyGrid21CreateEscapeSequencesER8wxStringS1_ @1767
    _ZN14wxPropertyGrid21DoOnValidationFailureEP12wxPGPropertyR9wxVariant @1768
    _ZN14wxPropertyGrid21DoRemoveFromSelectionEP12wxPGPropertyi @1769
    _ZN14wxPropertyGrid21ExpandEscapeSequencesER8wxStringS1_ @1770
    _ZN14wxPropertyGrid21HandleMouseRightClickEijR12wxMouseEvent @1771
    _ZN14wxPropertyGrid21OnLabelEditorKeyPressER10wxKeyEvent @1772
    _ZN14wxPropertyGrid21ResetEditorAppearanceEv @1773
    _ZN14wxPropertyGrid21SetCurControlBoldFontEv @1774
    _ZN14wxPropertyGrid21SetPropertyTextColourERK14wxPGPropArgClsRK8wxColouri @1775
    _ZN14wxPropertyGrid22DoSetSplitterPosition_Eibib @1776
    _ZN14wxPropertyGrid22GenerateEditorTextCtrlERK7wxPointRK6wxSizeRK8wxStringP8wxWindowiij @1777
    _ZN14wxPropertyGrid22GetPrevSiblingPropertyERK14wxPGPropArgCls @1778
    _ZN14wxPropertyGrid22HandleMouseDoubleClickEijR12wxMouseEvent @1779
    _ZN14wxPropertyGrid22ImprovedClientToScreenEPiS0_ @1780
    _ZN14wxPropertyGrid22OnMouseRightClickChildER12wxMouseEvent @1781
    _ZN14wxPropertyGrid22PrepareAfterItemsAddedEv @1782
    _ZN14wxPropertyGrid22RecalculateVirtualSizeEi @1783
    _ZN14wxPropertyGrid22RegisterDefaultEditorsEv @1784
    _ZN14wxPropertyGrid22SendNavigationKeyEventEi @1785
    _ZN14wxPropertyGrid22SetSelectionBackgroundERK8wxColour @1786
    _ZN14wxPropertyGrid22SetSelectionForegroundERK8wxColour @1787
    _ZN14wxPropertyGrid23CommitChangesFromEditorEj @1788
    _ZN14wxPropertyGrid23CorrectEditorWidgetPosYEv @1789
    _ZN14wxPropertyGrid23DrawItemAndValueRelatedEP12wxPGProperty @1790
    _ZN14wxPropertyGrid23EditorsValueWasModifiedEv @1791
    _ZN14wxPropertyGrid23HandleCustomEditorEventER14wxCommandEvent @1792
    _ZN14wxPropertyGrid23OnLabelEditorEnterPressER14wxCommandEvent @1793
    _ZN14wxPropertyGrid23SetCellBackgroundColourERK8wxColour @1794
    _ZN14wxPropertyGrid23SetPropertyAttributeAllERK8wxString9wxVariant @1795
    _ZN14wxPropertyGrid24CorrectEditorWidgetSizeXEv @1796
    _ZN14wxPropertyGrid24OnValidationFailureResetEP12wxPGProperty @1797
    _ZN14wxPropertyGrid24SetBackgroundColourIndexEP12wxPGPropertyii @1798
    _ZN14wxPropertyGrid25AdjustPosForClipperWindowEP8wxWindowPiS2_ @1799
    _ZN14wxPropertyGrid25SetCellDisabledTextColourERK8wxColour @1800
    _ZN14wxPropertyGrid25SetUnspecifiedCommonValueEi @1801
    _ZN14wxPropertyGrid26DoOnValidationFailureResetEP12wxPGProperty @1802
    _ZN14wxPropertyGrid26EditorsValueWasNotModifiedEv @1803
    _ZN14wxPropertyGrid26SetCaptionBackgroundColourERK8wxColour @1804
    _ZN14wxPropertyGrid26SetCaptionForegroundColourERK8wxColour @1805
    _ZN14wxPropertyGrid26SetPropertyColourToDefaultERK14wxPGPropArgCls @1806
    _ZN14wxPropertyGrid27CalculateFontAndBitmapStuffEi @1807
    _ZN14wxPropertyGrid27GetGoodEditorDialogPositionEP12wxPGPropertyRK6wxSize @1808
    _ZN14wxPropertyGrid27SetPropertyBackgroundColourERK14wxPGPropArgClsRK8wxColouri @1809
    _ZN14wxPropertyGrid28AddToSelectionFromInputEventEP12wxPGPropertyjP12wxMouseEventi @1810
    _ZN14wxPropertyGrid29SetUnspecifiedValueAppearanceERK8wxPGCell @1811
    _ZN14wxPropertyGrid31GenerateEditorTextCtrlAndButtonERK7wxPointRK6wxSizePP8wxWindowiP12wxPGProperty @1812
    _ZN14wxPropertyGrid4SortERK14wxPGPropArgCls @1813
    _ZN14wxPropertyGrid4SortEv @1814
    _ZN14wxPropertyGrid4ThawEv @1815
    _ZN14wxPropertyGrid5ClearEv @1816
    _ZN14wxPropertyGrid5Init1Ev @1817
    _ZN14wxPropertyGrid5Init2Ev @1818
    _ZN14wxPropertyGrid5OnKeyER10wxKeyEvent @1819
    _ZN14wxPropertyGrid6CreateEP8wxWindowiRK7wxPointRK6wxSizelRK8wxString @1820
    _ZN14wxPropertyGrid6FreezeEv @1821
    _ZN14wxPropertyGrid6OnIdleER11wxIdleEvent @1822
    _ZN14wxPropertyGrid7DestroyEv @1823
    _ZN14wxPropertyGrid7GetGridEv @1824
    _ZN14wxPropertyGrid7OnKeyUpER10wxKeyEvent @1825
    _ZN14wxPropertyGrid7OnPaintER12wxPaintEvent @1826
    _ZN14wxPropertyGrid7RefreshEbPK6wxRect @1827
    _ZN14wxPropertyGrid7SetFontERK6wxFont @1828
    _ZN14wxPropertyGrid8CanCloseEv @1829
    _ZN14wxPropertyGrid8DoExpandEP12wxPGPropertyb @1830
    _ZN14wxPropertyGrid8DrawItemEP12wxPGProperty @1831
    _ZN14wxPropertyGrid8OnResizeER11wxSizeEvent @1832
    _ZN14wxPropertyGrid8ReparentEP12wxWindowBase @1833
    _ZN14wxPropertyGrid9DecFrozenEv @1834
    _ZN14wxPropertyGrid9DrawItemsEPK12wxPGPropertyS2_ @1835
    _ZN14wxPropertyGrid9DrawItemsER4wxDCjjPK6wxRect @1836
    _ZN14wxPropertyGrid9IncFrozenEv @1837
    _ZN14wxPropertyGrid9OnMouseUpER12wxMouseEvent @1838
    _ZN14wxPropertyGrid9SendEventEiP12wxPGPropertyP9wxVariantjj @1839
    _ZN14wxPropertyGridC1EP8wxWindowiRK7wxPointRK6wxSizelRK8wxString @1840
    _ZN14wxPropertyGridC1Ev @1841
    _ZN14wxPropertyGridC2EP8wxWindowiRK7wxPointRK6wxSizelRK8wxString @1842
    _ZN14wxPropertyGridC2Ev @1843
    _ZN14wxPropertyGridD0Ev @1844
    _ZN14wxPropertyGridD1Ev @1845
    _ZN14wxPropertyGridD2Ev @1846
    _ZN14wxRadioBoxBaseC2Ev @1847
    _ZN14wxRichTextAttr11SetFontSizeEi @1848
    _ZN14wxRichTextAttr12SetAlignmentE19wxTextAttrAlignment @1849
    _ZN14wxRichTextAttr12SetFontStyleEi @1850
    _ZN14wxRichTextAttr13SetFontWeightEi @1851
    _ZN14wxRichTextAttr13SetTextColourERK8wxColour @1852
    _ZN14wxRichTextAttr14SetLineSpacingEi @1853
    _ZN14wxRichTextAttr14SetTextEffectsEi @1854
    _ZN14wxRichTextAttr15SetFontFaceNameERK8wxString @1855
    _ZN14wxRichTextAttr17SetFontUnderlinedEb @1856
    _ZN14wxRichTextAttr18SetTextEffectFlagsEi @1857
    _ZN14wxRichTextAttr19SetBackgroundColourERK8wxColour @1858
    _ZN14wxRichTextAttr8SetFlagsEl @1859
    _ZN14wxRichTextAttrC1Ev @1860
    _ZN14wxRichTextAttrD1Ev @1861
    _ZN14wxScrollHelper6OnDrawER4wxDC @1862
    _ZN14wxStaticBitmap4InitEv @1863
    _ZN14wxStaticBitmapC1EP8wxWindowiRK10wxGDIImageRK7wxPointRK6wxSizelRK8wxString @1864
    _ZN14wxTextCtrlBaseC2Ev @1865
    _ZN14wxTextCtrlBaseD2Ev @1866
    _ZN14wxToggleButtonC1EP8wxWindowiRK8wxStringRK7wxPointRK6wxSizelRK11wxValidatorS4_ @1867
    _ZN14wxTreeCtrlBase10AppendItemERK12wxTreeItemIdRK8wxStringiiP14wxTreeItemData @1868
    _ZN14wxTreeCtrlBase10InsertItemERK12wxTreeItemIdjRK8wxStringiiP14wxTreeItemData @1869
    _ZN14wxTreeCtrlBase14OnCompareItemsERK12wxTreeItemIdS2_ @1870
    _ZN14wxTreeCtrlBaseC2Ev @1871
    _ZN14wxTreeItemDataC2Ev @1872
    _ZN14wxTreeItemDataD0Ev @1873
    _ZN14wxTreeItemDataD1Ev @1874
    _ZN14wxTreeItemDataD2Ev @1875
    _ZN14wxUIntProperty12ms_classInfoE @1876 DATA
    _ZN14wxUIntProperty14DoSetAttributeERK8wxStringR9wxVariant @1877
    _ZN14wxUIntProperty14wxCreateObjectEv @1878
    _ZN14wxUIntProperty4InitEv @1879
    _ZN14wxUIntPropertyC1ERK8wxStringS2_RK17wxULongLongNative @1880
    _ZN14wxUIntPropertyC1ERK8wxStringS2_m @1881
    _ZN14wxUIntPropertyC2ERK8wxStringS2_RK17wxULongLongNative @1882
    _ZN14wxUIntPropertyC2ERK8wxStringS2_m @1883
    _ZN14wxUIntPropertyD0Ev @1884
    _ZN14wxUIntPropertyD1Ev @1885
    _ZN14wxUIntPropertyD2Ev @1886
    _ZN14wxsAdvQPPChild12NotifyChangeEv @1887
    _ZN14wxsAdvQPPChild20GetPropertyContainerEv @1888
    _ZN14wxsAdvQPPChildC1EP9wxsAdvQPP8wxString @1889
    _ZN14wxsAdvQPPChildC2EP9wxsAdvQPP8wxString @1890
    _ZN14wxsAdvQPPChildD0Ev @1891
    _ZN14wxsAdvQPPChildD1Ev @1892
    _ZN14wxsAdvQPPChildD2Ev @1893
    _ZN14wxsItemFactory11GetNextInfoEv @1894
    _ZN14wxsItemFactory12GetFirstInfoEv @1895
    _ZN14wxsItemFactory12GetImageListEv @1896
    _ZN14wxsItemFactory30ItemMapT_wxImplementation_PairC1ERK8wxStringRKPKS_ @1897
    _ZN14wxsItemFactory30ItemMapT_wxImplementation_PairC1ERKS0_ @1898
    _ZN14wxsItemFactory30ItemMapT_wxImplementation_PairD1Ev @1899
    _ZN14wxsItemFactory31ItemMapT_wxImplementation_KeyExC1Ev @1900
    _ZN14wxsItemFactory35ItemMapT_wxImplementation_HashTable10CreateNodeERKNS_30ItemMapT_wxImplementation_PairEj @1901
    _ZN14wxsItemFactory35ItemMapT_wxImplementation_HashTable10DeleteNodeEP21_wxHashTable_NodeBase @1902
    _ZN14wxsItemFactory35ItemMapT_wxImplementation_HashTable11ResizeTableEj @1903
    _ZN14wxsItemFactory35ItemMapT_wxImplementation_HashTable15GetOrCreateNodeERKNS_30ItemMapT_wxImplementation_PairERb @1904
    _ZN14wxsItemFactory35ItemMapT_wxImplementation_HashTable16GetBucketForNodeEPS0_PNS0_4NodeE @1905
    _ZN14wxsItemFactory35ItemMapT_wxImplementation_HashTable3endEv @1906
    _ZN14wxsItemFactory35ItemMapT_wxImplementation_HashTable4Node6m_nextEv @1907
    _ZN14wxsItemFactory35ItemMapT_wxImplementation_HashTable4NodeC1ERKNS_30ItemMapT_wxImplementation_PairE @1908
    _ZN14wxsItemFactory35ItemMapT_wxImplementation_HashTable4NodeD1Ev @1909
    _ZN14wxsItemFactory35ItemMapT_wxImplementation_HashTable5beginEv @1910
    _ZN14wxsItemFactory35ItemMapT_wxImplementation_HashTable5clearEv @1911
    _ZN14wxsItemFactory35ItemMapT_wxImplementation_HashTable5eraseERK8wxString @1912
    _ZN14wxsItemFactory35ItemMapT_wxImplementation_HashTable8Iterator11GetNextNodeEv @1913
    _ZN14wxsItemFactory35ItemMapT_wxImplementation_HashTable8Iterator8PlusPlusEv @1914
    _ZN14wxsItemFactory35ItemMapT_wxImplementation_HashTable8IteratorC2EPNS0_4NodeEPKS0_ @1915
    _ZN14wxsItemFactory35ItemMapT_wxImplementation_HashTable8iteratorC1EPNS0_4NodeEPS0_ @1916
    _ZN14wxsItemFactory35ItemMapT_wxImplementation_HashTable8iteratorppEv @1917
    _ZN14wxsItemFactory35ItemMapT_wxImplementation_HashTableC2EjRK12wxStringHashRK13wxStringEqualRKNS_31ItemMapT_wxImplementation_KeyExE @1918
    _ZN14wxsItemFactory35ItemMapT_wxImplementation_HashTableD2Ev @1919
    _ZN14wxsItemFactory5BuildERK8wxStringP14wxsItemResData @1920
    _ZN14wxsItemFactory6m_IterE @1921 DATA
    _ZN14wxsItemFactory7GetInfoERK8wxString @1922
    _ZN14wxsItemFactory7ItemMapEv @1923
    _ZN14wxsItemFactory8ItemMapT4findERK8wxString @1924
    _ZN14wxsItemFactory8ItemMapT5eraseERK8wxString @1925
    _ZN14wxsItemFactory8ItemMapT5eraseERKNS_35ItemMapT_wxImplementation_HashTable8iteratorE @1926
    _ZN14wxsItemFactory8ItemMapTC1Ej12wxStringHash13wxStringEqual @1927
    _ZN14wxsItemFactory8ItemMapTD1Ev @1928
    _ZN14wxsItemFactory8ItemMapTixERK8wxString @1929
    _ZN14wxsItemFactory9LoadImageERK8wxString @1930
    _ZN14wxsItemFactoryC1EPK11wxsItemInfo @1931
    _ZN14wxsItemFactoryC1EPK11wxsItemInfo8wxString @1932
    _ZN14wxsItemFactoryC2EPK11wxsItemInfo @1933
    _ZN14wxsItemFactoryC2EPK11wxsItemInfo8wxString @1934
    _ZN14wxsItemFactoryD0Ev @1935
    _ZN14wxsItemFactoryD1Ev @1936
    _ZN14wxsItemFactoryD2Ev @1937
    _ZN14wxsItemResData10GetXmlDataEv @1938
    _ZN14wxsItemResData10IdInitCodeEP15wxsCoderContext @1939
    _ZN14wxsItemResData10IsReadOnlyEv @1940
    _ZN14wxsItemResData10SelectItemEP7wxsItemb @1941
    _ZN14wxsItemResData10SetXmlDataERK8wxString @1942
    _ZN14wxsItemResData10SilentLoadEv @1943
    _ZN14wxsItemResData10ToolArrayT3AddEP7wxsToolj @1944
    _ZN14wxsItemResData10ToolArrayT8RemoveAtEjj @1945
    _ZN14wxsItemResData10ToolArrayTC1Ev @1946
    _ZN14wxsItemResData10ToolArrayTD1Ev @1947
    _ZN14wxsItemResData11AnySelectedEv @1948
    _ZN14wxsItemResData11BeginChangeEv @1949
    _ZN14wxsItemResData11GetLanguageEv @1950
    _ZN14wxsItemResData11GetModifiedEv @1951
    _ZN14wxsItemResData11GetRootItemEv @1952
    _ZN14wxsItemResData11HeadersCodeEP15wxsCoderContext @1953
    _ZN14wxsItemResData11HidePreviewEv @1954
    _ZN14wxsItemResData11IdToXmlMapT4findERK8wxString @1955
    _ZN14wxsItemResData11IdToXmlMapTC1Ej12wxStringHash13wxStringEqual @1956
    _ZN14wxsItemResData11IdToXmlMapTD1Ev @1957
    _ZN14wxsItemResData11IdToXmlMapTixERK8wxString @1958
    _ZN14wxsItemResData11RebuildTreeEv @1959
    _ZN14wxsItemResData11ShowPreviewEv @1960
    _ZN14wxsItemResData12GetClassNameEv @1961
    _ZN14wxsItemResData12GetClassTypeEv @1962
    _ZN14wxsItemResData12ItemToIdMapT4findERKPK7wxsItem @1963
    _ZN14wxsItemResData12ItemToIdMapTC1Ej13wxPointerHash14wxPointerEqual @1964
    _ZN14wxsItemResData12ItemToIdMapTD1Ev @1965
    _ZN14wxsItemResData12ItemToIdMapTixERKPK7wxsItem @1966
    _ZN14wxsItemResData12LoadToolsReqEP12TiXmlElementbb @1967
    _ZN14wxsItemResData12NotifyChangeEP7wxsItem @1968
    _ZN14wxsItemResData12RebuildFilesEv @1969
    _ZN14wxsItemResData12StoreTreeIdsEv @1970
    _ZN14wxsItemResData13GetToolsCountEv @1971
    _ZN14wxsItemResData13InsertNewToolEP7wxsTool @1972
    _ZN14wxsItemResData14AnySelectedReqEP7wxsItem @1973
    _ZN14wxsItemResData14DeleteSelectedEv @1974
    _ZN14wxsItemResData14GetHdrFileNameEv @1975
    _ZN14wxsItemResData14GetSrcFileNameEv @1976
    _ZN14wxsItemResData14GetTranslationEv @1977
    _ZN14wxsItemResData14HeadersAllCodeEP15wxsCoderContext @1978
    _ZN14wxsItemResData14InitializeCodeEP15wxsCoderContext @1979
    _ZN14wxsItemResData14LoadInFileModeEv @1980
    _ZN14wxsItemResData14RebuildXrcFileEv @1981
    _ZN14wxsItemResData14SaveInFileModeEv @1982
    _ZN14wxsItemResData14XRCLoadingCodeEv @1983
    _ZN14wxsItemResData15IdentifiersCodeEP15wxsCoderContext @1984
    _ZN14wxsItemResData15LoadInMixedModeEv @1985
    _ZN14wxsItemResData15SaveInMixedModeEv @1986
    _ZN14wxsItemResData15StoreTreeIdsReqEP7wxsItem @1987
    _ZN14wxsItemResData16DeclarationsCodeEP15wxsCoderContext @1988
    _ZN14wxsItemResData16GetLastSelectionEv @1989
    _ZN14wxsItemResData16GetRootSelectionEv @1990
    _ZN14wxsItemResData16HeadersNoPCHCodeEP15wxsCoderContext @1991
    _ZN14wxsItemResData16LoadInSourceModeEv @1992
    _ZN14wxsItemResData16RecreateRootItemEv @1993
    _ZN14wxsItemResData16SaveExtraDataReqEP7wxsItemP12TiXmlElement @1994
    _ZN14wxsItemResData16SaveInSourceModeEv @1995
    _ZN14wxsItemResData17BuildExactPreviewEP8wxWindow @1996
    _ZN14wxsItemResData17DeleteSelectedReqEP7wxsItem @1997
    _ZN14wxsItemResData17RebuildSourceCodeEv @1998
    _ZN14wxsItemResData18UpdateExtraDataReqEP7wxsItemRNS_11IdToXmlMapTE @1999
    _ZN14wxsItemResData19GetPropertiesFilterEv @2000
    _ZN14wxsItemResData19InternalHeadersCodeEP15wxsCoderContext @2001
    _ZN14wxsItemResData19NotifyPreviewClosedEv @2002
    _ZN14wxsItemResData20DetectAutoCodeBlocksEv @2003
    _ZN14wxsItemResData20StoreTreeExpandStateEv @2004
    _ZN14wxsItemResData21ValidateRootSelectionEv @2005
    _ZN14wxsItemResData22InternalHeadersAllCodeEP15wxsCoderContext @2006
    _ZN14wxsItemResData23StoreTreeExpandStateReqEP7wxsItem @2007
    _ZN14wxsItemResData24InternalHeadersNoPCHCodeEP15wxsCoderContext @2008
    _ZN14wxsItemResData24ValidateRootSelectionReqEP7wxsItemRS1_ @2009
    _ZN14wxsItemResData33IdToXmlMapT_wxImplementation_PairC1ERK8wxStringRKPK12TiXmlElement @2010
    _ZN14wxsItemResData33IdToXmlMapT_wxImplementation_PairC1ERKS0_ @2011
    _ZN14wxsItemResData33IdToXmlMapT_wxImplementation_PairD1Ev @2012
    _ZN14wxsItemResData34IdToXmlMapT_wxImplementation_KeyExC1Ev @2013
    _ZN14wxsItemResData34ItemToIdMapT_wxImplementation_PairC1ERKPK7wxsItemRK12wxTreeItemId @2014
    _ZN14wxsItemResData34RestoreTreeExpandAndSelectionStateEv @2015
    _ZN14wxsItemResData35ItemToIdMapT_wxImplementation_KeyExC1Ev @2016
    _ZN14wxsItemResData37RestoreTreeExpandAndSelectionStateReqEP7wxsItem @2017
    _ZN14wxsItemResData38IdToXmlMapT_wxImplementation_HashTable10CreateNodeERKNS_33IdToXmlMapT_wxImplementation_PairEj @2018
    _ZN14wxsItemResData38IdToXmlMapT_wxImplementation_HashTable10DeleteNodeEP21_wxHashTable_NodeBase @2019
    _ZN14wxsItemResData38IdToXmlMapT_wxImplementation_HashTable11ResizeTableEj @2020
    _ZN14wxsItemResData38IdToXmlMapT_wxImplementation_HashTable15GetOrCreateNodeERKNS_33IdToXmlMapT_wxImplementation_PairERb @2021
    _ZN14wxsItemResData38IdToXmlMapT_wxImplementation_HashTable16GetBucketForNodeEPS0_PNS0_4NodeE @2022
    _ZN14wxsItemResData38IdToXmlMapT_wxImplementation_HashTable3endEv @2023
    _ZN14wxsItemResData38IdToXmlMapT_wxImplementation_HashTable4Node6m_nextEv @2024
    _ZN14wxsItemResData38IdToXmlMapT_wxImplementation_HashTable4NodeC1ERKNS_33IdToXmlMapT_wxImplementation_PairE @2025
    _ZN14wxsItemResData38IdToXmlMapT_wxImplementation_HashTable4NodeD1Ev @2026
    _ZN14wxsItemResData38IdToXmlMapT_wxImplementation_HashTable5clearEv @2027
    _ZN14wxsItemResData38IdToXmlMapT_wxImplementation_HashTable8IteratorC2EPNS0_4NodeEPKS0_ @2028
    _ZN14wxsItemResData38IdToXmlMapT_wxImplementation_HashTable8iteratorC1EPNS0_4NodeEPS0_ @2029
    _ZN14wxsItemResData38IdToXmlMapT_wxImplementation_HashTableC2EjRK12wxStringHashRK13wxStringEqualRKNS_34IdToXmlMapT_wxImplementation_KeyExE @2030
    _ZN14wxsItemResData38IdToXmlMapT_wxImplementation_HashTableD2Ev @2031
    _ZN14wxsItemResData39ItemToIdMapT_wxImplementation_HashTable10CreateNodeERKNS_34ItemToIdMapT_wxImplementation_PairEj @2032
    _ZN14wxsItemResData39ItemToIdMapT_wxImplementation_HashTable10DeleteNodeEP21_wxHashTable_NodeBase @2033
    _ZN14wxsItemResData39ItemToIdMapT_wxImplementation_HashTable11ResizeTableEj @2034
    _ZN14wxsItemResData39ItemToIdMapT_wxImplementation_HashTable15GetOrCreateNodeERKNS_34ItemToIdMapT_wxImplementation_PairERb @2035
    _ZN14wxsItemResData39ItemToIdMapT_wxImplementation_HashTable16GetBucketForNodeEPS0_PNS0_4NodeE @2036
    _ZN14wxsItemResData39ItemToIdMapT_wxImplementation_HashTable3endEv @2037
    _ZN14wxsItemResData39ItemToIdMapT_wxImplementation_HashTable4Node6m_nextEv @2038
    _ZN14wxsItemResData39ItemToIdMapT_wxImplementation_HashTable4NodeC1ERKNS_34ItemToIdMapT_wxImplementation_PairE @2039
    _ZN14wxsItemResData39ItemToIdMapT_wxImplementation_HashTable5clearEv @2040
    _ZN14wxsItemResData39ItemToIdMapT_wxImplementation_HashTable8IteratorC2EPNS0_4NodeEPKS0_ @2041
    _ZN14wxsItemResData39ItemToIdMapT_wxImplementation_HashTable8iteratorC1EPNS0_4NodeEPS0_ @2042
    _ZN14wxsItemResData39ItemToIdMapT_wxImplementation_HashTableC2EjRK13wxPointerHashRK14wxPointerEqualRKNS_35ItemToIdMapT_wxImplementation_KeyExE @2043
    _ZN14wxsItemResData39ItemToIdMapT_wxImplementation_HashTableD2Ev @2044
    _ZN14wxsItemResData3CutEv @2045
    _ZN14wxsItemResData4CopyEv @2046
    _ZN14wxsItemResData4IsOkEv @2047
    _ZN14wxsItemResData4LoadEv @2048
    _ZN14wxsItemResData4RedoEv @2049
    _ZN14wxsItemResData4SaveEv @2050
    _ZN14wxsItemResData4UndoEv @2051
    _ZN14wxsItemResData5PasteEP9wxsParenti @2052
    _ZN14wxsItemResData6FindIdER12wxTreeItemIdP7wxsItem @2053
    _ZN14wxsItemResData7CanRedoEv @2054
    _ZN14wxsItemResData7CanUndoEv @2055
    _ZN14wxsItemResData7CopyReqEP7wxsItemP20wxsItemResDataObject @2056
    _ZN14wxsItemResData7GetToolEi @2057
    _ZN14wxsItemResData8CanPasteEv @2058
    _ZN14wxsItemResData9EndChangeEv @2059
    _ZN14wxsItemResData9GetEditorEv @2060
    _ZN14wxsItemResData9GetTreeIdER12wxTreeItemIdP7wxsItem @2061
    _ZN14wxsItemResData9InsertNewEP7wxsItemP9wxsParenti @2062
    _ZN14wxsItemResData9IsPreviewEv @2063
    _ZN14wxsItemResData9StoreUndoEv @2064
    _ZN14wxsItemResDataC1ERK8wxStringS2_S2_S2_S2_S2_13wxsCodingLangbb12wxTreeItemIdP13wxsItemEditorP19wxsItemResFunctions @2065
    _ZN14wxsItemResDataC2ERK8wxStringS2_S2_S2_S2_S2_13wxsCodingLangbb12wxTreeItemIdP13wxsItemEditorP19wxsItemResFunctions @2066
    _ZN14wxsItemResDataD0Ev @2067
    _ZN14wxsItemResDataD1Ev @2068
    _ZN14wxsItemResDataD2Ev @2069
    _ZN14wxsPrintDialog19OnBuildCreatingCodeEv @2070
    _ZN14wxsPrintDialog20OnEnumToolPropertiesEl @2071
    _ZN14wxsPrintDialogC1EP14wxsItemResData @2072
    _ZN14wxsPrintDialogC2EP14wxsItemResData @2073
    _ZN14wxsPrintDialogD0Ev @2074
    _ZN14wxsPrintDialogD1Ev @2075
    _ZN14wxsRadioButton14OnBuildPreviewEP8wxWindowl @2076
    _ZN14wxsRadioButton19OnBuildCreatingCodeEv @2077
    _ZN14wxsRadioButton22OnEnumWidgetPropertiesEl @2078
    _ZN14wxsRadioButtonC1EP14wxsItemResData @2079
    _ZN14wxsRadioButtonC2EP14wxsItemResData @2080
    _ZN14wxsRadioButtonD0Ev @2081
    _ZN14wxsRadioButtonD1Ev @2082
    _ZN14wxsRegisterGUII12wxWidgetsGUIE8OnCreateEP10wxsProject @2083
    _ZN14wxsRegisterGUII12wxWidgetsGUIEC1ERK8wxString @2084
    _ZN14wxsRegisterGUII12wxWidgetsGUIED0Ev @2085
    _ZN14wxsRegisterGUII12wxWidgetsGUIED1Ev @2086
    _ZN14wxsToolBarItem10OnXmlWriteEP12TiXmlElementbb @2087
    _ZN14wxsToolBarItem11OnIsPointerEv @2088
    _ZN14wxsToolBarItem14OnGetTreeLabelERi @2089
    _ZN14wxsToolBarItem16OnCanAddToParentEP9wxsParentb @2090
    _ZN14wxsToolBarItem18OnCanAddToResourceEP14wxsItemResDatab @2091
    _ZN14wxsToolBarItem19OnBuildCreatingCodeEv @2092
    _ZN14wxsToolBarItem20OnEnumToolPropertiesEl @2093
    _ZN14wxsToolBarItem23OnBuildDeclarationsCodeEv @2094
    _ZN14wxsToolBarItem9OnXmlReadEP12TiXmlElementbb @2095
    _ZN14wxsToolBarItemC1EP14wxsItemResDatab @2096
    _ZN14wxsToolBarItemC2EP14wxsItemResDatab @2097
    _ZN14wxsToolBarItemD0Ev @2098
    _ZN14wxsToolBarItemD1Ev @2099
    _ZN15CodeBlocksEventC1EiiP9cbProjectP10EditorBaseP8cbPluginS3_ @2100
    _ZN15CodeBlocksEventD1Ev @2101
    _ZN15wxAnimationBaseC2Ev @2102
    _ZN15wxAnimationBaseD2Ev @2103
    _ZN15wxAnimationCtrlC1EP8wxWindowiRK11wxAnimationRK7wxPointRK6wxSizelRK8wxString @2104
    _ZN15wxComboCtrlBase31GetMainWindowOfCompositeControlEv @2105
    _ZN15wxComboCtrlBaseC2Ev @2106
    _ZN15wxDirDialogBase10SetMessageERK8wxString @2107
    _ZN15wxDirDialogBase7SetPathERK8wxString @2108
    _ZN15wxDirDialogBaseD0Ev @2109
    _ZN15wxDirDialogBaseD1Ev @2110
    _ZN15wxDirDialogBaseD2Ev @2111
    _ZN15wxDirPickerCtrl6CreateEP8wxWindowiRK8wxStringS4_RK7wxPointRK6wxSizelRK11wxValidatorS4_ @2112
    _ZN15wxDirPickerCtrlC1EP8wxWindowiRK8wxStringS4_RK7wxPointRK6wxSizelRK11wxValidatorS4_ @2113
    _ZN15wxFlagsProperty10OnSetValueEv @2114
    _ZN15wxFlagsProperty12ms_classInfoE @2115 DATA
    _ZN15wxFlagsProperty13GetChoiceInfoEP14wxPGChoiceInfo @2116
    _ZN15wxFlagsProperty14wxCreateObjectEv @2117
    _ZN15wxFlagsProperty15RefreshChildrenEv @2118
    _ZN15wxFlagsProperty4InitEv @2119
    _ZN15wxFlagsPropertyC1ERK8wxStringS2_PPKwPKll @2120
    _ZN15wxFlagsPropertyC1ERK8wxStringS2_R11wxPGChoicesl @2121
    _ZN15wxFlagsPropertyC1ERK8wxStringS2_RK13wxArrayStringRK10wxArrayInti @2122
    _ZN15wxFlagsPropertyC2ERK8wxStringS2_PPKwPKll @2123
    _ZN15wxFlagsPropertyC2ERK8wxStringS2_R11wxPGChoicesl @2124
    _ZN15wxFlagsPropertyC2ERK8wxStringS2_RK13wxArrayStringRK10wxArrayInti @2125
    _ZN15wxFlagsPropertyD0Ev @2126
    _ZN15wxFlagsPropertyD1Ev @2127
    _ZN15wxFlagsPropertyD2Ev @2128
    _ZN15wxFloatProperty12DoValidationEPK12wxPGPropertyRdP18wxPGValidationInfoi @2129
    _ZN15wxFloatProperty12ms_classInfoE @2130 DATA
    _ZN15wxFloatProperty14DoSetAttributeERK8wxStringR9wxVariant @2131
    _ZN15wxFloatProperty14wxCreateObjectEv @2132
    _ZN15wxFloatProperty17GetClassValidatorEv @2133
    _ZN15wxFloatPropertyC1ERK8wxStringS2_d @2134
    _ZN15wxFloatPropertyC2ERK8wxStringS2_d @2135
    _ZN15wxFloatPropertyD0Ev @2136
    _ZN15wxFloatPropertyD1Ev @2137
    _ZN15wxFloatPropertyD2Ev @2138
    _ZN15wxHyperlinkCtrl14SetHoverColourERK8wxColour @2139
    _ZN15wxHyperlinkCtrlC1EP8wxWindowiRK8wxStringS4_RK7wxPointRK6wxSizelS4_ @2140
    _ZN15wxItemContainer6AppendERK8wxString @2141
    _ZN15wxItemContainer6AppendERK8wxStringP12wxClientData @2142
    _ZN15wxItemContainer6InsertERK8wxStringj @2143
    _ZN15wxItemContainerC2Ev @2144
    _ZN15wxPGChoiceEntry8SetValueEi @2145
    _ZN15wxPGChoiceEntryC1ERK8wxStringi @2146
    _ZN15wxPGChoiceEntryC1ERK8wxStringiRK8wxBitmapRK8wxColourS8_ @2147
    _ZN15wxPGChoiceEntryC1ERKS_ @2148
    _ZN15wxPGChoiceEntryC1Ev @2149
    _ZN15wxPGChoiceEntryC2ERK8wxStringi @2150
    _ZN15wxPGChoiceEntryC2ERK8wxStringiRK8wxBitmapRK8wxColourS8_ @2151
    _ZN15wxPGChoiceEntryC2ERKS_ @2152
    _ZN15wxPGChoiceEntryC2Ev @2153
    _ZN15wxPGChoiceEntryD0Ev @2154
    _ZN15wxPGChoiceEntryD1Ev @2155
    _ZN15wxPGChoiceEntryD2Ev @2156
    _ZN15wxPGChoiceEntryaSERKS_ @2157
    _ZN15wxPGChoicesData12CopyDataFromEPS_ @2158
    _ZN15wxPGChoicesData5ClearEv @2159
    _ZN15wxPGChoicesData6DecRefEv @2160
    _ZN15wxPGChoicesData6InsertEiP15wxPGChoiceEntry @2161
    _ZN15wxPGChoicesDataC1Ev @2162
    _ZN15wxPGChoicesDataC2Ev @2163
    _ZN15wxPGChoicesDataD0Ev @2164
    _ZN15wxPGChoicesDataD1Ev @2165
    _ZN15wxPGChoicesDataD2Ev @2166
    _ZN15wxPGCommonValueC1ERK8wxStringP16wxPGCellRenderer @2167
    _ZN15wxPGCommonValueC2ERK8wxStringP16wxPGCellRenderer @2168
    _ZN15wxPGCommonValueD0Ev @2169
    _ZN15wxPGCommonValueD1Ev @2170
    _ZN15wxPGCommonValueD2Ev @2171
    _ZN15wxPGMultiButton16FinalizePositionERK7wxPoint @2172
    _ZN15wxPGMultiButton3AddERK8wxBitmapi @2173
    _ZN15wxPGMultiButton3AddERK8wxStringi @2174
    _ZN15wxPGMultiButton9GetButtonEj @2175
    _ZN15wxPGMultiButtonC1EP14wxPropertyGridRK6wxSize @2176
    _ZN15wxPGMultiButtonC2EP14wxPropertyGridRK6wxSize @2177
    _ZN15wxPGMultiButtonD0Ev @2178
    _ZN15wxPGMultiButtonD1Ev @2179
    _ZN15wxPGMultiButtonD2Ev @2180
    _ZN15wxPGVariantData12ms_classInfoE @2181 DATA
    _ZN15wxPGVariantDataC2Ev @2182
    _ZN15wxPGVariantDataD0Ev @2183
    _ZN15wxPGVariantDataD1Ev @2184
    _ZN15wxPGVariantDataD2Ev @2185
    _ZN15wxScrollBarBaseC2Ev @2186
    _ZN15wxScrollBarBaseD0Ev @2187
    _ZN15wxScrollBarBaseD1Ev @2188
    _ZN15wxScrollBarBaseD2Ev @2189
    _ZN15wxSplitterEvent15SetSashPositionEi @2190
    _ZN15wxStaticBoxBase24HasTransparentBackgroundEv @2191
    _ZN15wxStaticBoxBaseC2Ev @2192
    _ZN15wxStaticBoxBaseD0Ev @2193
    _ZN15wxStaticBoxBaseD1Ev @2194
    _ZN15wxStaticBoxBaseD2Ev @2195
    _ZN15wxTextValidator11SetExcludesERK13wxArrayString @2196
    _ZN15wxTextValidator11SetIncludesERK13wxArrayString @2197
    _ZN15wxTextValidatorD1Ev @2198
    _ZN15wxTextValidatorD2Ev @2199
    _ZN15wxsBitmapButton14OnBuildPreviewEP8wxWindowl @2200
    _ZN15wxsBitmapButton19OnBuildCreatingCodeEv @2201
    _ZN15wxsBitmapButton22OnEnumWidgetPropertiesEl @2202
    _ZN15wxsBitmapButtonC1EP14wxsItemResData @2203
    _ZN15wxsBitmapButtonC2EP14wxsItemResData @2204
    _ZN15wxsBitmapButtonD0Ev @2205
    _ZN15wxsBitmapButtonD1Ev @2206
    _ZN15wxsBoolProperty11GetTypeNameEv @2207
    _ZN15wxsBoolProperty14PropStreamReadEP20wxsPropertyContainerP17wxsPropertyStream @2208
    _ZN15wxsBoolProperty15PropStreamWriteEP20wxsPropertyContainerP17wxsPropertyStream @2209
    _ZN15wxsBoolProperty6PGReadEP20wxsPropertyContainerP21wxPropertyGridManagerP12wxPGPropertyl @2210
    _ZN15wxsBoolProperty7PGWriteEP20wxsPropertyContainerP21wxPropertyGridManagerP12wxPGPropertyl @2211
    _ZN15wxsBoolProperty7XmlReadEP20wxsPropertyContainerP12TiXmlElement @2212
    _ZN15wxsBoolProperty8PGCreateEP20wxsPropertyContainerP21wxPropertyGridManagerP12wxPGProperty @2213
    _ZN15wxsBoolProperty8XmlWriteEP20wxsPropertyContainerP12TiXmlElement @2214
    _ZN15wxsBoolPropertyC1ERK8wxStringS2_lbi @2215
    _ZN15wxsBoolPropertyC2ERK8wxStringS2_lbi @2216
    _ZN15wxsBoolPropertyD0Ev @2217
    _ZN15wxsBoolPropertyD1Ev @2218
    _ZN15wxsCalendarCtrl14OnBuildPreviewEP8wxWindowl @2219
    _ZN15wxsCalendarCtrl19OnBuildCreatingCodeEv @2220
    _ZN15wxsCalendarCtrl22OnEnumWidgetPropertiesEl @2221
    _ZN15wxsCalendarCtrlC1EP14wxsItemResData @2222
    _ZN15wxsCalendarCtrlC2EP14wxsItemResData @2223
    _ZN15wxsCalendarCtrlD0Ev @2224
    _ZN15wxsCalendarCtrlD1Ev @2225
    _ZN15wxsCheckListBox14OnBuildPreviewEP8wxWindowl @2226
    _ZN15wxsCheckListBox19OnBuildCreatingCodeEv @2227
    _ZN15wxsCheckListBox22OnEnumWidgetPropertiesEl @2228
    _ZN15wxsCheckListBoxC1EP14wxsItemResData @2229
    _ZN15wxsCheckListBoxC2EP14wxsItemResData @2230
    _ZN15wxsCheckListBoxD0Ev @2231
    _ZN15wxsCheckListBoxD1Ev @2232
    _ZN15wxsCoderContext11wxStringSet13Insert_ResultC1ERKNS_38wxStringSet_wxImplementation_HashTable8iteratorERKb @2233
    _ZN15wxsCoderContext11wxStringSet4findERK8wxString @2234
    _ZN15wxsCoderContext11wxStringSet5eraseERK8wxString @2235
    _ZN15wxsCoderContext11wxStringSet6insertERK8wxString @2236
    _ZN15wxsCoderContext11wxStringSetC1Ej12wxStringHash13wxStringEqual @2237
    _ZN15wxsCoderContext11wxStringSetD1Ev @2238
    _ZN15wxsCoderContext12AddEventCodeERK8wxString @2239
    _ZN15wxsCoderContext13GetUniqueNameERK8wxString @2240
    _ZN15wxsCoderContext14AddDeclarationERK8wxString @2241
    _ZN15wxsCoderContext15AddBuildingCodeERK8wxString @2242
    _ZN15wxsCoderContext18AddXRCFetchingCodeERK8wxString @2243
    _ZN15wxsCoderContext30ExtraMap_wxImplementation_PairC1ERK8wxStringS3_ @2244
    _ZN15wxsCoderContext30ExtraMap_wxImplementation_PairC1ERKS0_ @2245
    _ZN15wxsCoderContext30ExtraMap_wxImplementation_PairD1Ev @2246
    _ZN15wxsCoderContext31ExtraMap_wxImplementation_KeyExC1Ev @2247
    _ZN15wxsCoderContext34wxStringSet_wxImplementation_KeyExC1Ev @2248
    _ZN15wxsCoderContext35ExtraMap_wxImplementation_HashTable10CreateNodeERKNS_30ExtraMap_wxImplementation_PairEj @2249
    _ZN15wxsCoderContext35ExtraMap_wxImplementation_HashTable10DeleteNodeEP21_wxHashTable_NodeBase @2250
    _ZN15wxsCoderContext35ExtraMap_wxImplementation_HashTable11ResizeTableEj @2251
    _ZN15wxsCoderContext35ExtraMap_wxImplementation_HashTable15GetOrCreateNodeERKNS_30ExtraMap_wxImplementation_PairERb @2252
    _ZN15wxsCoderContext35ExtraMap_wxImplementation_HashTable16GetBucketForNodeEPS0_PNS0_4NodeE @2253
    _ZN15wxsCoderContext35ExtraMap_wxImplementation_HashTable4Node6m_nextEv @2254
    _ZN15wxsCoderContext35ExtraMap_wxImplementation_HashTable4NodeC1ERKNS_30ExtraMap_wxImplementation_PairE @2255
    _ZN15wxsCoderContext35ExtraMap_wxImplementation_HashTable4NodeD1Ev @2256
    _ZN15wxsCoderContext35ExtraMap_wxImplementation_HashTable5clearEv @2257
    _ZN15wxsCoderContext35ExtraMap_wxImplementation_HashTableC2EjRK12wxStringHashRK13wxStringEqualRKNS_31ExtraMap_wxImplementation_KeyExE @2258
    _ZN15wxsCoderContext35ExtraMap_wxImplementation_HashTableD2Ev @2259
    _ZN15wxsCoderContext38wxStringSet_wxImplementation_HashTable10CreateNodeERK8wxStringj @2260
    _ZN15wxsCoderContext38wxStringSet_wxImplementation_HashTable10DeleteNodeEP21_wxHashTable_NodeBase @2261
    _ZN15wxsCoderContext38wxStringSet_wxImplementation_HashTable11ResizeTableEj @2262
    _ZN15wxsCoderContext38wxStringSet_wxImplementation_HashTable15GetOrCreateNodeERK8wxStringRb @2263
    _ZN15wxsCoderContext38wxStringSet_wxImplementation_HashTable16GetBucketForNodeEPS0_PNS0_4NodeE @2264
    _ZN15wxsCoderContext38wxStringSet_wxImplementation_HashTable3endEv @2265
    _ZN15wxsCoderContext38wxStringSet_wxImplementation_HashTable4Node6m_nextEv @2266
    _ZN15wxsCoderContext38wxStringSet_wxImplementation_HashTable4NodeC1ERK8wxString @2267
    _ZN15wxsCoderContext38wxStringSet_wxImplementation_HashTable4NodeD1Ev @2268
    _ZN15wxsCoderContext38wxStringSet_wxImplementation_HashTable5beginEv @2269
    _ZN15wxsCoderContext38wxStringSet_wxImplementation_HashTable5clearEv @2270
    _ZN15wxsCoderContext38wxStringSet_wxImplementation_HashTable5eraseERK8wxString @2271
    _ZN15wxsCoderContext38wxStringSet_wxImplementation_HashTable8Iterator11GetNextNodeEv @2272
    _ZN15wxsCoderContext38wxStringSet_wxImplementation_HashTable8Iterator8PlusPlusEv @2273
    _ZN15wxsCoderContext38wxStringSet_wxImplementation_HashTable8IteratorC2EPNS0_4NodeEPKS0_ @2274
    _ZN15wxsCoderContext38wxStringSet_wxImplementation_HashTable8iteratorC1EPNS0_4NodeEPS0_ @2275
    _ZN15wxsCoderContext38wxStringSet_wxImplementation_HashTable8iteratorppEv @2276
    _ZN15wxsCoderContext38wxStringSet_wxImplementation_HashTableC2EjRK12wxStringHashRK13wxStringEqualRKNS_34wxStringSet_wxImplementation_KeyExE @2277
    _ZN15wxsCoderContext38wxStringSet_wxImplementation_HashTableD2Ev @2278
    _ZN15wxsCoderContext8ExtraMapC1Ej12wxStringHash13wxStringEqual @2279
    _ZN15wxsCoderContext8ExtraMapD1Ev @2280
    _ZN15wxsCoderContext8ExtraMapixERK8wxString @2281
    _ZN15wxsCoderContext9AddHeaderERK8wxStringS2_l @2282
    _ZN15wxsCoderContext9AddIdCodeERK8wxStringS2_ @2283
    _ZN15wxsCoderContextC1Ev @2284
    _ZN15wxsCoderContextD1Ev @2285
    _ZN15wxsColourDialog19OnBuildCreatingCodeEv @2286
    _ZN15wxsColourDialog20OnEnumToolPropertiesEl @2287
    _ZN15wxsColourDialogC1EP14wxsItemResData @2288
    _ZN15wxsColourDialogC2EP14wxsItemResData @2289
    _ZN15wxsColourDialogD0Ev @2290
    _ZN15wxsColourDialogD1Ev @2291
    _ZN15wxsCustomWidget10OnXmlWriteEP12TiXmlElementbb @2292
    _ZN15wxsCustomWidget11OnIsPointerEv @2293
    _ZN15wxsCustomWidget14OnBuildPreviewEP8wxWindowl @2294
    _ZN15wxsCustomWidget14RebuildXmlDataEv @2295
    _ZN15wxsCustomWidget17RebuildXmlDataDocEv @2296
    _ZN15wxsCustomWidget19OnBuildCreatingCodeEv @2297
    _ZN15wxsCustomWidget22OnEnumWidgetPropertiesEl @2298
    _ZN15wxsCustomWidget9OnXmlReadEP12TiXmlElementbb @2299
    _ZN15wxsCustomWidgetC1EP14wxsItemResData @2300
    _ZN15wxsCustomWidgetC2EP14wxsItemResData @2301
    _ZN15wxsCustomWidgetD0Ev @2302
    _ZN15wxsCustomWidgetD1Ev @2303
    _ZN15wxsEnumProperty11GetTypeNameEv @2304
    _ZN15wxsEnumProperty14PropStreamReadEP20wxsPropertyContainerP17wxsPropertyStream @2305
    _ZN15wxsEnumProperty15PropStreamWriteEP20wxsPropertyContainerP17wxsPropertyStream @2306
    _ZN15wxsEnumProperty6PGReadEP20wxsPropertyContainerP21wxPropertyGridManagerP12wxPGPropertyl @2307
    _ZN15wxsEnumProperty7PGWriteEP20wxsPropertyContainerP21wxPropertyGridManagerP12wxPGPropertyl @2308
    _ZN15wxsEnumProperty7XmlReadEP20wxsPropertyContainerP12TiXmlElement @2309
    _ZN15wxsEnumProperty8PGCreateEP20wxsPropertyContainerP21wxPropertyGridManagerP12wxPGProperty @2310
    _ZN15wxsEnumProperty8XmlWriteEP20wxsPropertyContainerP12TiXmlElement @2311
    _ZN15wxsEnumPropertyC1ERK8wxStringS2_lPKlPPKwblbi @2312
    _ZN15wxsEnumPropertyC2ERK8wxStringS2_lPKlPPKwblbi @2313
    _ZN15wxsEnumPropertyD0Ev @2314
    _ZN15wxsEnumPropertyD1Ev @2315
    _ZN15wxsEventsEditor11BuildEventsEP7wxsItemP22wxsPropertyGridManager @2316
    _ZN15wxsEventsEditor11GotoHandlerEi @2317
    _ZN15wxsEventsEditor11wxArrayPGId3AddEP12wxPGPropertyj @2318
    _ZN15wxsEventsEditor11wxArrayPGIdC1Ev @2319
    _ZN15wxsEventsEditor11wxArrayPGIdD1Ev @2320
    _ZN15wxsEventsEditor13FindFunctionsERK8wxStringR13wxArrayString @2321
    _ZN15wxsEventsEditor14GetNewFunctionEPK12wxsEventDesc @2322
    _ZN15wxsEventsEditor16GotoOrBuildEventEP7wxsItemiP22wxsPropertyGridManager @2323
    _ZN15wxsEventsEditor17CreateNewFunctionEPK12wxsEventDescRK8wxString @2324
    _ZN15wxsEventsEditor22GetFunctionPropositionEPK12wxsEventDesc @2325
    _ZN15wxsEventsEditor3GetEv @2326
    _ZN15wxsEventsEditor9PGChangedEP7wxsItemP22wxsPropertyGridManagerP12wxPGProperty @2327
    _ZN15wxsEventsEditorC1Ev @2328
    _ZN15wxsEventsEditorC2Ev @2329
    _ZN15wxsEventsEditorD1Ev @2330
    _ZN15wxsEventsEditorD2Ev @2331
    _ZN15wxsFontProperty10ShowEditorEP20wxsPropertyContainer @2332
    _ZN15wxsFontProperty11GetTypeNameEv @2333
    _ZN15wxsFontProperty14PropStreamReadEP20wxsPropertyContainerP17wxsPropertyStream @2334
    _ZN15wxsFontProperty15PropStreamWriteEP20wxsPropertyContainerP17wxsPropertyStream @2335
    _ZN15wxsFontProperty6GetStrEP20wxsPropertyContainer @2336
    _ZN15wxsFontProperty7XmlReadEP20wxsPropertyContainerP12TiXmlElement @2337
    _ZN15wxsFontProperty8XmlWriteEP20wxsPropertyContainerP12TiXmlElement @2338
    _ZN15wxsFontPropertyC1ERK8wxStringS2_li @2339
    _ZN15wxsFontPropertyC2ERK8wxStringS2_li @2340
    _ZN15wxsFontPropertyD0Ev @2341
    _ZN15wxsFontPropertyD1Ev @2342
    _ZN15wxsImageListDlg10ID_BUTTON1E @2343 DATA
    _ZN15wxsImageListDlg10ID_BUTTON2E @2344 DATA
    _ZN15wxsImageListDlg10ID_BUTTON4E @2345 DATA
    _ZN15wxsImageListDlg10ID_PANEL10E @2346 DATA
    _ZN15wxsImageListDlg10ID_PANEL11E @2347 DATA
    _ZN15wxsImageListDlg10ID_PANEL12E @2348 DATA
    _ZN15wxsImageListDlg10OnbOKClickER14wxCommandEvent @2349
    _ZN15wxsImageListDlg10PaintPanelER9wxPaintDCP7wxPanelR8wxBitmapb @2350
    _ZN15wxsImageListDlg11OnbAddClickER14wxCommandEvent @2351
    _ZN15wxsImageListDlg11OnbDelClickER14wxCommandEvent @2352
    _ZN15wxsImageListDlg11PreviewListEv @2353
    _ZN15wxsImageListDlg12ArrayToImageER13wxArrayStringR7wxImage @2354
    _ZN15wxsImageListDlg12ID_CHECKBOX1E @2355 DATA
    _ZN15wxsImageListDlg12ImageToArrayER7wxImageR13wxArrayString @2356
    _ZN15wxsImageListDlg12OnbLeftClickER14wxCommandEvent @2357
    _ZN15wxsImageListDlg12OnbReadClickER14wxCommandEvent @2358
    _ZN15wxsImageListDlg12OnbSaveClickER14wxCommandEvent @2359
    _ZN15wxsImageListDlg13ArrayToBitmapER13wxArrayStringR8wxBitmap @2360
    _ZN15wxsImageListDlg13BitmapToArrayER8wxBitmapR13wxArrayString @2361
    _ZN15wxsImageListDlg13CalcArraySizeER13wxArrayString @2362
    _ZN15wxsImageListDlg13CopyImageListER11wxImageListS1_ @2363
    _ZN15wxsImageListDlg13ID_STATICBOX1E @2364 DATA
    _ZN15wxsImageListDlg13ID_STATICBOX2E @2365 DATA
    _ZN15wxsImageListDlg13ID_STATICBOX3E @2366 DATA
    _ZN15wxsImageListDlg13OnPanel1PaintER12wxPaintEvent @2367
    _ZN15wxsImageListDlg13OnbClearClickER14wxCommandEvent @2368
    _ZN15wxsImageListDlg13OnbColorClickER14wxCommandEvent @2369
    _ZN15wxsImageListDlg13OnbRightClickER14wxCommandEvent @2370
    _ZN15wxsImageListDlg13PreviewImportEv @2371
    _ZN15wxsImageListDlg13UpdateEnabledEv @2372
    _ZN15wxsImageListDlg13sm_eventTableE @2373 DATA
    _ZN15wxsImageListDlg14ID_STATICTEXT1E @2374 DATA
    _ZN15wxsImageListDlg14ID_STATICTEXT2E @2375 DATA
    _ZN15wxsImageListDlg14ID_STATICTEXT3E @2376 DATA
    _ZN15wxsImageListDlg14ID_STATICTEXT4E @2377 DATA
    _ZN15wxsImageListDlg14ID_STATICTEXT5E @2378 DATA
    _ZN15wxsImageListDlg14ID_STATICTEXT6E @2379 DATA
    _ZN15wxsImageListDlg14ID_STATICTEXT7E @2380 DATA
    _ZN15wxsImageListDlg14ID_STATICTEXT8E @2381 DATA
    _ZN15wxsImageListDlg14ID_STATICTEXT9E @2382 DATA
    _ZN15wxsImageListDlg14OnPanel12PaintER12wxPaintEvent @2383
    _ZN15wxsImageListDlg14OnPanel1LeftUpER12wxMouseEvent @2384
    _ZN15wxsImageListDlg14OnPanel2LeftUpER12wxMouseEvent @2385
    _ZN15wxsImageListDlg14OnPanel3LeftUpER12wxMouseEvent @2386
    _ZN15wxsImageListDlg14OnPanel4LeftUpER12wxMouseEvent @2387
    _ZN15wxsImageListDlg14OnPanel5LeftUpER12wxMouseEvent @2388
    _ZN15wxsImageListDlg14OnPanel6LeftUpER12wxMouseEvent @2389
    _ZN15wxsImageListDlg14OnPanel7LeftUpER12wxMouseEvent @2390
    _ZN15wxsImageListDlg14OnPanel8LeftUpER12wxMouseEvent @2391
    _ZN15wxsImageListDlg14OnPanel9LeftUpER12wxMouseEvent @2392
    _ZN15wxsImageListDlg14OnbCancelClickER14wxCommandEvent @2393
    _ZN15wxsImageListDlg15ID_STATICTEXT10E @2394 DATA
    _ZN15wxsImageListDlg15ID_STATICTEXT11E @2395 DATA
    _ZN15wxsImageListDlg15ID_STATICTEXT12E @2396 DATA
    _ZN15wxsImageListDlg15ID_STATICTEXT13E @2397 DATA
    _ZN15wxsImageListDlg15ID_STATICTEXT14E @2398 DATA
    _ZN15wxsImageListDlg15ID_STATICTEXT15E @2399 DATA
    _ZN15wxsImageListDlg15ID_STATICTEXT16E @2400 DATA
    _ZN15wxsImageListDlg15ID_STATICTEXT17E @2401 DATA
    _ZN15wxsImageListDlg15ID_STATICTEXT18E @2402 DATA
    _ZN15wxsImageListDlg15ID_STATICTEXT19E @2403 DATA
    _ZN15wxsImageListDlg15ID_STATICTEXT20E @2404 DATA
    _ZN15wxsImageListDlg15ID_STATICTEXT21E @2405 DATA
    _ZN15wxsImageListDlg15ID_STATICTEXT22E @2406 DATA
    _ZN15wxsImageListDlg15ID_STATICTEXT23E @2407 DATA
    _ZN15wxsImageListDlg15ID_STATICTEXT24E @2408 DATA
    _ZN15wxsImageListDlg15ID_STATICTEXT25E @2409 DATA
    _ZN15wxsImageListDlg15ID_STATICTEXT26E @2410 DATA
    _ZN15wxsImageListDlg15ID_STATICTEXT27E @2411 DATA
    _ZN15wxsImageListDlg15ID_STATICTEXT28E @2412 DATA
    _ZN15wxsImageListDlg15OnPanel10LeftUpER12wxMouseEvent @2413
    _ZN15wxsImageListDlg15OnPanel11LeftUpER12wxMouseEvent @2414
    _ZN15wxsImageListDlg15PreviewSelectedEv @2415
    _ZN15wxsImageListDlg16ArrayToImageListER13wxArrayStringR11wxImageList @2416
    _ZN15wxsImageListDlg16ID_BITMAPBUTTON1E @2417 DATA
    _ZN15wxsImageListDlg16ID_BITMAPBUTTON2E @2418 DATA
    _ZN15wxsImageListDlg16ID_BITMAPBUTTON3E @2419 DATA
    _ZN15wxsImageListDlg16ID_BITMAPBUTTON4E @2420 DATA
    _ZN15wxsImageListDlg16ID_BITMAPBUTTON5E @2421 DATA
    _ZN15wxsImageListDlg16ID_BITMAPBUTTON6E @2422 DATA
    _ZN15wxsImageListDlg16ID_BITMAPBUTTON7E @2423 DATA
    _ZN15wxsImageListDlg16ImageListToArrayER11wxImageListR13wxArrayString @2424
    _ZN15wxsImageListDlg17PaintPreviewPanelER12wxPaintEvent @2425
    _ZN15wxsImageListDlg17sm_eventHashTableE @2426 DATA
    _ZN15wxsImageListDlg18SelectPreviewPanelEi @2427
    _ZN15wxsImageListDlg20OncxTransparentClickER14wxCommandEvent @2428
    _ZN15wxsImageListDlg20sm_eventTableEntriesE @2429 DATA
    _ZN15wxsImageListDlg7ExecuteER8wxStringR13wxArrayString @2430
    _ZN15wxsImageListDlg7SaveXPMEP7wxImageR14wxOutputStream @2431
    _ZN15wxsImageListDlg8FindToolEP7wxsItem8wxString @2432
    _ZN15wxsImageListDlg9ID_PANEL1E @2433 DATA
    _ZN15wxsImageListDlg9ID_PANEL2E @2434 DATA
    _ZN15wxsImageListDlg9ID_PANEL3E @2435 DATA
    _ZN15wxsImageListDlg9ID_PANEL4E @2436 DATA
    _ZN15wxsImageListDlg9ID_PANEL5E @2437 DATA
    _ZN15wxsImageListDlg9ID_PANEL6E @2438 DATA
    _ZN15wxsImageListDlg9ID_PANEL7E @2439 DATA
    _ZN15wxsImageListDlg9ID_PANEL8E @2440 DATA
    _ZN15wxsImageListDlg9ID_PANEL9E @2441 DATA
    _ZN15wxsImageListDlgC1EP8wxWindowiRK7wxPointRK6wxSize @2442
    _ZN15wxsImageListDlgC2EP8wxWindowiRK7wxPointRK6wxSize @2443
    _ZN15wxsImageListDlgD0Ev @2444
    _ZN15wxsImageListDlgD1Ev @2445
    _ZN15wxsImageListDlgD2Ev @2446
    _ZN15wxsLongProperty11GetTypeNameEv @2447
    _ZN15wxsLongProperty14PropStreamReadEP20wxsPropertyContainerP17wxsPropertyStream @2448
    _ZN15wxsLongProperty15PropStreamWriteEP20wxsPropertyContainerP17wxsPropertyStream @2449
    _ZN15wxsLongProperty6PGReadEP20wxsPropertyContainerP21wxPropertyGridManagerP12wxPGPropertyl @2450
    _ZN15wxsLongProperty7PGWriteEP20wxsPropertyContainerP21wxPropertyGridManagerP12wxPGPropertyl @2451
    _ZN15wxsLongProperty7XmlReadEP20wxsPropertyContainerP12TiXmlElement @2452
    _ZN15wxsLongProperty8PGCreateEP20wxsPropertyContainerP21wxPropertyGridManagerP12wxPGProperty @2453
    _ZN15wxsLongProperty8XmlWriteEP20wxsPropertyContainerP12TiXmlElement @2454
    _ZN15wxsLongPropertyC1ERK8wxStringS2_lli @2455
    _ZN15wxsLongPropertyC2ERK8wxStringS2_lli @2456
    _ZN15wxsLongPropertyD0Ev @2457
    _ZN15wxsLongPropertyD1Ev @2458
    _ZN15wxsNewWindowDlg10ID_BUTTON1E @2459 DATA
    _ZN15wxsNewWindowDlg10ID_BUTTON2E @2460 DATA
    _ZN15wxsNewWindowDlg10ID_BUTTON3E @2461 DATA
    _ZN15wxsNewWindowDlg10ID_BUTTON4E @2462 DATA
    _ZN15wxsNewWindowDlg12ID_CHECKBOX1E @2463 DATA
    _ZN15wxsNewWindowDlg12ID_CHECKBOX2E @2464 DATA
    _ZN15wxsNewWindowDlg12ID_CHECKBOX3E @2465 DATA
    _ZN15wxsNewWindowDlg12ID_CHECKBOX4E @2466 DATA
    _ZN15wxsNewWindowDlg12ID_CHECKBOX5E @2467 DATA
    _ZN15wxsNewWindowDlg12ID_CHECKBOX6E @2468 DATA
    _ZN15wxsNewWindowDlg12ID_CHECKBOX7E @2469 DATA
    _ZN15wxsNewWindowDlg12ID_CHECKBOX8E @2470 DATA
    _ZN15wxsNewWindowDlg12ID_CHECKBOX9E @2471 DATA
    _ZN15wxsNewWindowDlg12ID_COMBOBOX1E @2472 DATA
    _ZN15wxsNewWindowDlg12ID_TEXTCTRL1E @2473 DATA
    _ZN15wxsNewWindowDlg12ID_TEXTCTRL2E @2474 DATA
    _ZN15wxsNewWindowDlg12ID_TEXTCTRL3E @2475 DATA
    _ZN15wxsNewWindowDlg12ID_TEXTCTRL4E @2476 DATA
    _ZN15wxsNewWindowDlg12ID_TEXTCTRL5E @2477 DATA
    _ZN15wxsNewWindowDlg12ID_TEXTCTRL6E @2478 DATA
    _ZN15wxsNewWindowDlg12ID_TEXTCTRL7E @2479 DATA
    _ZN15wxsNewWindowDlg12ID_TEXTCTRL8E @2480 DATA
    _ZN15wxsNewWindowDlg12OnXrcChangedER14wxCommandEvent @2481
    _ZN15wxsNewWindowDlg13DetectPchFileEv @2482
    _ZN15wxsNewWindowDlg13ID_CHECKBOX10E @2483 DATA
    _ZN15wxsNewWindowDlg13ID_CHECKBOX11E @2484 DATA
    _ZN15wxsNewWindowDlg13ID_CHECKBOX12E @2485 DATA
    _ZN15wxsNewWindowDlg13ID_CHECKBOX13E @2486 DATA
    _ZN15wxsNewWindowDlg13ID_CHECKBOX14E @2487 DATA
    _ZN15wxsNewWindowDlg13ID_CHECKBOX15E @2488 DATA
    _ZN15wxsNewWindowDlg13OnAdvOpsClickER14wxCommandEvent @2489
    _ZN15wxsNewWindowDlg13OnCtorIdClickER14wxCommandEvent @2490
    _ZN15wxsNewWindowDlg13OnUsePCHClickER14wxCommandEvent @2491
    _ZN15wxsNewWindowDlg13sm_eventTableE @2492 DATA
    _ZN15wxsNewWindowDlg14OnClassChangedER14wxCommandEvent @2493
    _ZN15wxsNewWindowDlg14OnCtorPosClickER14wxCommandEvent @2494
    _ZN15wxsNewWindowDlg14OnUseXrcChangeER14wxCommandEvent @2495
    _ZN15wxsNewWindowDlg15OnCtorSizeClickER14wxCommandEvent @2496
    _ZN15wxsNewWindowDlg15OnHeaderChangedER14wxCommandEvent @2497
    _ZN15wxsNewWindowDlg15OnScopeIdsClickER14wxCommandEvent @2498
    _ZN15wxsNewWindowDlg15OnSourceChangedER14wxCommandEvent @2499
    _ZN15wxsNewWindowDlg15PrepareResourceEP10wxsItemResP14wxsItemResData @2500
    _ZN15wxsNewWindowDlg16OnCtorIdDefClickER14wxCommandEvent @2501
    _ZN15wxsNewWindowDlg17OnCtorParentClickER14wxCommandEvent @2502
    _ZN15wxsNewWindowDlg17OnCtorPosDefClickER14wxCommandEvent @2503
    _ZN15wxsNewWindowDlg17sm_eventHashTableE @2504 DATA
    _ZN15wxsNewWindowDlg18OnCtorSizeDefClickER14wxCommandEvent @2505
    _ZN15wxsNewWindowDlg18OnUseInitFuncClickER14wxCommandEvent @2506
    _ZN15wxsNewWindowDlg18UpdateScopeButtonsEv @2507
    _ZN15wxsNewWindowDlg19OnScopeMembersClickER14wxCommandEvent @2508
    _ZN15wxsNewWindowDlg20OnCtorParentDefClickER14wxCommandEvent @2509
    _ZN15wxsNewWindowDlg20OnScopeHandlersClickER14wxCommandEvent @2510
    _ZN15wxsNewWindowDlg20sm_eventTableEntriesE @2511 DATA
    _ZN15wxsNewWindowDlg8OnCancelER14wxCommandEvent @2512
    _ZN15wxsNewWindowDlg8OnCreateER14wxCommandEvent @2513
    _ZN15wxsNewWindowDlgC1EP8wxWindowRK8wxStringP10wxsProject @2514
    _ZN15wxsNewWindowDlgC2EP8wxWindowRK8wxStringP10wxsProject @2515
    _ZN15wxsNewWindowDlgD0Ev @2516
    _ZN15wxsNewWindowDlgD1Ev @2517
    _ZN15wxsNewWindowDlgD2Ev @2518
    _ZN15wxsRegisterItemI10wxsListBoxE7OnBuildEP14wxsItemResData @2519
    _ZN15wxsRegisterItemI10wxsListBoxEC1E8wxString11wxsItemTypeS2_lb @2520
    _ZN15wxsRegisterItemI10wxsListBoxED0Ev @2521
    _ZN15wxsRegisterItemI10wxsListBoxED1Ev @2522
    _ZN15wxsRegisterItemI10wxsMenuBarE7OnBuildEP14wxsItemResData @2523
    _ZN15wxsRegisterItemI10wxsMenuBarEC1E8wxString11wxsItemTypeS2_lb @2524
    _ZN15wxsRegisterItemI10wxsMenuBarED0Ev @2525
    _ZN15wxsRegisterItemI10wxsMenuBarED1Ev @2526
    _ZN15wxsRegisterItemI10wxsToolBarE7OnBuildEP14wxsItemResData @2527
    _ZN15wxsRegisterItemI10wxsToolBarEC1E8wxString11wxsItemTypeS2_lb @2528
    _ZN15wxsRegisterItemI10wxsToolBarED0Ev @2529
    _ZN15wxsRegisterItemI10wxsToolBarED1Ev @2530
    _ZN15wxsRegisterItemI11wxsBoxSizerE7OnBuildEP14wxsItemResData @2531
    _ZN15wxsRegisterItemI11wxsBoxSizerEC1E8wxString11wxsItemTypeS2_lb @2532
    _ZN15wxsRegisterItemI11wxsBoxSizerED0Ev @2533
    _ZN15wxsRegisterItemI11wxsBoxSizerED1Ev @2534
    _ZN15wxsRegisterItemI11wxsCheckBoxE7OnBuildEP14wxsItemResData @2535
    _ZN15wxsRegisterItemI11wxsCheckBoxEC1E8wxString11wxsItemTypeS2_lb @2536
    _ZN15wxsRegisterItemI11wxsCheckBoxED0Ev @2537
    _ZN15wxsRegisterItemI11wxsCheckBoxED1Ev @2538
    _ZN15wxsRegisterItemI11wxsComboBoxE7OnBuildEP14wxsItemResData @2539
    _ZN15wxsRegisterItemI11wxsComboBoxEC1E8wxString11wxsItemTypeS2_lb @2540
    _ZN15wxsRegisterItemI11wxsComboBoxED0Ev @2541
    _ZN15wxsRegisterItemI11wxsComboBoxED1Ev @2542
    _ZN15wxsRegisterItemI11wxsGLCanvasE7OnBuildEP14wxsItemResData @2543
    _ZN15wxsRegisterItemI11wxsGLCanvasEC1E8wxString11wxsItemTypeS2_lb @2544
    _ZN15wxsRegisterItemI11wxsGLCanvasED0Ev @2545
    _ZN15wxsRegisterItemI11wxsGLCanvasED1Ev @2546
    _ZN15wxsRegisterItemI11wxsListCtrlE7OnBuildEP14wxsItemResData @2547
    _ZN15wxsRegisterItemI11wxsListCtrlEC1E8wxString11wxsItemTypeS2_lb @2548
    _ZN15wxsRegisterItemI11wxsListCtrlED0Ev @2549
    _ZN15wxsRegisterItemI11wxsListCtrlED1Ev @2550
    _ZN15wxsRegisterItemI11wxsListViewE7OnBuildEP14wxsItemResData @2551
    _ZN15wxsRegisterItemI11wxsListViewEC1E8wxString11wxsItemTypeS2_lb @2552
    _ZN15wxsRegisterItemI11wxsListViewED0Ev @2553
    _ZN15wxsRegisterItemI11wxsListViewED1Ev @2554
    _ZN15wxsRegisterItemI11wxsListbookE7OnBuildEP14wxsItemResData @2555
    _ZN15wxsRegisterItemI11wxsListbookEC1E8wxString11wxsItemTypeS2_lb @2556
    _ZN15wxsRegisterItemI11wxsListbookED0Ev @2557
    _ZN15wxsRegisterItemI11wxsListbookED1Ev @2558
    _ZN15wxsRegisterItemI11wxsNotebookE7OnBuildEP14wxsItemResData @2559
    _ZN15wxsRegisterItemI11wxsNotebookEC1E8wxString11wxsItemTypeS2_lb @2560
    _ZN15wxsRegisterItemI11wxsNotebookED0Ev @2561
    _ZN15wxsRegisterItemI11wxsNotebookED1Ev @2562
    _ZN15wxsRegisterItemI11wxsRadioBoxE7OnBuildEP14wxsItemResData @2563
    _ZN15wxsRegisterItemI11wxsRadioBoxEC1E8wxString11wxsItemTypeS2_lb @2564
    _ZN15wxsRegisterItemI11wxsRadioBoxED0Ev @2565
    _ZN15wxsRegisterItemI11wxsRadioBoxED1Ev @2566
    _ZN15wxsRegisterItemI11wxsSpinCtrlE7OnBuildEP14wxsItemResData @2567
    _ZN15wxsRegisterItemI11wxsSpinCtrlEC1E8wxString11wxsItemTypeS2_lb @2568
    _ZN15wxsRegisterItemI11wxsSpinCtrlED0Ev @2569
    _ZN15wxsRegisterItemI11wxsSpinCtrlED1Ev @2570
    _ZN15wxsRegisterItemI11wxsTextCtrlE7OnBuildEP14wxsItemResData @2571
    _ZN15wxsRegisterItemI11wxsTextCtrlEC1E8wxString11wxsItemTypeS2_lb @2572
    _ZN15wxsRegisterItemI11wxsTextCtrlED0Ev @2573
    _ZN15wxsRegisterItemI11wxsTextCtrlED1Ev @2574
    _ZN15wxsRegisterItemI11wxsTreeCtrlE7OnBuildEP14wxsItemResData @2575
    _ZN15wxsRegisterItemI11wxsTreeCtrlEC1E8wxString11wxsItemTypeS2_lb @2576
    _ZN15wxsRegisterItemI11wxsTreeCtrlED0Ev @2577
    _ZN15wxsRegisterItemI11wxsTreeCtrlED1Ev @2578
    _ZN15wxsRegisterItemI11wxsTreebookE7OnBuildEP14wxsItemResData @2579
    _ZN15wxsRegisterItemI11wxsTreebookEC1E8wxString11wxsItemTypeS2_lb @2580
    _ZN15wxsRegisterItemI11wxsTreebookED0Ev @2581
    _ZN15wxsRegisterItemI11wxsTreebookED1Ev @2582
    _ZN15wxsRegisterItemI12wxsDirDialogE7OnBuildEP14wxsItemResData @2583
    _ZN15wxsRegisterItemI12wxsDirDialogEC1E8wxString11wxsItemTypeS2_lb @2584
    _ZN15wxsRegisterItemI12wxsDirDialogED0Ev @2585
    _ZN15wxsRegisterItemI12wxsDirDialogED1Ev @2586
    _ZN15wxsRegisterItemI12wxsGridSizerE7OnBuildEP14wxsItemResData @2587
    _ZN15wxsRegisterItemI12wxsGridSizerEC1E8wxString11wxsItemTypeS2_lb @2588
    _ZN15wxsRegisterItemI12wxsGridSizerED0Ev @2589
    _ZN15wxsRegisterItemI12wxsGridSizerED1Ev @2590
    _ZN15wxsRegisterItemI12wxsImageListE7OnBuildEP14wxsItemResData @2591
    _ZN15wxsRegisterItemI12wxsImageListEC1E8wxString11wxsItemTypeS2_lb @2592
    _ZN15wxsRegisterItemI12wxsImageListED0Ev @2593
    _ZN15wxsRegisterItemI12wxsImageListED1Ev @2594
    _ZN15wxsRegisterItemI12wxsScrollBarE7OnBuildEP14wxsItemResData @2595
    _ZN15wxsRegisterItemI12wxsScrollBarEC1E8wxString11wxsItemTypeS2_lb @2596
    _ZN15wxsRegisterItemI12wxsScrollBarED0Ev @2597
    _ZN15wxsRegisterItemI12wxsScrollBarED1Ev @2598
    _ZN15wxsRegisterItemI12wxsStaticBoxE7OnBuildEP14wxsItemResData @2599
    _ZN15wxsRegisterItemI12wxsStaticBoxEC1E8wxString11wxsItemTypeS2_lb @2600
    _ZN15wxsRegisterItemI12wxsStaticBoxED0Ev @2601
    _ZN15wxsRegisterItemI12wxsStaticBoxED1Ev @2602
    _ZN15wxsRegisterItemI12wxsStatusBarE7OnBuildEP14wxsItemResData @2603
    _ZN15wxsRegisterItemI12wxsStatusBarEC1E8wxString11wxsItemTypeS2_lb @2604
    _ZN15wxsRegisterItemI12wxsStatusBarED0Ev @2605
    _ZN15wxsRegisterItemI12wxsStatusBarED1Ev @2606
    _ZN15wxsRegisterItemI12wxsStopWatchE7OnBuildEP14wxsItemResData @2607
    _ZN15wxsRegisterItemI12wxsStopWatchEC1E8wxString11wxsItemTypeS2_lb @2608
    _ZN15wxsRegisterItemI12wxsStopWatchED0Ev @2609
    _ZN15wxsRegisterItemI12wxsStopWatchED1Ev @2610
    _ZN15wxsRegisterItemI13wxsChoicebookE7OnBuildEP14wxsItemResData @2611
    _ZN15wxsRegisterItemI13wxsChoicebookEC1E8wxString11wxsItemTypeS2_lb @2612
    _ZN15wxsRegisterItemI13wxsChoicebookED0Ev @2613
    _ZN15wxsRegisterItemI13wxsChoicebookED1Ev @2614
    _ZN15wxsRegisterItemI13wxsFileDialogE7OnBuildEP14wxsItemResData @2615
    _ZN15wxsRegisterItemI13wxsFileDialogEC1E8wxString11wxsItemTypeS2_lb @2616
    _ZN15wxsRegisterItemI13wxsFileDialogED0Ev @2617
    _ZN15wxsRegisterItemI13wxsFileDialogED1Ev @2618
    _ZN15wxsRegisterItemI13wxsFontDialogE7OnBuildEP14wxsItemResData @2619
    _ZN15wxsRegisterItemI13wxsFontDialogEC1E8wxString11wxsItemTypeS2_lb @2620
    _ZN15wxsRegisterItemI13wxsFontDialogED0Ev @2621
    _ZN15wxsRegisterItemI13wxsFontDialogED1Ev @2622
    _ZN15wxsRegisterItemI13wxsHtmlWindowE7OnBuildEP14wxsItemResData @2623
    _ZN15wxsRegisterItemI13wxsHtmlWindowEC1E8wxString11wxsItemTypeS2_lb @2624
    _ZN15wxsRegisterItemI13wxsHtmlWindowED0Ev @2625
    _ZN15wxsRegisterItemI13wxsHtmlWindowED1Ev @2626
    _ZN15wxsRegisterItemI13wxsSashWindowE7OnBuildEP14wxsItemResData @2627
    _ZN15wxsRegisterItemI13wxsSashWindowEC1E8wxString11wxsItemTypeS2_lb @2628
    _ZN15wxsRegisterItemI13wxsSashWindowED0Ev @2629
    _ZN15wxsRegisterItemI13wxsSashWindowED1Ev @2630
    _ZN15wxsRegisterItemI13wxsSearchCtrlE7OnBuildEP14wxsItemResData @2631
    _ZN15wxsRegisterItemI13wxsSearchCtrlEC1E8wxString11wxsItemTypeS2_lb @2632
    _ZN15wxsRegisterItemI13wxsSearchCtrlED0Ev @2633
    _ZN15wxsRegisterItemI13wxsSearchCtrlED1Ev @2634
    _ZN15wxsRegisterItemI13wxsSpinButtonE7OnBuildEP14wxsItemResData @2635
    _ZN15wxsRegisterItemI13wxsSpinButtonEC1E8wxString11wxsItemTypeS2_lb @2636
    _ZN15wxsRegisterItemI13wxsSpinButtonED0Ev @2637
    _ZN15wxsRegisterItemI13wxsSpinButtonED1Ev @2638
    _ZN15wxsRegisterItemI13wxsStaticLineE7OnBuildEP14wxsItemResData @2639
    _ZN15wxsRegisterItemI13wxsStaticLineEC1E8wxString11wxsItemTypeS2_lb @2640
    _ZN15wxsRegisterItemI13wxsStaticLineED0Ev @2641
    _ZN15wxsRegisterItemI13wxsStaticLineED1Ev @2642
    _ZN15wxsRegisterItemI13wxsStaticTextE7OnBuildEP14wxsItemResData @2643
    _ZN15wxsRegisterItemI13wxsStaticTextEC1E8wxString11wxsItemTypeS2_lb @2644
    _ZN15wxsRegisterItemI13wxsStaticTextED0Ev @2645
    _ZN15wxsRegisterItemI13wxsStaticTextED1Ev @2646
    _ZN15wxsRegisterItemI14wxsPrintDialogE7OnBuildEP14wxsItemResData @2647
    _ZN15wxsRegisterItemI14wxsPrintDialogEC1E8wxString11wxsItemTypeS2_lb @2648
    _ZN15wxsRegisterItemI14wxsPrintDialogED0Ev @2649
    _ZN15wxsRegisterItemI14wxsPrintDialogED1Ev @2650
    _ZN15wxsRegisterItemI14wxsRadioButtonE7OnBuildEP14wxsItemResData @2651
    _ZN15wxsRegisterItemI14wxsRadioButtonEC1E8wxString11wxsItemTypeS2_lb @2652
    _ZN15wxsRegisterItemI14wxsRadioButtonED0Ev @2653
    _ZN15wxsRegisterItemI14wxsRadioButtonED1Ev @2654
    _ZN15wxsRegisterItemI15wxsBitmapButtonE7OnBuildEP14wxsItemResData @2655
    _ZN15wxsRegisterItemI15wxsBitmapButtonEC1E8wxString11wxsItemTypeS2_lb @2656
    _ZN15wxsRegisterItemI15wxsBitmapButtonED0Ev @2657
    _ZN15wxsRegisterItemI15wxsBitmapButtonED1Ev @2658
    _ZN15wxsRegisterItemI15wxsCalendarCtrlE7OnBuildEP14wxsItemResData @2659
    _ZN15wxsRegisterItemI15wxsCalendarCtrlEC1E8wxString11wxsItemTypeS2_lb @2660
    _ZN15wxsRegisterItemI15wxsCalendarCtrlED0Ev @2661
    _ZN15wxsRegisterItemI15wxsCalendarCtrlED1Ev @2662
    _ZN15wxsRegisterItemI15wxsCheckListBoxE7OnBuildEP14wxsItemResData @2663
    _ZN15wxsRegisterItemI15wxsCheckListBoxEC1E8wxString11wxsItemTypeS2_lb @2664
    _ZN15wxsRegisterItemI15wxsCheckListBoxED0Ev @2665
    _ZN15wxsRegisterItemI15wxsCheckListBoxED1Ev @2666
    _ZN15wxsRegisterItemI15wxsColourDialogE7OnBuildEP14wxsItemResData @2667
    _ZN15wxsRegisterItemI15wxsColourDialogEC1E8wxString11wxsItemTypeS2_lb @2668
    _ZN15wxsRegisterItemI15wxsColourDialogED0Ev @2669
    _ZN15wxsRegisterItemI15wxsColourDialogED1Ev @2670
    _ZN15wxsRegisterItemI15wxsCustomWidgetE7OnBuildEP14wxsItemResData @2671
    _ZN15wxsRegisterItemI15wxsCustomWidgetEC1E8wxString11wxsItemTypeS2_S2_S2_S2_S2_lS2_lttS2_S2_b @2672
    _ZN15wxsRegisterItemI15wxsCustomWidgetED0Ev @2673
    _ZN15wxsRegisterItemI15wxsCustomWidgetED1Ev @2674
    _ZN15wxsRegisterItemI15wxsRichTextCtrlE7OnBuildEP14wxsItemResData @2675
    _ZN15wxsRegisterItemI15wxsRichTextCtrlEC1E8wxString11wxsItemTypeS2_lb @2676
    _ZN15wxsRegisterItemI15wxsRichTextCtrlED0Ev @2677
    _ZN15wxsRegisterItemI15wxsRichTextCtrlED1Ev @2678
    _ZN15wxsRegisterItemI15wxsStaticBitmapE7OnBuildEP14wxsItemResData @2679
    _ZN15wxsRegisterItemI15wxsStaticBitmapEC1E8wxString11wxsItemTypeS2_lb @2680
    _ZN15wxsRegisterItemI15wxsStaticBitmapED0Ev @2681
    _ZN15wxsRegisterItemI15wxsStaticBitmapED1Ev @2682
    _ZN15wxsRegisterItemI15wxsToggleButtonE7OnBuildEP14wxsItemResData @2683
    _ZN15wxsRegisterItemI15wxsToggleButtonEC1E8wxString11wxsItemTypeS2_lb @2684
    _ZN15wxsRegisterItemI15wxsToggleButtonED0Ev @2685
    _ZN15wxsRegisterItemI15wxsToggleButtonED1Ev @2686
    _ZN15wxsRegisterItemI16wxsAnimationCtrlE7OnBuildEP14wxsItemResData @2687
    _ZN15wxsRegisterItemI16wxsAnimationCtrlEC1E8wxString11wxsItemTypeS2_lb @2688
    _ZN15wxsRegisterItemI16wxsAnimationCtrlED0Ev @2689
    _ZN15wxsRegisterItemI16wxsAnimationCtrlED1Ev @2690
    _ZN15wxsRegisterItemI16wxsDialUpManagerE7OnBuildEP14wxsItemResData @2691
    _ZN15wxsRegisterItemI16wxsDialUpManagerEC1E8wxString11wxsItemTypeS2_lb @2692
    _ZN15wxsRegisterItemI16wxsDialUpManagerED0Ev @2693
    _ZN15wxsRegisterItemI16wxsDialUpManagerED1Ev @2694
    _ZN15wxsRegisterItemI16wxsDirPickerCtrlE7OnBuildEP14wxsItemResData @2695
    _ZN15wxsRegisterItemI16wxsDirPickerCtrlEC1E8wxString11wxsItemTypeS2_lb @2696
    _ZN15wxsRegisterItemI16wxsDirPickerCtrlED0Ev @2697
    _ZN15wxsRegisterItemI16wxsDirPickerCtrlED1Ev @2698
    _ZN15wxsRegisterItemI16wxsFlexGridSizerE7OnBuildEP14wxsItemResData @2699
    _ZN15wxsRegisterItemI16wxsFlexGridSizerEC1E8wxString11wxsItemTypeS2_lb @2700
    _ZN15wxsRegisterItemI16wxsFlexGridSizerED0Ev @2701
    _ZN15wxsRegisterItemI16wxsFlexGridSizerED1Ev @2702
    _ZN15wxsRegisterItemI16wxsHyperlinkCtrlE7OnBuildEP14wxsItemResData @2703
    _ZN15wxsRegisterItemI16wxsHyperlinkCtrlEC1E8wxString11wxsItemTypeS2_lb @2704
    _ZN15wxsRegisterItemI16wxsHyperlinkCtrlED0Ev @2705
    _ZN15wxsRegisterItemI16wxsHyperlinkCtrlED1Ev @2706
    _ZN15wxsRegisterItemI16wxsMessageDialogE7OnBuildEP14wxsItemResData @2707
    _ZN15wxsRegisterItemI16wxsMessageDialogEC1E8wxString11wxsItemTypeS2_lb @2708
    _ZN15wxsRegisterItemI16wxsMessageDialogED0Ev @2709
    _ZN15wxsRegisterItemI16wxsMessageDialogED1Ev @2710
    _ZN15wxsRegisterItemI17wxsBitmapComboBoxE7OnBuildEP14wxsItemResData @2711
    _ZN15wxsRegisterItemI17wxsBitmapComboBoxEC1E8wxString11wxsItemTypeS2_lb @2712
    _ZN15wxsRegisterItemI17wxsBitmapComboBoxED0Ev @2713
    _ZN15wxsRegisterItemI17wxsBitmapComboBoxED1Ev @2714
    _ZN15wxsRegisterItemI17wxsDatePickerCtrlE7OnBuildEP14wxsItemResData @2715
    _ZN15wxsRegisterItemI17wxsDatePickerCtrlEC1E8wxString11wxsItemTypeS2_lb @2716
    _ZN15wxsRegisterItemI17wxsDatePickerCtrlED0Ev @2717
    _ZN15wxsRegisterItemI17wxsDatePickerCtrlED1Ev @2718
    _ZN15wxsRegisterItemI17wxsFilePickerCtrlE7OnBuildEP14wxsItemResData @2719
    _ZN15wxsRegisterItemI17wxsFilePickerCtrlEC1E8wxString11wxsItemTypeS2_lb @2720
    _ZN15wxsRegisterItemI17wxsFilePickerCtrlED0Ev @2721
    _ZN15wxsRegisterItemI17wxsFilePickerCtrlED1Ev @2722
    _ZN15wxsRegisterItemI17wxsFontPickerCtrlE7OnBuildEP14wxsItemResData @2723
    _ZN15wxsRegisterItemI17wxsFontPickerCtrlEC1E8wxString11wxsItemTypeS2_lb @2724
    _ZN15wxsRegisterItemI17wxsFontPickerCtrlED0Ev @2725
    _ZN15wxsRegisterItemI17wxsFontPickerCtrlED1Ev @2726
    _ZN15wxsRegisterItemI17wxsGenericDirCtrlE7OnBuildEP14wxsItemResData @2727
    _ZN15wxsRegisterItemI17wxsGenericDirCtrlEC1E8wxString11wxsItemTypeS2_lb @2728
    _ZN15wxsRegisterItemI17wxsGenericDirCtrlED0Ev @2729
    _ZN15wxsRegisterItemI17wxsGenericDirCtrlED1Ev @2730
    _ZN15wxsRegisterItemI17wxsProgressDialogE7OnBuildEP14wxsItemResData @2731
    _ZN15wxsRegisterItemI17wxsProgressDialogEC1E8wxString11wxsItemTypeS2_lb @2732
    _ZN15wxsRegisterItemI17wxsProgressDialogED0Ev @2733
    _ZN15wxsRegisterItemI17wxsProgressDialogED1Ev @2734
    _ZN15wxsRegisterItemI17wxsScrolledWindowE7OnBuildEP14wxsItemResData @2735
    _ZN15wxsRegisterItemI17wxsScrolledWindowEC1E8wxString11wxsItemTypeS2_lb @2736
    _ZN15wxsRegisterItemI17wxsScrolledWindowED0Ev @2737
    _ZN15wxsRegisterItemI17wxsScrolledWindowED1Ev @2738
    _ZN15wxsRegisterItemI17wxsSplitterWindowE7OnBuildEP14wxsItemResData @2739
    _ZN15wxsRegisterItemI17wxsSplitterWindowEC1E8wxString11wxsItemTypeS2_lb @2740
    _ZN15wxsRegisterItemI17wxsSplitterWindowED0Ev @2741
    _ZN15wxsRegisterItemI17wxsSplitterWindowED1Ev @2742
    _ZN15wxsRegisterItemI17wxsStaticBoxSizerE7OnBuildEP14wxsItemResData @2743
    _ZN15wxsRegisterItemI17wxsStaticBoxSizerEC1E8wxString11wxsItemTypeS2_lb @2744
    _ZN15wxsRegisterItemI17wxsStaticBoxSizerED0Ev @2745
    _ZN15wxsRegisterItemI17wxsStaticBoxSizerED1Ev @2746
    _ZN15wxsRegisterItemI18wxsPageSetupDialogE7OnBuildEP14wxsItemResData @2747
    _ZN15wxsRegisterItemI18wxsPageSetupDialogEC1E8wxString11wxsItemTypeS2_lb @2748
    _ZN15wxsRegisterItemI18wxsPageSetupDialogED0Ev @2749
    _ZN15wxsRegisterItemI18wxsPageSetupDialogED1Ev @2750
    _ZN15wxsRegisterItemI18wxsScrollingDialogE7OnBuildEP14wxsItemResData @2751
    _ZN15wxsRegisterItemI18wxsScrollingDialogEC1E8wxString11wxsItemTypeS2_lb @2752
    _ZN15wxsRegisterItemI18wxsScrollingDialogED0Ev @2753
    _ZN15wxsRegisterItemI18wxsScrollingDialogED1Ev @2754
    _ZN15wxsRegisterItemI18wxsTextEntryDialogE7OnBuildEP14wxsItemResData @2755
    _ZN15wxsRegisterItemI18wxsTextEntryDialogEC1E8wxString11wxsItemTypeS2_lb @2756
    _ZN15wxsRegisterItemI18wxsTextEntryDialogED0Ev @2757
    _ZN15wxsRegisterItemI18wxsTextEntryDialogED1Ev @2758
    _ZN15wxsRegisterItemI19wxsColourPickerCtrlE7OnBuildEP14wxsItemResData @2759
    _ZN15wxsRegisterItemI19wxsColourPickerCtrlEC1E8wxString11wxsItemTypeS2_lb @2760
    _ZN15wxsRegisterItemI19wxsColourPickerCtrlED0Ev @2761
    _ZN15wxsRegisterItemI19wxsColourPickerCtrlED1Ev @2762
    _ZN15wxsRegisterItemI19wxsHtmlEasyPrintingE7OnBuildEP14wxsItemResData @2763
    _ZN15wxsRegisterItemI19wxsHtmlEasyPrintingEC1E8wxString11wxsItemTypeS2_lb @2764
    _ZN15wxsRegisterItemI19wxsHtmlEasyPrintingED0Ev @2765
    _ZN15wxsRegisterItemI19wxsHtmlEasyPrintingED1Ev @2766
    _ZN15wxsRegisterItemI19wxsSashLayoutWindowE7OnBuildEP14wxsItemResData @2767
    _ZN15wxsRegisterItemI19wxsSashLayoutWindowEC1E8wxString11wxsItemTypeS2_lb @2768
    _ZN15wxsRegisterItemI19wxsSashLayoutWindowED0Ev @2769
    _ZN15wxsRegisterItemI19wxsSashLayoutWindowED1Ev @2770
    _ZN15wxsRegisterItemI20wxsContextHelpButtonE7OnBuildEP14wxsItemResData @2771
    _ZN15wxsRegisterItemI20wxsContextHelpButtonEC1E8wxString11wxsItemTypeS2_lb @2772
    _ZN15wxsRegisterItemI20wxsContextHelpButtonED0Ev @2773
    _ZN15wxsRegisterItemI20wxsContextHelpButtonED1Ev @2774
    _ZN15wxsRegisterItemI20wxsFindReplaceDialogE7OnBuildEP14wxsItemResData @2775
    _ZN15wxsRegisterItemI20wxsFindReplaceDialogEC1E8wxString11wxsItemTypeS2_lb @2776
    _ZN15wxsRegisterItemI20wxsFindReplaceDialogED0Ev @2777
    _ZN15wxsRegisterItemI20wxsFindReplaceDialogED1Ev @2778
    _ZN15wxsRegisterItemI20wxsMultiChoiceDialogE7OnBuildEP14wxsItemResData @2779
    _ZN15wxsRegisterItemI20wxsMultiChoiceDialogEC1E8wxString11wxsItemTypeS2_lb @2780
    _ZN15wxsRegisterItemI20wxsMultiChoiceDialogED0Ev @2781
    _ZN15wxsRegisterItemI20wxsMultiChoiceDialogED1Ev @2782
    _ZN15wxsRegisterItemI20wxsSimpleHtmlListBoxE7OnBuildEP14wxsItemResData @2783
    _ZN15wxsRegisterItemI20wxsSimpleHtmlListBoxEC1E8wxString11wxsItemTypeS2_lb @2784
    _ZN15wxsRegisterItemI20wxsSimpleHtmlListBoxED0Ev @2785
    _ZN15wxsRegisterItemI20wxsSimpleHtmlListBoxED1Ev @2786
    _ZN15wxsRegisterItemI21wxsSingleChoiceDialogE7OnBuildEP14wxsItemResData @2787
    _ZN15wxsRegisterItemI21wxsSingleChoiceDialogEC1E8wxString11wxsItemTypeS2_lb @2788
    _ZN15wxsRegisterItemI21wxsSingleChoiceDialogED0Ev @2789
    _ZN15wxsRegisterItemI21wxsSingleChoiceDialogED1Ev @2790
    _ZN15wxsRegisterItemI21wxsSymbolPickerDialogE7OnBuildEP14wxsItemResData @2791
    _ZN15wxsRegisterItemI21wxsSymbolPickerDialogEC1E8wxString11wxsItemTypeS2_lb @2792
    _ZN15wxsRegisterItemI21wxsSymbolPickerDialogED0Ev @2793
    _ZN15wxsRegisterItemI21wxsSymbolPickerDialogED1Ev @2794
    _ZN15wxsRegisterItemI22wxsPasswordEntryDialogE7OnBuildEP14wxsItemResData @2795
    _ZN15wxsRegisterItemI22wxsPasswordEntryDialogEC1E8wxString11wxsItemTypeS2_lb @2796
    _ZN15wxsRegisterItemI22wxsPasswordEntryDialogED0Ev @2797
    _ZN15wxsRegisterItemI22wxsPasswordEntryDialogED1Ev @2798
    _ZN15wxsRegisterItemI23wxsRichTextStyleListBoxE7OnBuildEP14wxsItemResData @2799
    _ZN15wxsRegisterItemI23wxsRichTextStyleListBoxEC1E8wxString11wxsItemTypeS2_lb @2800
    _ZN15wxsRegisterItemI23wxsRichTextStyleListBoxED0Ev @2801
    _ZN15wxsRegisterItemI23wxsRichTextStyleListBoxED1Ev @2802
    _ZN15wxsRegisterItemI23wxsStdDialogButtonSizerE7OnBuildEP14wxsItemResData @2803
    _ZN15wxsRegisterItemI23wxsStdDialogButtonSizerEC1E8wxString11wxsItemTypeS2_lb @2804
    _ZN15wxsRegisterItemI23wxsStdDialogButtonSizerED0Ev @2805
    _ZN15wxsRegisterItemI23wxsStdDialogButtonSizerED1Ev @2806
    _ZN15wxsRegisterItemI24wxsRichTextStyleListCtrlE7OnBuildEP14wxsItemResData @2807
    _ZN15wxsRegisterItemI24wxsRichTextStyleListCtrlEC1E8wxString11wxsItemTypeS2_lb @2808
    _ZN15wxsRegisterItemI24wxsRichTextStyleListCtrlED0Ev @2809
    _ZN15wxsRegisterItemI24wxsRichTextStyleListCtrlED1Ev @2810
    _ZN15wxsRegisterItemI24wxsSingleInstanceCheckerE7OnBuildEP14wxsItemResData @2811
    _ZN15wxsRegisterItemI24wxsSingleInstanceCheckerEC1E8wxString11wxsItemTypeS2_lb @2812
    _ZN15wxsRegisterItemI24wxsSingleInstanceCheckerED0Ev @2813
    _ZN15wxsRegisterItemI24wxsSingleInstanceCheckerED1Ev @2814
    _ZN15wxsRegisterItemI25wxsRichTextStyleComboCtrlE7OnBuildEP14wxsItemResData @2815
    _ZN15wxsRegisterItemI25wxsRichTextStyleComboCtrlEC1E8wxString11wxsItemTypeS2_lb @2816
    _ZN15wxsRegisterItemI25wxsRichTextStyleComboCtrlED0Ev @2817
    _ZN15wxsRegisterItemI25wxsRichTextStyleComboCtrlED1Ev @2818
    _ZN15wxsRegisterItemI27wxsRichTextFormattingDialogE7OnBuildEP14wxsItemResData @2819
    _ZN15wxsRegisterItemI27wxsRichTextFormattingDialogEC1E8wxString11wxsItemTypeS2_lb @2820
    _ZN15wxsRegisterItemI27wxsRichTextFormattingDialogED0Ev @2821
    _ZN15wxsRegisterItemI27wxsRichTextFormattingDialogED1Ev @2822
    _ZN15wxsRegisterItemI31wxsRichTextStyleOrganiserDialogE7OnBuildEP14wxsItemResData @2823
    _ZN15wxsRegisterItemI31wxsRichTextStyleOrganiserDialogEC1E8wxString11wxsItemTypeS2_lb @2824
    _ZN15wxsRegisterItemI31wxsRichTextStyleOrganiserDialogED0Ev @2825
    _ZN15wxsRegisterItemI31wxsRichTextStyleOrganiserDialogED1Ev @2826
    _ZN15wxsRegisterItemI7wxsGridE7OnBuildEP14wxsItemResData @2827
    _ZN15wxsRegisterItemI7wxsGridEC1E8wxString11wxsItemTypeS2_lb @2828
    _ZN15wxsRegisterItemI7wxsGridED0Ev @2829
    _ZN15wxsRegisterItemI7wxsGridED1Ev @2830
    _ZN15wxsRegisterItemI7wxsMenuE7OnBuildEP14wxsItemResData @2831
    _ZN15wxsRegisterItemI7wxsMenuEC1E8wxString11wxsItemTypeS2_lb @2832
    _ZN15wxsRegisterItemI7wxsMenuED0Ev @2833
    _ZN15wxsRegisterItemI7wxsMenuED1Ev @2834
    _ZN15wxsRegisterItemI8wxsFrameE7OnBuildEP14wxsItemResData @2835
    _ZN15wxsRegisterItemI8wxsFrameEC1E8wxString11wxsItemTypeS2_lb @2836
    _ZN15wxsRegisterItemI8wxsFrameED0Ev @2837
    _ZN15wxsRegisterItemI8wxsFrameED1Ev @2838
    _ZN15wxsRegisterItemI8wxsGaugeE7OnBuildEP14wxsItemResData @2839
    _ZN15wxsRegisterItemI8wxsGaugeEC1E8wxString11wxsItemTypeS2_lb @2840
    _ZN15wxsRegisterItemI8wxsGaugeED0Ev @2841
    _ZN15wxsRegisterItemI8wxsGaugeED1Ev @2842
    _ZN15wxsRegisterItemI8wxsImageE7OnBuildEP14wxsItemResData @2843
    _ZN15wxsRegisterItemI8wxsImageEC1E8wxString11wxsItemTypeS2_lb @2844
    _ZN15wxsRegisterItemI8wxsImageED0Ev @2845
    _ZN15wxsRegisterItemI8wxsImageED1Ev @2846
    _ZN15wxsRegisterItemI8wxsPanelE7OnBuildEP14wxsItemResData @2847
    _ZN15wxsRegisterItemI8wxsPanelEC1E8wxString11wxsItemTypeS2_lb @2848
    _ZN15wxsRegisterItemI8wxsPanelED0Ev @2849
    _ZN15wxsRegisterItemI8wxsPanelED1Ev @2850
    _ZN15wxsRegisterItemI8wxsTimerE7OnBuildEP14wxsItemResData @2851
    _ZN15wxsRegisterItemI8wxsTimerEC1E8wxString11wxsItemTypeS2_lb @2852
    _ZN15wxsRegisterItemI8wxsTimerED0Ev @2853
    _ZN15wxsRegisterItemI8wxsTimerED1Ev @2854
    _ZN15wxsRegisterItemI9wxsButtonE7OnBuildEP14wxsItemResData @2855
    _ZN15wxsRegisterItemI9wxsButtonEC1E8wxString11wxsItemTypeS2_lb @2856
    _ZN15wxsRegisterItemI9wxsButtonED0Ev @2857
    _ZN15wxsRegisterItemI9wxsButtonED1Ev @2858
    _ZN15wxsRegisterItemI9wxsChoiceE7OnBuildEP14wxsItemResData @2859
    _ZN15wxsRegisterItemI9wxsChoiceEC1E8wxString11wxsItemTypeS2_lb @2860
    _ZN15wxsRegisterItemI9wxsChoiceED0Ev @2861
    _ZN15wxsRegisterItemI9wxsChoiceED1Ev @2862
    _ZN15wxsRegisterItemI9wxsDialogE7OnBuildEP14wxsItemResData @2863
    _ZN15wxsRegisterItemI9wxsDialogEC1E8wxString11wxsItemTypeS2_lb @2864
    _ZN15wxsRegisterItemI9wxsDialogED0Ev @2865
    _ZN15wxsRegisterItemI9wxsDialogED1Ev @2866
    _ZN15wxsRegisterItemI9wxsSliderE7OnBuildEP14wxsItemResData @2867
    _ZN15wxsRegisterItemI9wxsSliderEC1E8wxString11wxsItemTypeS2_lb @2868
    _ZN15wxsRegisterItemI9wxsSliderED0Ev @2869
    _ZN15wxsRegisterItemI9wxsSliderED1Ev @2870
    _ZN15wxsRegisterItemI9wxsSpacerE7OnBuildEP14wxsItemResData @2871
    _ZN15wxsRegisterItemI9wxsSpacerEC1E8wxString11wxsItemTypeS2_S2_S2_S2_S2_lS2_lttS2_S2_b @2872
    _ZN15wxsRegisterItemI9wxsSpacerED0Ev @2873
    _ZN15wxsRegisterItemI9wxsSpacerED1Ev @2874
    _ZN15wxsResourceTree11BlockSelectEv @2875
    _ZN15wxsResourceTree11InsertImageERK8wxBitmap @2876
    _ZN15wxsResourceTree11OnPopupMenuER14wxCommandEvent @2877
    _ZN15wxsResourceTree11m_SingletonE @2878 DATA
    _ZN15wxsResourceTree12GetFreedListEv @2879
    _ZN15wxsResourceTree12OnRightClickER11wxTreeEvent @2880
    _ZN15wxsResourceTree13UnblockSelectEv @2881
    _ZN15wxsResourceTree13m_RootImageIdE @2882 DATA
    _ZN15wxsResourceTree13sm_eventTableE @2883 DATA
    _ZN15wxsResourceTree14NewProjectItemERK8wxStringP10wxsProject @2884
    _ZN15wxsResourceTree16m_ProjectImageIdE @2885 DATA
    _ZN15wxsResourceTree17m_ExternalImageIdE @2886 DATA
    _ZN15wxsResourceTree17sm_eventHashTableE @2887 DATA
    _ZN15wxsResourceTree18GetGlobalImageListEv @2888
    _ZN15wxsResourceTree18InvalidateItemDataEP23wxsResourceTreeItemData @2889
    _ZN15wxsResourceTree19ExternalResourcesIdEv @2890
    _ZN15wxsResourceTree20sm_eventTableEntriesE @2891 DATA
    _ZN15wxsResourceTree25DeleteExternalResourcesIdEv @2892
    _ZN15wxsResourceTree3GetEv @2893
    _ZN15wxsResourceTree8OnSelectER11wxTreeEvent @2894
    _ZN15wxsResourceTree9FreeImageEi @2895
    _ZN15wxsResourceTree9LoadImageERK8wxString @2896
    _ZN15wxsResourceTree9PopupMenuEP6wxMenuP23wxsResourceTreeItemData @2897
    _ZN15wxsResourceTreeC1EP8wxWindow @2898
    _ZN15wxsResourceTreeC2EP8wxWindow @2899
    _ZN15wxsResourceTreeD0Ev @2900
    _ZN15wxsResourceTreeD1Ev @2901
    _ZN15wxsResourceTreeD2Ev @2902
    _ZN15wxsRichTextCtrl14OnBuildPreviewEP8wxWindowl @2903
    _ZN15wxsRichTextCtrl19OnBuildCreatingCodeEv @2904
    _ZN15wxsRichTextCtrl22OnEnumWidgetPropertiesEl @2905
    _ZN15wxsRichTextCtrlC1EP14wxsItemResData @2906
    _ZN15wxsRichTextCtrlC2EP14wxsItemResData @2907
    _ZN15wxsRichTextCtrlD0Ev @2908
    _ZN15wxsRichTextCtrlD1Ev @2909
    _ZN15wxsStaticBitmap14OnBuildPreviewEP8wxWindowl @2910
    _ZN15wxsStaticBitmap19OnBuildCreatingCodeEv @2911
    _ZN15wxsStaticBitmap22OnEnumWidgetPropertiesEl @2912
    _ZN15wxsStaticBitmapC1EP14wxsItemResData @2913
    _ZN15wxsStaticBitmapC2EP14wxsItemResData @2914
    _ZN15wxsStaticBitmapD0Ev @2915
    _ZN15wxsStaticBitmapD1Ev @2916
    _ZN15wxsToggleButton14OnBuildPreviewEP8wxWindowl @2917
    _ZN15wxsToggleButton19OnBuildCreatingCodeEv @2918
    _ZN15wxsToggleButton22OnEnumWidgetPropertiesEl @2919
    _ZN15wxsToggleButtonC1EP14wxsItemResData @2920
    _ZN15wxsToggleButtonC2EP14wxsItemResData @2921
    _ZN15wxsToggleButtonD0Ev @2922
    _ZN15wxsToggleButtonD1Ev @2923
    _ZN16TiXmlDeclarationD1Ev @2924
    _ZN16cbCompilerPluginD0Ev @2925
    _ZN16cbCompilerPluginD1Ev @2926
    _ZN16cbDebuggerPluginD0Ev @2927
    _ZN16cbDebuggerPluginD1Ev @2928
    _ZN16wxColourProperty12ms_classInfoE @2929 DATA
    _ZN16wxColourProperty14wxCreateObjectEv @2930
    _ZN16wxColourProperty4InitE8wxColour @2931
    _ZN16wxColourPropertyC1ERK8wxStringS2_RK8wxColour @2932
    _ZN16wxColourPropertyC2ERK8wxStringS2_RK8wxColour @2933
    _ZN16wxColourPropertyD0Ev @2934
    _ZN16wxColourPropertyD1Ev @2935
    _ZN16wxColourPropertyD2Ev @2936
    _ZN16wxCursorProperty12ms_classInfoE @2937 DATA
    _ZN16wxCursorProperty13OnCustomPaintER4wxDCRK6wxRectR13wxPGPaintData @2938
    _ZN16wxCursorProperty14wxCreateObjectEv @2939
    _ZN16wxCursorPropertyC1ERK8wxStringS2_i @2940
    _ZN16wxCursorPropertyC2ERK8wxStringS2_i @2941
    _ZN16wxCursorPropertyD0Ev @2942
    _ZN16wxCursorPropertyD1Ev @2943
    _ZN16wxCursorPropertyD2Ev @2944
    _ZN16wxCustomProperty12ms_classInfoE @2945 DATA
    _ZN16wxCustomProperty13GetChoiceInfoEP14wxPGChoiceInfo @2946
    _ZN16wxCustomProperty13OnCustomPaintER4wxDCRK6wxRectR13wxPGPaintData @2947
    _ZN16wxCustomProperty14DoSetAttributeERK8wxStringR9wxVariant @2948
    _ZN16wxCustomProperty14wxCreateObjectEv @2949
    _ZN16wxCustomPropertyC1ERK8wxStringS2_ @2950
    _ZN16wxCustomPropertyC2ERK8wxStringS2_ @2951
    _ZN16wxCustomPropertyD0Ev @2952
    _ZN16wxCustomPropertyD1Ev @2953
    _ZN16wxCustomPropertyD2Ev @2954
    _ZN16wxDatePickerCtrlC1EP8wxWindowiRK10wxDateTimeRK7wxPointRK6wxSizelRK11wxValidatorRK8wxString @2955
    _ZN16wxDatePickerCtrlC1Ev @2956
    _ZN16wxFileDialogBase14SetFilterIndexEi @2957
    _ZN16wxFileDialogBaseD2Ev @2958
    _ZN16wxFilePickerCtrl6CreateEP8wxWindowiRK8wxStringS4_S4_RK7wxPointRK6wxSizelRK11wxValidatorS4_ @2959
    _ZN16wxFilePickerCtrlC1EP8wxWindowiRK8wxStringS4_S4_RK7wxPointRK6wxSizelRK11wxValidatorS4_ @2960
    _ZN16wxFontDialogBase11GetFontDataEv @2961
    _ZN16wxFontDialogBase12InitFontDataEPK10wxFontData @2962
    _ZN16wxFontDialogBase6CreateEP8wxWindow @2963
    _ZN16wxFontDialogBase6CreateEP8wxWindowRK10wxFontData @2964
    _ZN16wxFontDialogBaseC2EP8wxWindowRK10wxFontData @2965
    _ZN16wxFontEnumeratorC1Ev @2966
    _ZN16wxFontEnumeratorD1Ev @2967
    _ZN16wxFontPickerCtrlC1EP8wxWindowiRK6wxFontRK7wxPointRK6wxSizelRK11wxValidatorRK8wxString @2968
    _ZN16wxGenericDirCtrlC1EP8wxWindowiRK8wxStringRK7wxPointRK6wxSizelS4_iS4_ @2969
    _ZN16wxImageHistogramC1Ev @2970
    _ZN16wxImageHistogramD1Ev @2971
    _ZN16wxLongLongNativeC1Eij @2972
    _ZN16wxLongLongNativeC1Ev @2973
    _ZN16wxLongLongNativeC1Ex @2974
    _ZN16wxLongLongNativeaSEi @2975
    _ZN16wxObjectListNodeC1EP10wxListBasePS_S2_P8wxObjectRK9wxListKey @2976
    _ZN16wxPGCellRenderer6DecRefEv @2977
    _ZN16wxPGCellRenderer6IncRefEv @2978
    _ZN16wxPGCellRendererC1Ej @2979
    _ZN16wxPGCellRendererC2Ej @2980
    _ZN16wxPGCellRendererD0Ev @2981
    _ZN16wxPGCellRendererD1Ev @2982
    _ZN16wxPGCellRendererD2Ev @2983
    _ZN16wxPGChoiceEditor12ms_classInfoE @2984 DATA
    _ZN16wxPGChoiceEditor14wxCreateObjectEv @2985
    _ZN16wxPGChoiceEditorC1Ev @2986
    _ZN16wxPGChoiceEditorC2Ev @2987
    _ZN16wxPGChoiceEditorD0Ev @2988
    _ZN16wxPGChoiceEditorD1Ev @2989
    _ZN16wxPGChoiceEditorD2Ev @2990
    _ZN16wxPGRootProperty12ms_classInfoE @2991 DATA
    _ZN16wxPGRootProperty14wxCreateObjectEv @2992
    _ZN16wxPGRootPropertyC1Ev @2993
    _ZN16wxPGRootPropertyC2Ev @2994
    _ZN16wxPGRootPropertyD0Ev @2995
    _ZN16wxPGRootPropertyD1Ev @2996
    _ZN16wxPGRootPropertyD2Ev @2997
    _ZN16wxScrolledWindow16DoSetVirtualSizeEii @2998
    _ZN16wxScrolledWindow6LayoutEv @2999
    _ZN16wxScrolledWindow9PrepareDCER4wxDC @3000
    _ZN16wxScrolledWindowC1EP8wxWindowiRK7wxPointRK6wxSizelRK8wxString @3001
    _ZN16wxScrolledWindowC2EP8wxWindowiRK7wxPointRK6wxSizelRK8wxString @3002
    _ZN16wxScrolledWindowC2Ev @3003
    _ZN16wxSimpleCheckBox12ProcessEventER7wxEvent @3004
    _ZN16wxSimpleCheckBox15ms_doubleBufferE @3005 DATA
    _ZN16wxSimpleCheckBox8SetValueEi @3006
    _ZN16wxSimpleCheckBoxC1EP8wxWindowiRK7wxPointRK6wxSize @3007
    _ZN16wxSimpleCheckBoxD0Ev @3008
    _ZN16wxSimpleCheckBoxD1Ev @3009
    _ZN16wxSimpleCheckBoxD2Ev @3010
    _ZN16wxSpinButtonBase6SetMaxEi @3011
    _ZN16wxSpinButtonBase6SetMinEi @3012
    _ZN16wxSpinButtonBase8SetRangeEii @3013
    _ZN16wxSpinButtonBaseC2Ev @3014
    _ZN16wxSpinButtonBaseD0Ev @3015
    _ZN16wxSpinButtonBaseD1Ev @3016
    _ZN16wxSpinButtonBaseD2Ev @3017
    _ZN16wxSplitterWindowC1EP8wxWindowiRK7wxPointRK6wxSizelRK8wxString @3018
    _ZN16wxStaticLineBase14GetDefaultSizeEv @3019
    _ZN16wxStaticLineBaseC2Ev @3020
    _ZN16wxStaticLineBaseD0Ev @3021
    _ZN16wxStaticLineBaseD1Ev @3022
    _ZN16wxStaticLineBaseD2Ev @3023
    _ZN16wxStaticTextBase24HasTransparentBackgroundEv @3024
    _ZN16wxStaticTextBaseC2Ev @3025
    _ZN16wxStaticTextBaseD0Ev @3026
    _ZN16wxStaticTextBaseD1Ev @3027
    _ZN16wxStaticTextBaseD2Ev @3028
    _ZN16wxStringProperty10OnSetValueEv @3029
    _ZN16wxStringProperty12ms_classInfoE @3030 DATA
    _ZN16wxStringProperty14DoSetAttributeERK8wxStringR9wxVariant @3031
    _ZN16wxStringProperty14wxCreateObjectEv @3032
    _ZN16wxStringPropertyC1ERK8wxStringS2_S2_ @3033
    _ZN16wxStringPropertyC2ERK8wxStringS2_S2_ @3034
    _ZN16wxStringPropertyD0Ev @3035
    _ZN16wxStringPropertyD1Ev @3036
    _ZN16wxStringPropertyD2Ev @3037
    _ZN16wxTextDataObjectC1ERK8wxString @3038
    _ZN16wxTextDataObjectD1Ev @3039
    _ZN16wxTopLevelWindowC2Ev @3040
    _ZN16wxTopLevelWindowD2Ev @3041
    _ZN16wxWindowListNodeC1EP10wxListBasePS_S2_P8wxWindowRK9wxListKey @3042
    _ZN16wxsAnimationCtrl14OnBuildPreviewEP8wxWindowl @3043
    _ZN16wxsAnimationCtrl19OnBuildCreatingCodeEv @3044
    _ZN16wxsAnimationCtrl22OnEnumWidgetPropertiesEl @3045
    _ZN16wxsAnimationCtrlC1EP14wxsItemResData @3046
    _ZN16wxsAnimationCtrlC2EP14wxsItemResData @3047
    _ZN16wxsAnimationCtrlD0Ev @3048
    _ZN16wxsAnimationCtrlD1Ev @3049
    _ZN16wxsCodeGenerator11GetLanguageEv @3050
    _ZN16wxsCodeGenerator12AddEventCodeERK8wxString @3051
    _ZN16wxsCodeGenerator13GetCoderFlagsEv @3052
    _ZN16wxsCodeGenerator13OnUpdateFlagsERl @3053
    _ZN16wxsCodeGenerator14AddDeclarationERK8wxString @3054
    _ZN16wxsCodeGenerator15AddBuildingCodeERK8wxString @3055
    _ZN16wxsCodeGenerator15GetCoderContextEv @3056
    _ZN16wxsCodeGenerator18AddXRCFetchingCodeERK8wxString @3057
    _ZN16wxsCodeGenerator18OnBuildHeadersCodeEv @3058
    _ZN16wxsCodeGenerator9AddHeaderERK8wxStringS2_l @3059
    _ZN16wxsCodeGenerator9AddIdCodeERK8wxStringS2_ @3060
    _ZN16wxsCodeGenerator9BuildCodeEP15wxsCoderContext @3061
    _ZN16wxsCodeGeneratorC1Ev @3062
    _ZN16wxsCodeGeneratorC2Ev @3063
    _ZN16wxsCodeGeneratorD0Ev @3064
    _ZN16wxsCodeGeneratorD1Ev @3065
    _ZN16wxsCodeGeneratorD2Ev @3066
    _ZN16wxsDeleteItemRes12ID_CHECKBOX1E @3067 DATA
    _ZN16wxsDeleteItemRes12ID_CHECKBOX2E @3068 DATA
    _ZN16wxsDeleteItemRes12ID_CHECKBOX3E @3069 DATA
    _ZN16wxsDeleteItemRes13sm_eventTableE @3070 DATA
    _ZN16wxsDeleteItemRes14ID_STATICTEXT1E @3071 DATA
    _ZN16wxsDeleteItemRes17sm_eventHashTableE @3072 DATA
    _ZN16wxsDeleteItemRes20sm_eventTableEntriesE @3073 DATA
    _ZN16wxsDeleteItemRes22Onm_DeleteSourcesClickER14wxCommandEvent @3074
    _ZN16wxsDeleteItemResC1Ev @3075
    _ZN16wxsDeleteItemResC2Ev @3076
    _ZN16wxsDeleteItemResD0Ev @3077
    _ZN16wxsDeleteItemResD1Ev @3078
    _ZN16wxsDeleteItemResD2Ev @3079
    _ZN16wxsDialUpManager19OnBuildCreatingCodeEv @3080
    _ZN16wxsDialUpManager20OnEnumToolPropertiesEl @3081
    _ZN16wxsDialUpManagerC1EP14wxsItemResData @3082
    _ZN16wxsDialUpManagerC2EP14wxsItemResData @3083
    _ZN16wxsDialUpManagerD0Ev @3084
    _ZN16wxsDialUpManagerD1Ev @3085
    _ZN16wxsDimensionData13GetPixelsCodeEP15wxsCoderContext @3086
    _ZN16wxsDimensionData9GetPixelsEP8wxWindow @3087
    _ZN16wxsDimensionDataC1Ev @3088
    _ZN16wxsDirPickerCtrl14OnBuildPreviewEP8wxWindowl @3089
    _ZN16wxsDirPickerCtrl19OnBuildCreatingCodeEv @3090
    _ZN16wxsDirPickerCtrl22OnEnumWidgetPropertiesEl @3091
    _ZN16wxsDirPickerCtrlC1EP14wxsItemResData @3092
    _ZN16wxsDirPickerCtrlC2EP14wxsItemResData @3093
    _ZN16wxsDirPickerCtrlD0Ev @3094
    _ZN16wxsDirPickerCtrlD1Ev @3095
    _ZN16wxsDrawingWindow10BlockFetchEb @3096
    _ZN16wxsDrawingWindow11FastRepaintEv @3097
    _ZN16wxsDrawingWindow11FetchScreenEv @3098
    _ZN16wxsDrawingWindow11OnEraseBackER12wxEraseEvent @3099
    _ZN16wxsDrawingWindow12HideChildrenEv @3100
    _ZN16wxsDrawingWindow12ShowChildrenEv @3101
    _ZN16wxsDrawingWindow13sm_eventTableE @3102 DATA
    _ZN16wxsDrawingWindow14OnRefreshTimerER12wxTimerEvent @3103
    _ZN16wxsDrawingWindow15NoNeedToRefetchEv @3104
    _ZN16wxsDrawingWindow15OnFetchSequenceER14wxCommandEvent @3105
    _ZN16wxsDrawingWindow16ScreenShootTakenEv @3106
    _ZN16wxsDrawingWindow17sm_eventHashTableE @3107 DATA
    _ZN16wxsDrawingWindow19AfterContentChangedEv @3108
    _ZN16wxsDrawingWindow19FetchSequencePhase2Ev @3109
    _ZN16wxsDrawingWindow20BeforeContentChangedEv @3110
    _ZN16wxsDrawingWindow20sm_eventTableEntriesE @3111 DATA
    _ZN16wxsDrawingWindow21StartFetchingSequenceEv @3112
    _ZN16wxsDrawingWindow7DestroyEv @3113
    _ZN16wxsDrawingWindow7OnPaintER12wxPaintEvent @3114
    _ZN16wxsDrawingWindow9GetBitmapEv @3115
    _ZN16wxsDrawingWindowC1EP8wxWindowiRK7wxPointRK6wxSizelRK8wxString @3116
    _ZN16wxsDrawingWindowC2EP8wxWindowiRK7wxPointRK6wxSizelRK8wxString @3117
    _ZN16wxsDrawingWindowD0Ev @3118
    _ZN16wxsDrawingWindowD1Ev @3119
    _ZN16wxsDrawingWindowD2Ev @3120
    _ZN16wxsEmptyProperty11GetTypeNameEv @3121
    _ZN16wxsEmptyProperty9SingletonE @3122 DATA
    _ZN16wxsEmptyPropertyC1Ev @3123
    _ZN16wxsEmptyPropertyC2Ev @3124
    _ZN16wxsEmptyPropertyD0Ev @3125
    _ZN16wxsEmptyPropertyD1Ev @3126
    _ZN16wxsExtResManager11m_SingletonE @3127 DATA
    _ZN16wxsExtResManager12EditorClosedEP11wxsResource @3128
    _ZN16wxsExtResManager31FilesMapT_wxImplementation_PairC1ERK8wxStringRKPK11wxsResource @3129
    _ZN16wxsExtResManager31FilesMapT_wxImplementation_PairC1ERKS0_ @3130
    _ZN16wxsExtResManager31FilesMapT_wxImplementation_PairD1Ev @3131
    _ZN16wxsExtResManager32FilesMapT_wxImplementation_KeyExC1Ev @3132
    _ZN16wxsExtResManager36FilesMapT_wxImplementation_HashTable10CreateNodeERKNS_31FilesMapT_wxImplementation_PairEj @3133
    _ZN16wxsExtResManager36FilesMapT_wxImplementation_HashTable10DeleteNodeEP21_wxHashTable_NodeBase @3134
    _ZN16wxsExtResManager36FilesMapT_wxImplementation_HashTable11ResizeTableEj @3135
    _ZN16wxsExtResManager36FilesMapT_wxImplementation_HashTable15GetOrCreateNodeERKNS_31FilesMapT_wxImplementation_PairERb @3136
    _ZN16wxsExtResManager36FilesMapT_wxImplementation_HashTable16GetBucketForNodeEPS0_PNS0_4NodeE @3137
    _ZN16wxsExtResManager36FilesMapT_wxImplementation_HashTable3endEv @3138
    _ZN16wxsExtResManager36FilesMapT_wxImplementation_HashTable4Node6m_nextEv @3139
    _ZN16wxsExtResManager36FilesMapT_wxImplementation_HashTable4NodeC1ERKNS_31FilesMapT_wxImplementation_PairE @3140
    _ZN16wxsExtResManager36FilesMapT_wxImplementation_HashTable4NodeD1Ev @3141
    _ZN16wxsExtResManager36FilesMapT_wxImplementation_HashTable5beginEv @3142
    _ZN16wxsExtResManager36FilesMapT_wxImplementation_HashTable5clearEv @3143
    _ZN16wxsExtResManager36FilesMapT_wxImplementation_HashTable5eraseERK8wxString @3144
    _ZN16wxsExtResManager36FilesMapT_wxImplementation_HashTable8Iterator11GetNextNodeEv @3145
    _ZN16wxsExtResManager36FilesMapT_wxImplementation_HashTable8Iterator8PlusPlusEv @3146
    _ZN16wxsExtResManager36FilesMapT_wxImplementation_HashTable8IteratorC2EPNS0_4NodeEPKS0_ @3147
    _ZN16wxsExtResManager36FilesMapT_wxImplementation_HashTable8iteratorC1EPNS0_4NodeEPS0_ @3148
    _ZN16wxsExtResManager36FilesMapT_wxImplementation_HashTable8iteratorppEv @3149
    _ZN16wxsExtResManager36FilesMapT_wxImplementation_HashTableC2EjRK12wxStringHashRK13wxStringEqualRKNS_32FilesMapT_wxImplementation_KeyExE @3150
    _ZN16wxsExtResManager36FilesMapT_wxImplementation_HashTableD2Ev @3151
    _ZN16wxsExtResManager3GetEv @3152
    _ZN16wxsExtResManager4OpenERK8wxString @3153
    _ZN16wxsExtResManager7CanOpenERK8wxString @3154
    _ZN16wxsExtResManager9DeleteAllEv @3155
    _ZN16wxsExtResManager9FilesMapT4findERK8wxString @3156
    _ZN16wxsExtResManager9FilesMapT5eraseERK8wxString @3157
    _ZN16wxsExtResManager9FilesMapT5eraseERKNS_36FilesMapT_wxImplementation_HashTable8iteratorE @3158
    _ZN16wxsExtResManager9FilesMapTC1Ej12wxStringHash13wxStringEqual @3159
    _ZN16wxsExtResManager9FilesMapTD1Ev @3160
    _ZN16wxsExtResManager9FilesMapTixERK8wxString @3161
    _ZN16wxsExtResManagerC1Ev @3162
    _ZN16wxsExtResManagerC2Ev @3163
    _ZN16wxsExtResManagerD1Ev @3164
    _ZN16wxsExtResManagerD2Ev @3165
    _ZN16wxsFlagsProperty11GetTypeNameEv @3166
    _ZN16wxsFlagsProperty14PropStreamReadEP20wxsPropertyContainerP17wxsPropertyStream @3167
    _ZN16wxsFlagsProperty15PropStreamWriteEP20wxsPropertyContainerP17wxsPropertyStream @3168
    _ZN16wxsFlagsProperty6PGReadEP20wxsPropertyContainerP21wxPropertyGridManagerP12wxPGPropertyl @3169
    _ZN16wxsFlagsProperty7PGWriteEP20wxsPropertyContainerP21wxPropertyGridManagerP12wxPGPropertyl @3170
    _ZN16wxsFlagsProperty7XmlReadEP20wxsPropertyContainerP12TiXmlElement @3171
    _ZN16wxsFlagsProperty8PGCreateEP20wxsPropertyContainerP21wxPropertyGridManagerP12wxPGProperty @3172
    _ZN16wxsFlagsProperty8XmlWriteEP20wxsPropertyContainerP12TiXmlElement @3173
    _ZN16wxsFlagsPropertyC1ERK8wxStringS2_lPKlPPKwblbi @3174
    _ZN16wxsFlagsPropertyC2ERK8wxStringS2_lPKlPPKwblbi @3175
    _ZN16wxsFlagsPropertyD0Ev @3176
    _ZN16wxsFlagsPropertyD1Ev @3177
    _ZN16wxsFlexGridSizer11OnIsPointerEv @3178
    _ZN16wxsFlexGridSizer19OnBuildSizerPreviewEP8wxWindow @3179
    _ZN16wxsFlexGridSizer21OnEnumSizerPropertiesEl @3180
    _ZN16wxsFlexGridSizer24OnBuildSizerCreatingCodeEv @3181
    _ZN16wxsFlexGridSizerC1EP14wxsItemResData @3182
    _ZN16wxsFlexGridSizerC2EP14wxsItemResData @3183
    _ZN16wxsFlexGridSizerD0Ev @3184
    _ZN16wxsFlexGridSizerD1Ev @3185
    _ZN16wxsFontEditorDlg10ID_BUTTON4E @3186 DATA
    _ZN16wxsFontEditorDlg10ID_BUTTON5E @3187 DATA
    _ZN16wxsFontEditorDlg10ID_BUTTON6E @3188 DATA
    _ZN16wxsFontEditorDlg10ID_BUTTON7E @3189 DATA
    _ZN16wxsFontEditorDlg10ID_BUTTON8E @3190 DATA
    _ZN16wxsFontEditorDlg10ID_CHOICE1E @3191 DATA
    _ZN16wxsFontEditorDlg10ID_CHOICE2E @3192 DATA
    _ZN16wxsFontEditorDlg10ID_CHOICE3E @3193 DATA
    _ZN16wxsFontEditorDlg11ID_LISTBOX1E @3194 DATA
    _ZN16wxsFontEditorDlg12ID_CHECKBOX1E @3195 DATA
    _ZN16wxsFontEditorDlg12ID_CHECKBOX2E @3196 DATA
    _ZN16wxsFontEditorDlg12ID_CHECKBOX3E @3197 DATA
    _ZN16wxsFontEditorDlg12ID_CHECKBOX4E @3198 DATA
    _ZN16wxsFontEditorDlg12ID_CHECKBOX5E @3199 DATA
    _ZN16wxsFontEditorDlg12ID_CHECKBOX6E @3200 DATA
    _ZN16wxsFontEditorDlg12ID_CHECKBOX7E @3201 DATA
    _ZN16wxsFontEditorDlg12ID_CHECKBOX8E @3202 DATA
    _ZN16wxsFontEditorDlg12ID_COMBOBOX1E @3203 DATA
    _ZN16wxsFontEditorDlg12ID_SPINCTRL1E @3204 DATA
    _ZN16wxsFontEditorDlg12ID_TEXTCTRL1E @3205 DATA
    _ZN16wxsFontEditorDlg12ID_TEXTCTRL2E @3206 DATA
    _ZN16wxsFontEditorDlg13OnFaceUpClickER14wxCommandEvent @3207
    _ZN16wxsFontEditorDlg13UpdateContentEv @3208
    _ZN16wxsFontEditorDlg13UpdatePreviewEv @3209
    _ZN16wxsFontEditorDlg13sm_eventTableE @3210 DATA
    _ZN16wxsFontEditorDlg14ID_STATICTEXT1E @3211 DATA
    _ZN16wxsFontEditorDlg14OnButton1ClickER14wxCommandEvent @3212
    _ZN16wxsFontEditorDlg14OnButton2ClickER14wxCommandEvent @3213
    _ZN16wxsFontEditorDlg14OnFaceAddClickER14wxCommandEvent @3214
    _ZN16wxsFontEditorDlg14OnFaceDelClickER14wxCommandEvent @3215
    _ZN16wxsFontEditorDlg15ID_RADIOBUTTON1E @3216 DATA
    _ZN16wxsFontEditorDlg15ID_RADIOBUTTON2E @3217 DATA
    _ZN16wxsFontEditorDlg15ID_RADIOBUTTON3E @3218 DATA
    _ZN16wxsFontEditorDlg15ID_RADIOBUTTON4E @3219 DATA
    _ZN16wxsFontEditorDlg15ID_RADIOBUTTON5E @3220 DATA
    _ZN16wxsFontEditorDlg15ID_RADIOBUTTON6E @3221 DATA
    _ZN16wxsFontEditorDlg15ID_RADIOBUTTON7E @3222 DATA
    _ZN16wxsFontEditorDlg15ID_RADIOBUTTON8E @3223 DATA
    _ZN16wxsFontEditorDlg15OnButton1Click1ER14wxCommandEvent @3224
    _ZN16wxsFontEditorDlg15OnFaceDownClickER14wxCommandEvent @3225
    _ZN16wxsFontEditorDlg15OnFaceEditClickER14wxCommandEvent @3226
    _ZN16wxsFontEditorDlg15OnSizeValChangeER11wxSpinEvent @3227
    _ZN16wxsFontEditorDlg15OnUpdateContentER14wxCommandEvent @3228
    _ZN16wxsFontEditorDlg15OnUpdatePreviewER14wxCommandEvent @3229
    _ZN16wxsFontEditorDlg17sm_eventHashTableE @3230 DATA
    _ZN16wxsFontEditorDlg19OnBaseFontUseChangeER14wxCommandEvent @3231
    _ZN16wxsFontEditorDlg20sm_eventTableEntriesE @3232 DATA
    _ZN16wxsFontEditorDlg8ReadDataER11wxsFontData @3233
    _ZN16wxsFontEditorDlg9StoreDataER11wxsFontData @3234
    _ZN16wxsFontEditorDlgC1EP8wxWindowR11wxsFontDatai @3235
    _ZN16wxsFontEditorDlgC2EP8wxWindowR11wxsFontDatai @3236
    _ZN16wxsFontEditorDlgD0Ev @3237
    _ZN16wxsFontEditorDlgD1Ev @3238
    _ZN16wxsFontEditorDlgD2Ev @3239
    _ZN16wxsHyperlinkCtrl14OnBuildPreviewEP8wxWindowl @3240
    _ZN16wxsHyperlinkCtrl19OnBuildCreatingCodeEv @3241
    _ZN16wxsHyperlinkCtrl22OnEnumWidgetPropertiesEl @3242
    _ZN16wxsHyperlinkCtrlC1EP14wxsItemResData @3243
    _ZN16wxsHyperlinkCtrlC2EP14wxsItemResData @3244
    _ZN16wxsHyperlinkCtrlD0Ev @3245
    _ZN16wxsHyperlinkCtrlD1Ev @3246
    _ZN16wxsImageProperty10ShowEditorEP20wxsPropertyContainer @3247
    _ZN16wxsImageProperty11GetTypeNameEv @3248
    _ZN16wxsImageProperty14PropStreamReadEP20wxsPropertyContainerP17wxsPropertyStream @3249
    _ZN16wxsImageProperty15PropStreamWriteEP20wxsPropertyContainerP17wxsPropertyStream @3250
    _ZN16wxsImageProperty6GetStrEP20wxsPropertyContainer @3251
    _ZN16wxsImageProperty7XmlReadEP20wxsPropertyContainerP12TiXmlElement @3252
    _ZN16wxsImageProperty8XmlWriteEP20wxsPropertyContainerP12TiXmlElement @3253
    _ZN16wxsImagePropertyC1ERK8wxStringS2_S2_li @3254
    _ZN16wxsImagePropertyC2ERK8wxStringS2_S2_li @3255
    _ZN16wxsImagePropertyD0Ev @3256
    _ZN16wxsImagePropertyD1Ev @3257
    _ZN16wxsMessageDialog19OnBuildCreatingCodeEv @3258
    _ZN16wxsMessageDialog20OnEnumToolPropertiesEl @3259
    _ZN16wxsMessageDialogC1EP14wxsItemResData @3260
    _ZN16wxsMessageDialogC2EP14wxsItemResData @3261
    _ZN16wxsMessageDialogD0Ev @3262
    _ZN16wxsMessageDialogD1Ev @3263
    _ZN16wxsPredefinedIDs5CheckERK8wxString @3264
    _ZN16wxsPredefinedIDs5ValueERK8wxString @3265
    _ZN16wxsSizerParentQP11OnBrdChangeER14wxCommandEvent @3266
    _ZN16wxsSizerParentQP12ID_CHECKBOX1E @3267 DATA
    _ZN16wxsSizerParentQP12ID_CHECKBOX2E @3268 DATA
    _ZN16wxsSizerParentQP12ID_CHECKBOX3E @3269 DATA
    _ZN16wxsSizerParentQP12ID_CHECKBOX4E @3270 DATA
    _ZN16wxsSizerParentQP12ID_CHECKBOX5E @3271 DATA
    _ZN16wxsSizerParentQP12ID_CHECKBOX6E @3272 DATA
    _ZN16wxsSizerParentQP12ID_CHECKBOX7E @3273 DATA
    _ZN16wxsSizerParentQP12ID_CHECKBOX8E @3274 DATA
    _ZN16wxsSizerParentQP12ID_SPINCTRL1E @3275 DATA
    _ZN16wxsSizerParentQP12ID_SPINCTRL2E @3276 DATA
    _ZN16wxsSizerParentQP13OnPlaceChangeER14wxCommandEvent @3277
    _ZN16wxsSizerParentQP13sm_eventTableE @3278 DATA
    _ZN16wxsSizerParentQP14ID_STATICLINE1E @3279 DATA
    _ZN16wxsSizerParentQP14OnBrdDlgChangeER14wxCommandEvent @3280
    _ZN16wxsSizerParentQP15ID_RADIOBUTTON4E @3281 DATA
    _ZN16wxsSizerParentQP15ID_RADIOBUTTON5E @3282 DATA
    _ZN16wxsSizerParentQP15ID_RADIOBUTTON6E @3283 DATA
    _ZN16wxsSizerParentQP15ID_RADIOBUTTON7E @3284 DATA
    _ZN16wxsSizerParentQP15ID_RADIOBUTTON8E @3285 DATA
    _ZN16wxsSizerParentQP15ID_RADIOBUTTON9E @3286 DATA
    _ZN16wxsSizerParentQP15OnBrdSizeChangeER11wxSpinEvent @3287
    _ZN16wxsSizerParentQP16ID_RADIOBUTTON10E @3288 DATA
    _ZN16wxsSizerParentQP16ID_RADIOBUTTON11E @3289 DATA
    _ZN16wxsSizerParentQP16ID_RADIOBUTTON12E @3290 DATA
    _ZN16wxsSizerParentQP17sm_eventHashTableE @3291 DATA
    _ZN16wxsSizerParentQP18OnProportionChangeER11wxSpinEvent @3292
    _ZN16wxsSizerParentQP20sm_eventTableEntriesE @3293 DATA
    _ZN16wxsSizerParentQP6UpdateEv @3294
    _ZN16wxsSizerParentQP8OnBrdAllER14wxCommandEvent @3295
    _ZN16wxsSizerParentQP8ReadDataEv @3296
    _ZN16wxsSizerParentQP8SaveDataEv @3297
    _ZN16wxsSizerParentQPC1EP9wxsAdvQPPP13wxsSizerExtrai @3298
    _ZN16wxsSizerParentQPC2EP9wxsAdvQPPP13wxsSizerExtrai @3299
    _ZN16wxsSizerParentQPD0Ev @3300
    _ZN16wxsSizerParentQPD1Ev @3301
    _ZN16wxsSizerParentQPD2Ev @3302
    _ZN16wxsStyleProperty11GetTypeNameEv @3303
    _ZN16wxsStyleProperty14PropStreamReadEP20wxsPropertyContainerP17wxsPropertyStream @3304
    _ZN16wxsStyleProperty15PropStreamWriteEP20wxsPropertyContainerP17wxsPropertyStream @3305
    _ZN16wxsStyleProperty6PGReadEP20wxsPropertyContainerP21wxPropertyGridManagerP12wxPGPropertyl @3306
    _ZN16wxsStyleProperty7PGWriteEP20wxsPropertyContainerP21wxPropertyGridManagerP12wxPGPropertyl @3307
    _ZN16wxsStyleProperty7XmlReadEP20wxsPropertyContainerP12TiXmlElement @3308
    _ZN16wxsStyleProperty8PGCreateEP20wxsPropertyContainerP21wxPropertyGridManagerP12wxPGProperty @3309
    _ZN16wxsStyleProperty8XmlWriteEP20wxsPropertyContainerP12TiXmlElement @3310
    _ZN16wxsStylePropertyC1ERK8wxStringS2_llbi @3311
    _ZN16wxsStylePropertyC2ERK8wxStringS2_llbi @3312
    _ZN16wxsStylePropertyD0Ev @3313
    _ZN16wxsStylePropertyD1Ev @3314
    _ZN16wxsToolBarEditor10ID_BUTTON1E @3315 DATA
    _ZN16wxsToolBarEditor10ID_BUTTON2E @3316 DATA
    _ZN16wxsToolBarEditor10ID_BUTTON3E @3317 DATA
    _ZN16wxsToolBarEditor10ID_BUTTON4E @3318 DATA
    _ZN16wxsToolBarEditor10OnDelClickER14wxCommandEvent @3319
    _ZN16wxsToolBarEditor10OnNewClickER14wxCommandEvent @3320
    _ZN16wxsToolBarEditor10SelectItemEPNS_11ToolBarItemE @3321
    _ZN16wxsToolBarEditor11ID_LISTBOX1E @3322 DATA
    _ZN16wxsToolBarEditor11OnDownClickER14wxCommandEvent @3323
    _ZN16wxsToolBarEditor11ToolBarItemC1ERKS0_ @3324
    _ZN16wxsToolBarEditor11ToolBarItemC1Ev @3325
    _ZN16wxsToolBarEditor11ToolBarItemD0Ev @3326
    _ZN16wxsToolBarEditor11ToolBarItemD1Ev @3327
    _ZN16wxsToolBarEditor12ApplyChangesEv @3328
    _ZN16wxsToolBarEditor12GetItemLabelEPNS_11ToolBarItemE @3329
    _ZN16wxsToolBarEditor12ID_TEXTCTRL1E @3330 DATA
    _ZN16wxsToolBarEditor12ID_TEXTCTRL2E @3331 DATA
    _ZN16wxsToolBarEditor12ID_TEXTCTRL3E @3332 DATA
    _ZN16wxsToolBarEditor12ID_TEXTCTRL4E @3333 DATA
    _ZN16wxsToolBarEditor13OnBitmapClickER14wxCommandEvent @3334
    _ZN16wxsToolBarEditor13OnTypeChangedER14wxCommandEvent @3335
    _ZN16wxsToolBarEditor13Onm_LabelTextER14wxCommandEvent @3336
    _ZN16wxsToolBarEditor13sm_eventTableE @3337 DATA
    _ZN16wxsToolBarEditor14ID_STATICLINE1E @3338 DATA
    _ZN16wxsToolBarEditor14ID_STATICLINE2E @3339 DATA
    _ZN16wxsToolBarEditor14ID_STATICTEXT1E @3340 DATA
    _ZN16wxsToolBarEditor14ID_STATICTEXT2E @3341 DATA
    _ZN16wxsToolBarEditor14ID_STATICTEXT3E @3342 DATA
    _ZN16wxsToolBarEditor14ID_STATICTEXT4E @3343 DATA
    _ZN16wxsToolBarEditor14ID_STATICTEXT5E @3344 DATA
    _ZN16wxsToolBarEditor14ID_STATICTEXT6E @3345 DATA
    _ZN16wxsToolBarEditor14OnBitmap2ClickER14wxCommandEvent @3346
    _ZN16wxsToolBarEditor15ID_RADIOBUTTON1E @3347 DATA
    _ZN16wxsToolBarEditor15ID_RADIOBUTTON2E @3348 DATA
    _ZN16wxsToolBarEditor15ID_RADIOBUTTON3E @3349 DATA
    _ZN16wxsToolBarEditor15ID_RADIOBUTTON4E @3350 DATA
    _ZN16wxsToolBarEditor16ID_BITMAPBUTTON1E @3351 DATA
    _ZN16wxsToolBarEditor16ID_BITMAPBUTTON2E @3352 DATA
    _ZN16wxsToolBarEditor17Onm_ContentSelectER14wxCommandEvent @3353
    _ZN16wxsToolBarEditor17sm_eventHashTableE @3354 DATA
    _ZN16wxsToolBarEditor20sm_eventTableEntriesE @3355 DATA
    _ZN16wxsToolBarEditor9OnUpClickER14wxCommandEvent @3356
    _ZN16wxsToolBarEditorC1EP8wxWindowP10wxsToolBar @3357
    _ZN16wxsToolBarEditorC2EP8wxWindowP10wxsToolBar @3358
    _ZN16wxsToolBarEditorD0Ev @3359
    _ZN16wxsToolBarEditorD1Ev @3360
    _ZN16wxsToolBarEditorD2Ev @3361
    _ZN17CompileTargetBaseaSERKS_ @3362
    _ZN17IEventFunctorBaseI15CodeBlocksEventEC2Ev @3363
    _ZN17IEventFunctorBaseI15CodeBlocksEventED0Ev @3364
    _ZN17IEventFunctorBaseI15CodeBlocksEventED1Ev @3365
    _ZN17IEventFunctorBaseI15CodeBlocksEventED2Ev @3366
    _ZN17TiXmlAttributeSet5FirstEv @3367
    _ZN17_wxHashTableBase210AllocTableEj @3368
    _ZN17_wxHashTableBase212GetFirstNodeEjPP21_wxHashTable_NodeBase @3369
    _ZN17_wxHashTableBase29FreeTableEPv @3370
    _ZN17_wxHashTableBase2C2Ev @3371
    _ZN17wxAnyChoiceDialogC2Ev @3372
    _ZN17wxAnyChoiceDialogD2Ev @3373
    _ZN17wxArrayPGProperty16reverse_iteratorC1EPP12wxPGProperty @3374
    _ZN17wxArrayPGProperty3AddEP12wxPGPropertyj @3375
    _ZN17wxArrayPGProperty3endEv @3376
    _ZN17wxArrayPGProperty4SortEPFiPP12wxPGPropertyS2_E @3377
    _ZN17wxArrayPGProperty4backEv @3378
    _ZN17wxArrayPGProperty4rendEv @3379
    _ZN17wxArrayPGProperty5beginEv @3380
    _ZN17wxArrayPGProperty5eraseEPP12wxPGProperty @3381
    _ZN17wxArrayPGProperty5eraseEPP12wxPGPropertyS2_ @3382
    _ZN17wxArrayPGProperty5frontEv @3383
    _ZN17wxArrayPGProperty6InsertEP12wxPGPropertyjj @3384
    _ZN17wxArrayPGProperty6RemoveEP12wxPGProperty @3385
    _ZN17wxArrayPGProperty6assignEPKP12wxPGPropertyS3_ @3386
    _ZN17wxArrayPGProperty6assignEjRKP12wxPGProperty @3387
    _ZN17wxArrayPGProperty6insertEPP12wxPGPropertyPKS1_S4_ @3388
    _ZN17wxArrayPGProperty6insertEPP12wxPGPropertyRKS1_ @3389
    _ZN17wxArrayPGProperty6insertEPP12wxPGPropertyjRKS1_ @3390
    _ZN17wxArrayPGProperty6rbeginEv @3391
    _ZN17wxArrayPGProperty6resizeEjP12wxPGProperty @3392
    _ZN17wxArrayPGProperty7reserveEj @3393
    _ZN17wxArrayPGProperty8RemoveAtEjj @3394
    _ZN17wxArrayPGProperty8pop_backEv @3395
    _ZN17wxArrayPGProperty9push_backERKP12wxPGProperty @3396
    _ZN17wxArrayPGPropertyC1EPKP12wxPGPropertyS3_ @3397
    _ZN17wxArrayPGPropertyC1ERKS_ @3398
    _ZN17wxArrayPGPropertyC1EjRKP12wxPGProperty @3399
    _ZN17wxArrayPGPropertyC1Ev @3400
    _ZN17wxArrayPGPropertyC2EPKP12wxPGPropertyS3_ @3401
    _ZN17wxArrayPGPropertyC2EjRKP12wxPGProperty @3402
    _ZN17wxArrayPGPropertyC2Ev @3403
    _ZN17wxArrayPGPropertyD1Ev @3404
    _ZN17wxArrayPGPropertyD2Ev @3405
    _ZN17wxArrayPGPropertyaSERKS_ @3406
    _ZN17wxEventTableEntryC1ERKiiiM8wxObjectFvR7wxEventEPS2_ @3407
    _ZN17wxPGVIteratorBase6DecRefEv @3408
    _ZN17wxPGVIteratorBase6IncRefEv @3409
    _ZN17wxPGVIteratorBaseC1Ev @3410
    _ZN17wxPGVIteratorBaseC2Ev @3411
    _ZN17wxPGVIteratorBaseD0Ev @3412
    _ZN17wxPGVIteratorBaseD1Ev @3413
    _ZN17wxPGVIteratorBaseD2Ev @3414
    _ZN17wxScrollingDialogC2EP8wxWindowiRK8wxStringRK7wxPointRK6wxSizelS4_ @3415
    _ZN17wxScrollingDialogC2Ev @3416
    _ZN17wxScrollingDialogD2Ev @3417
    _ZN17wxStringTokenizerC1Ev @3418
    _ZN17wxStringTokenizerD0Ev @3419
    _ZN17wxStringTokenizerD1Ev @3420
    _ZN17wxTextEntryDialogD1Ev @3421
    _ZN17wxULongLongNativeC1Ev @3422
    _ZN17wxULongLongNativeC1Ey @3423
    _ZN17wxsBaseProperties11AddQPPChildEP9wxsAdvQPPl @3424
    _ZN17wxsBaseProperties14SpecialXmlReadEP12TiXmlElementbb @3425
    _ZN17wxsBaseProperties15SpecialXmlWriteEP12TiXmlElementbblRK8wxString @3426
    _ZN17wxsBaseProperties16OnEnumPropertiesEl @3427
    _ZN17wxsBasePropertiesC1Ev @3428
    _ZN17wxsBasePropertiesD0Ev @3429
    _ZN17wxsBasePropertiesD1Ev @3430
    _ZN17wxsBitmapComboBox14OnBuildPreviewEP8wxWindowl @3431
    _ZN17wxsBitmapComboBox19OnBuildCreatingCodeEv @3432
    _ZN17wxsBitmapComboBox22OnEnumWidgetPropertiesEl @3433
    _ZN17wxsBitmapComboBoxC1EP14wxsItemResData @3434
    _ZN17wxsBitmapComboBoxC2EP14wxsItemResData @3435
    _ZN17wxsBitmapComboBoxD0Ev @3436
    _ZN17wxsBitmapComboBoxD1Ev @3437
    _ZN17wxsBitmapIconData10GetPreviewERK6wxSizeRK8wxString @3438
    _ZN17wxsBitmapIconData7IsEmptyEv @3439
    _ZN17wxsBitmapIconData9BuildCodeEbRK8wxStringP15wxsCoderContextS2_ @3440
    _ZN17wxsBitmapIconDataC1ERKS_ @3441
    _ZN17wxsBitmapIconDataC1Ev @3442
    _ZN17wxsBitmapIconDataD1Ev @3443
    _ZN17wxsBitmapIconDataaSERKS_ @3444
    _ZN17wxsColourProperty11GetTypeNameEv @3445
    _ZN17wxsColourProperty14PropStreamReadEP20wxsPropertyContainerP17wxsPropertyStream @3446
    _ZN17wxsColourProperty15PropStreamWriteEP20wxsPropertyContainerP17wxsPropertyStream @3447
    _ZN17wxsColourProperty6PGReadEP20wxsPropertyContainerP21wxPropertyGridManagerP12wxPGPropertyl @3448
    _ZN17wxsColourProperty7PGWriteEP20wxsPropertyContainerP21wxPropertyGridManagerP12wxPGPropertyl @3449
    _ZN17wxsColourProperty7XmlReadEP20wxsPropertyContainerP12TiXmlElement @3450
    _ZN17wxsColourProperty8PGCreateEP20wxsPropertyContainerP21wxPropertyGridManagerP12wxPGProperty @3451
    _ZN17wxsColourProperty8XmlWriteEP20wxsPropertyContainerP12TiXmlElement @3452
    _ZN17wxsColourPropertyC1ERK8wxStringS2_li @3453
    _ZN17wxsColourPropertyC2ERK8wxStringS2_li @3454
    _ZN17wxsColourPropertyD0Ev @3455
    _ZN17wxsColourPropertyD1Ev @3456
    _ZN17wxsDatePickerCtrl14OnBuildPreviewEP8wxWindowl @3457
    _ZN17wxsDatePickerCtrl19OnBuildCreatingCodeEv @3458
    _ZN17wxsDatePickerCtrl22OnEnumWidgetPropertiesEl @3459
    _ZN17wxsDatePickerCtrlC1EP14wxsItemResData @3460
    _ZN17wxsDatePickerCtrlC2EP14wxsItemResData @3461
    _ZN17wxsDatePickerCtrlD0Ev @3462
    _ZN17wxsDatePickerCtrlD1Ev @3463
    _ZN17wxsFilePickerCtrl14OnBuildPreviewEP8wxWindowl @3464
    _ZN17wxsFilePickerCtrl19OnBuildCreatingCodeEv @3465
    _ZN17wxsFilePickerCtrl22OnEnumWidgetPropertiesEl @3466
    _ZN17wxsFilePickerCtrlC1EP14wxsItemResData @3467
    _ZN17wxsFilePickerCtrlC2EP14wxsItemResData @3468
    _ZN17wxsFilePickerCtrlD0Ev @3469
    _ZN17wxsFilePickerCtrlD1Ev @3470
    _ZN17wxsFontPickerCtrl14OnBuildPreviewEP8wxWindowl @3471
    _ZN17wxsFontPickerCtrl19OnBuildCreatingCodeEv @3472
    _ZN17wxsFontPickerCtrl22OnEnumWidgetPropertiesEl @3473
    _ZN17wxsFontPickerCtrlC1EP14wxsItemResData @3474
    _ZN17wxsFontPickerCtrlC2EP14wxsItemResData @3475
    _ZN17wxsFontPickerCtrlD0Ev @3476
    _ZN17wxsFontPickerCtrlD1Ev @3477
    _ZN17wxsGenericDirCtrl14OnBuildPreviewEP8wxWindowl @3478
    _ZN17wxsGenericDirCtrl19OnBuildCreatingCodeEv @3479
    _ZN17wxsGenericDirCtrl22OnEnumWidgetPropertiesEl @3480
    _ZN17wxsGenericDirCtrlC1EP14wxsItemResData @3481
    _ZN17wxsGenericDirCtrlC2EP14wxsItemResData @3482
    _ZN17wxsGenericDirCtrlD0Ev @3483
    _ZN17wxsGenericDirCtrlD1Ev @3484
    _ZN17wxsItemUndoBuffer10IsModifiedEv @3485
    _ZN17wxsItemUndoBuffer11StoreChangeERK8wxString @3486
    _ZN17wxsItemUndoBuffer4RedoEv @3487
    _ZN17wxsItemUndoBuffer4UndoEv @3488
    _ZN17wxsItemUndoBuffer5SavedEv @3489
    _ZN17wxsItemUndoBuffer7CanRedoEv @3490
    _ZN17wxsItemUndoBuffer7CanUndoEv @3491
    _ZN17wxsItemUndoBuffer8GetCountEv @3492
    _ZN17wxsItemUndoBufferC1Ei @3493
    _ZN17wxsItemUndoBufferC2Ei @3494
    _ZN17wxsItemUndoBufferD1Ev @3495
    _ZN17wxsItemUndoBufferD2Ev @3496
    _ZN17wxsProgressDialog19OnBuildCreatingCodeEv @3497
    _ZN17wxsProgressDialog20OnEnumToolPropertiesEl @3498
    _ZN17wxsProgressDialogC1EP14wxsItemResData @3499
    _ZN17wxsProgressDialogC2EP14wxsItemResData @3500
    _ZN17wxsProgressDialogD0Ev @3501
    _ZN17wxsProgressDialogD1Ev @3502
    _ZN17wxsPropertyStream7GetBoolERK8wxStringRbb @3503
    _ZN17wxsPropertyStream7GetCharERK8wxStringRww @3504
    _ZN17wxsPropertyStream7GetLongERK8wxStringRll @3505
    _ZN17wxsPropertyStream7PutBoolERK8wxStringRbb @3506
    _ZN17wxsPropertyStream7PutCharERK8wxStringRww @3507
    _ZN17wxsPropertyStream7PutLongERK8wxStringRll @3508
    _ZN17wxsPropertyStream8GetULongERK8wxStringRmm @3509
    _ZN17wxsPropertyStream8PutULongERK8wxStringRmm @3510
    _ZN17wxsPropertyStream9GetDoubleERK8wxStringRdd @3511
    _ZN17wxsPropertyStream9PutDoubleERK8wxStringRdd @3512
    _ZN17wxsPropertyStreamD0Ev @3513
    _ZN17wxsPropertyStreamD1Ev @3514
    _ZN17wxsScrolledWindow14OnBuildPreviewEP8wxWindowl @3515
    _ZN17wxsScrolledWindow19OnBuildCreatingCodeEv @3516
    _ZN17wxsScrolledWindow25OnEnumContainerPropertiesEl @3517
    _ZN17wxsScrolledWindowC1EP14wxsItemResData @3518
    _ZN17wxsScrolledWindowC2EP14wxsItemResData @3519
    _ZN17wxsScrolledWindowD0Ev @3520
    _ZN17wxsScrolledWindowD1Ev @3521
    _ZN17wxsSplitterWindow13OnCanAddChildEP7wxsItemb @3522
    _ZN17wxsSplitterWindow14OnBuildPreviewEP8wxWindowl @3523
    _ZN17wxsSplitterWindow19OnBuildCreatingCodeEv @3524
    _ZN17wxsSplitterWindow25OnEnumContainerPropertiesEl @3525
    _ZN17wxsSplitterWindowC1EP14wxsItemResData @3526
    _ZN17wxsSplitterWindowC2EP14wxsItemResData @3527
    _ZN17wxsSplitterWindowD0Ev @3528
    _ZN17wxsSplitterWindowD1Ev @3529
    _ZN17wxsStaticBoxSizer11OnIsPointerEv @3530
    _ZN17wxsStaticBoxSizer19OnBuildSizerPreviewEP8wxWindow @3531
    _ZN17wxsStaticBoxSizer21OnEnumSizerPropertiesEl @3532
    _ZN17wxsStaticBoxSizer24OnBuildSizerCreatingCodeEv @3533
    _ZN17wxsStaticBoxSizerC1EP14wxsItemResData @3534
    _ZN17wxsStaticBoxSizerC2EP14wxsItemResData @3535
    _ZN17wxsStaticBoxSizerD0Ev @3536
    _ZN17wxsStaticBoxSizerD1Ev @3537
    _ZN17wxsStringProperty11GetTypeNameEv @3538
    _ZN17wxsStringProperty14PropStreamReadEP20wxsPropertyContainerP17wxsPropertyStream @3539
    _ZN17wxsStringProperty15PropStreamWriteEP20wxsPropertyContainerP17wxsPropertyStream @3540
    _ZN17wxsStringProperty6PGReadEP20wxsPropertyContainerP21wxPropertyGridManagerP12wxPGPropertyl @3541
    _ZN17wxsStringProperty7PGWriteEP20wxsPropertyContainerP21wxPropertyGridManagerP12wxPGPropertyl @3542
    _ZN17wxsStringProperty7XmlReadEP20wxsPropertyContainerP12TiXmlElement @3543
    _ZN17wxsStringProperty8PGCreateEP20wxsPropertyContainerP21wxPropertyGridManagerP12wxPGProperty @3544
    _ZN17wxsStringProperty8XmlWriteEP20wxsPropertyContainerP12TiXmlElement @3545
    _ZN17wxsStringPropertyC1ERK8wxStringS2_lbbS2_i @3546
    _ZN17wxsStringPropertyC2ERK8wxStringS2_lbbS2_i @3547
    _ZN17wxsStringPropertyD0Ev @3548
    _ZN17wxsStringPropertyD1Ev @3549
    _ZN18CompileOptionsBaseaSERKS_ @3550
    _ZN18ProjectLoaderHooks11HookFunctorI7wxSmithEC1EPS1_MS1_FvP9cbProjectP12TiXmlElementbE @3551
    _ZN18ProjectLoaderHooks11HookFunctorI7wxSmithED0Ev @3552
    _ZN18ProjectLoaderHooks11HookFunctorI7wxSmithED1Ev @3553
    _ZN18ProjectLoaderHooks15HookFunctorBaseC2Ev @3554
    _ZN18ProjectLoaderHooks15HookFunctorBaseD0Ev @3555
    _ZN18ProjectLoaderHooks15HookFunctorBaseD1Ev @3556
    _ZN18ProjectLoaderHooks15HookFunctorBaseD2Ev @3557
    _ZN18wxAcceleratorArrayC1Ev @3558
    _ZN18wxAcceleratorArrayD1Ev @3559
    _ZN18wxAcceleratorEntry3SetEiiiP10wxMenuItem @3560
    _ZN18wxAcceleratorEntryC1EiiiP10wxMenuItem @3561
    _ZN18wxAcceleratorTableD1Ev @3562
    _ZN18wxAcceleratorTableaSERKS_ @3563
    _ZN18wxArrayTreeItemIdsC1Ev @3564
    _ZN18wxArrayTreeItemIdsD1Ev @3565
    _ZN18wxBaseArrayPtrVoid3endEv @3566
    _ZN18wxBaseArrayPtrVoid5AllocEj @3567
    _ZN18wxBaseArrayPtrVoid5EmptyEv @3568
    _ZN18wxBaseArrayPtrVoid5beginEv @3569
    _ZN18wxBaseArrayPtrVoid5clearEv @3570
    _ZN18wxBaseArrayPtrVoid5eraseEPPKv @3571
    _ZN18wxBaseArrayPtrVoid5eraseEPPKvS2_ @3572
    _ZN18wxBaseArrayPtrVoid6insertEPPKvRKS1_ @3573
    _ZN18wxBaseArrayPtrVoid6insertEPPKvjRKS1_ @3574
    _ZN18wxBaseArrayPtrVoid6resizeEjPKv @3575
    _ZN18wxBaseArrayPtrVoid7reserveEj @3576
    _ZN18wxBaseArrayPtrVoid8pop_backEv @3577
    _ZN18wxBaseArrayPtrVoid9push_backERKPKv @3578
    _ZN18wxBaseEnumProperty10OnSetValueEv @3579
    _ZN18wxBaseEnumProperty12ms_nextIndexE @3580 DATA
    _ZN18wxBaseEnumProperty14ResetNextIndexEv @3581
    _ZN18wxBaseEnumProperty19OnValidationFailureER9wxVariant @3582
    _ZN18wxBaseEnumProperty8SetIndexEi @3583
    _ZN18wxBaseEnumPropertyC1ERK8wxStringS2_ @3584
    _ZN18wxBaseEnumPropertyC2ERK8wxStringS2_ @3585
    _ZN18wxBaseEnumPropertyD0Ev @3586
    _ZN18wxBaseEnumPropertyD1Ev @3587
    _ZN18wxBaseEnumPropertyD2Ev @3588
    _ZN18wxBitmapButtonBase10SetMarginsEii @3589
    _ZN18wxBitmapButtonBase11OnSetBitmapEv @3590
    _ZN18wxBitmapButtonBase14SetBitmapFocusERK8wxBitmap @3591
    _ZN18wxBitmapButtonBase14SetBitmapLabelERK8wxBitmap @3592
    _ZN18wxBitmapButtonBase17SetBitmapDisabledERK8wxBitmap @3593
    _ZN18wxBitmapButtonBase17SetBitmapSelectedERK8wxBitmap @3594
    _ZN18wxBitmapButtonBase8SetLabelERK8wxString @3595
    _ZN18wxBitmapButtonBaseC2Ev @3596
    _ZN18wxBitmapButtonBaseD0Ev @3597
    _ZN18wxBitmapButtonBaseD1Ev @3598
    _ZN18wxBitmapButtonBaseD2Ev @3599
    _ZN18wxColourPickerCtrlC1EP8wxWindowiRK8wxColourRK7wxPointRK6wxSizelRK11wxValidatorRK8wxString @3600
    _ZN18wxControlContainer18SetContainerWindowEP8wxWindow @3601
    _ZN18wxControlWithItemsC2Ev @3602
    _ZN18wxDataObjectSimple7SetDataERK12wxDataFormatjPKv @3603
    _ZN18wxDataObjectSimple7SetDataEjPKv @3604
    _ZN18wxDataObjectSimpleC2ERK12wxDataFormat @3605
    _ZN18wxDataObjectSimpleD0Ev @3606
    _ZN18wxDataObjectSimpleD1Ev @3607
    _ZN18wxDataObjectSimpleD2Ev @3608
    _ZN18wxEditEnumProperty12ms_classInfoE @3609 DATA
    _ZN18wxEditEnumProperty14wxCreateObjectEv @3610
    _ZN18wxEditEnumPropertyC1ERK8wxStringS2_PPKwPKlP11wxPGChoicesS2_ @3611
    _ZN18wxEditEnumPropertyC1ERK8wxStringS2_PPKwPKlS2_ @3612
    _ZN18wxEditEnumPropertyC1ERK8wxStringS2_R11wxPGChoicesS2_ @3613
    _ZN18wxEditEnumPropertyC1ERK8wxStringS2_RK13wxArrayStringRK10wxArrayIntS2_ @3614
    _ZN18wxEditEnumPropertyC2ERK8wxStringS2_PPKwPKlP11wxPGChoicesS2_ @3615
    _ZN18wxEditEnumPropertyC2ERK8wxStringS2_PPKwPKlS2_ @3616
    _ZN18wxEditEnumPropertyC2ERK8wxStringS2_R11wxPGChoicesS2_ @3617
    _ZN18wxEditEnumPropertyC2ERK8wxStringS2_RK13wxArrayStringRK10wxArrayIntS2_ @3618
    _ZN18wxEditEnumPropertyD0Ev @3619
    _ZN18wxEditEnumPropertyD1Ev @3620
    _ZN18wxEditEnumPropertyD2Ev @3621
    _ZN18wxPGCheckBoxEditor12ms_classInfoE @3622 DATA
    _ZN18wxPGCheckBoxEditor14wxCreateObjectEv @3623
    _ZN18wxPGCheckBoxEditorC1Ev @3624
    _ZN18wxPGCheckBoxEditorC2Ev @3625
    _ZN18wxPGCheckBoxEditorD0Ev @3626
    _ZN18wxPGCheckBoxEditorD1Ev @3627
    _ZN18wxPGCheckBoxEditorD2Ev @3628
    _ZN18wxPGComboBoxEditor12ms_classInfoE @3629 DATA
    _ZN18wxPGComboBoxEditor14wxCreateObjectEv @3630
    _ZN18wxPGComboBoxEditorC1Ev @3631
    _ZN18wxPGComboBoxEditorC2Ev @3632
    _ZN18wxPGComboBoxEditorD0Ev @3633
    _ZN18wxPGComboBoxEditorD1Ev @3634
    _ZN18wxPGComboBoxEditorD2Ev @3635
    _ZN18wxPGSpinCtrlEditor12ms_classInfoE @3636 DATA
    _ZN18wxPGSpinCtrlEditor14wxCreateObjectEv @3637
    _ZN18wxPGSpinCtrlEditorC1Ev @3638
    _ZN18wxPGSpinCtrlEditorD0Ev @3639
    _ZN18wxPGSpinCtrlEditorD1Ev @3640
    _ZN18wxPGSpinCtrlEditorD2Ev @3641
    _ZN18wxPGTextCtrlEditor12ms_classInfoE @3642 DATA
    _ZN18wxPGTextCtrlEditor14wxCreateObjectEv @3643
    _ZN18wxPGTextCtrlEditor15OnTextCtrlEventEP14wxPropertyGridP12wxPGPropertyP8wxWindowR7wxEvent @3644
    _ZN18wxPGTextCtrlEditor27GetTextCtrlValueFromControlER9wxVariantP12wxPGPropertyP8wxWindow @3645
    _ZN18wxPGTextCtrlEditorC1Ev @3646
    _ZN18wxPGTextCtrlEditorC2Ev @3647
    _ZN18wxPGTextCtrlEditorD0Ev @3648
    _ZN18wxPGTextCtrlEditorD1Ev @3649
    _ZN18wxPGTextCtrlEditorD2Ev @3650
    _ZN18wxPGValidationInfo17SetFailureMessageERK8wxString @3651
    _ZN18wxPGValidationInfo18SetFailureBehaviorEh @3652
    _ZN18wxPGValidationInfoC1Ev @3653
    _ZN18wxPGValidationInfoC2Ev @3654
    _ZN18wxPGValidationInfoD1Ev @3655
    _ZN18wxPGValidationInfoD2Ev @3656
    _ZN18wxPropertyCategory12ms_classInfoE @3657 DATA
    _ZN18wxPropertyCategory14wxCreateObjectEv @3658
    _ZN18wxPropertyCategory15SetTextColIndexEj @3659
    _ZN18wxPropertyCategory19CalculateTextExtentEP8wxWindowRK6wxFont @3660
    _ZN18wxPropertyCategory4InitEv @3661
    _ZN18wxPropertyCategoryC1ERK8wxStringS2_ @3662
    _ZN18wxPropertyCategoryC1Ev @3663
    _ZN18wxPropertyCategoryC2ERK8wxStringS2_ @3664
    _ZN18wxPropertyCategoryC2Ev @3665
    _ZN18wxPropertyCategoryD0Ev @3666
    _ZN18wxPropertyCategoryD1Ev @3667
    _ZN18wxPropertyCategoryD2Ev @3668
    _ZN18wxPropertyGridPage10FitColumnsEv @3669
    _ZN18wxPropertyGridPage11GetStatePtrEv @3670
    _ZN18wxPropertyGridPage12ms_classInfoE @3671 DATA
    _ZN18wxPropertyGridPage13sm_eventTableE @3672 DATA
    _ZN18wxPropertyGridPage15RefreshPropertyEP12wxPGProperty @3673
    _ZN18wxPropertyGridPage17sm_eventHashTableE @3674 DATA
    _ZN18wxPropertyGridPage19SetSplitterPositionEii @3675
    _ZN18wxPropertyGridPage20sm_eventTableEntriesE @3676 DATA
    _ZN18wxPropertyGridPage21DoSetSplitterPositionEiibb @3677
    _ZN18wxPropertyGridPage4InitEv @3678
    _ZN18wxPropertyGridPage5ClearEv @3679
    _ZN18wxPropertyGridPage6OnShowEv @3680
    _ZN18wxPropertyGridPageC1Ev @3681
    _ZN18wxPropertyGridPageC2Ev @3682
    _ZN18wxPropertyGridPageD0Ev @3683
    _ZN18wxPropertyGridPageD1Ev @3684
    _ZN18wxPropertyGridPageD2Ev @3685
    _ZN18wxSashLayoutWindow12SetAlignmentE17wxLayoutAlignment @3686
    _ZN18wxSashLayoutWindow14SetOrientationE19wxLayoutOrientation @3687
    _ZN18wxSashLayoutWindowC1EP8wxWindowiRK7wxPointRK6wxSizelRK8wxString @3688
    _ZN18wxStaticBitmapBaseC2Ev @3689
    _ZN18wxsItemResTreeData12OnRightClickEv @3690
    _ZN18wxsItemResTreeData8OnSelectEv @3691
    _ZN18wxsItemResTreeDataC1EP7wxsItem @3692
    _ZN18wxsItemResTreeDataC2EP7wxsItem @3693
    _ZN18wxsItemResTreeDataD0Ev @3694
    _ZN18wxsItemResTreeDataD1Ev @3695
    _ZN18wxsItemResTreeDataD2Ev @3696
    _ZN18wxsPageSetupDialog19OnBuildCreatingCodeEv @3697
    _ZN18wxsPageSetupDialog20OnEnumToolPropertiesEl @3698
    _ZN18wxsPageSetupDialogC1EP14wxsItemResData @3699
    _ZN18wxsPageSetupDialogC2EP14wxsItemResData @3700
    _ZN18wxsPageSetupDialogD0Ev @3701
    _ZN18wxsPageSetupDialogD1Ev @3702
    _ZN18wxsQuickPropsPanel12NotifyChangeEv @3703
    _ZN18wxsQuickPropsPanel20GetPropertyContainerEv @3704
    _ZN18wxsQuickPropsPanel6UpdateEv @3705
    _ZN18wxsQuickPropsPanelC1EP20wxsPropertyContainer @3706
    _ZN18wxsQuickPropsPanelC1EP8wxWindowP20wxsPropertyContaineriRK7wxPointRK6wxSizelRK8wxString @3707
    _ZN18wxsQuickPropsPanelC2EP20wxsPropertyContainer @3708
    _ZN18wxsQuickPropsPanelC2EP8wxWindowP20wxsPropertyContaineriRK7wxPointRK6wxSizelRK8wxString @3709
    _ZN18wxsQuickPropsPanelD0Ev @3710
    _ZN18wxsQuickPropsPanelD1Ev @3711
    _ZN18wxsQuickPropsPanelD2Ev @3712
    _ZN18wxsResourceFactory10InitializeEv @3713
    _ZN18wxsResourceFactory11OnAttachAllEv @3714
    _ZN18wxsResourceFactory12OnReleaseAllEv @3715
    _ZN18wxsResourceFactory12ResourceInfoC1ERKS0_ @3716
    _ZN18wxsResourceFactory12ResourceInfoC1Ev @3717
    _ZN18wxsResourceFactory12ResourceInfoD1Ev @3718
    _ZN18wxsResourceFactory13BuildExternalERK8wxString @3719
    _ZN18wxsResourceFactory13m_AllAttachedE @3720 DATA
    _ZN18wxsResourceFactory13m_InitializedE @3721 DATA
    _ZN18wxsResourceFactory13m_UpdateQueueE @3722 DATA
    _ZN18wxsResourceFactory14BuildSmithMenuEP6wxMenu @3723
    _ZN18wxsResourceFactory15NewResourceMenuEiP10wxsProject @3724
    _ZN18wxsResourceFactory15OnBuildExternalERK8wxString @3725
    _ZN18wxsResourceFactory16ResourceTreeIconERK8wxString @3726
    _ZN18wxsResourceFactory17CanHandleExternalERK8wxString @3727
    _ZN18wxsResourceFactory18OnResourceTreeIconEi @3728
    _ZN18wxsResourceFactory18m_LastExternalNameE @3729 DATA
    _ZN18wxsResourceFactory19InitializeFromQueueEv @3730
    _ZN18wxsResourceFactory19OnCanHandleExternalERK8wxString @3731
    _ZN18wxsResourceFactory21m_LastExternalFactoryE @3732 DATA
    _ZN18wxsResourceFactory27HashT_wxImplementation_PairC1ERK8wxStringRKNS_12ResourceInfoE @3733
    _ZN18wxsResourceFactory27HashT_wxImplementation_PairC1ERKS0_ @3734
    _ZN18wxsResourceFactory27HashT_wxImplementation_PairD1Ev @3735
    _ZN18wxsResourceFactory28HashT_wxImplementation_KeyExC1Ev @3736
    _ZN18wxsResourceFactory32HashT_wxImplementation_HashTable10CreateNodeERKNS_27HashT_wxImplementation_PairEj @3737
    _ZN18wxsResourceFactory32HashT_wxImplementation_HashTable10DeleteNodeEP21_wxHashTable_NodeBase @3738
    _ZN18wxsResourceFactory32HashT_wxImplementation_HashTable11ResizeTableEj @3739
    _ZN18wxsResourceFactory32HashT_wxImplementation_HashTable15GetOrCreateNodeERKNS_27HashT_wxImplementation_PairERb @3740
    _ZN18wxsResourceFactory32HashT_wxImplementation_HashTable16GetBucketForNodeEPS0_PNS0_4NodeE @3741
    _ZN18wxsResourceFactory32HashT_wxImplementation_HashTable3endEv @3742
    _ZN18wxsResourceFactory32HashT_wxImplementation_HashTable4Node6m_nextEv @3743
    _ZN18wxsResourceFactory32HashT_wxImplementation_HashTable4NodeC1ERKNS_27HashT_wxImplementation_PairE @3744
    _ZN18wxsResourceFactory32HashT_wxImplementation_HashTable4NodeD1Ev @3745
    _ZN18wxsResourceFactory32HashT_wxImplementation_HashTable5beginEv @3746
    _ZN18wxsResourceFactory32HashT_wxImplementation_HashTable5clearEv @3747
    _ZN18wxsResourceFactory32HashT_wxImplementation_HashTable8Iterator11GetNextNodeEv @3748
    _ZN18wxsResourceFactory32HashT_wxImplementation_HashTable8Iterator8PlusPlusEv @3749
    _ZN18wxsResourceFactory32HashT_wxImplementation_HashTable8IteratorC2EPNS0_4NodeEPKS0_ @3750
    _ZN18wxsResourceFactory32HashT_wxImplementation_HashTable8iteratorC1EPNS0_4NodeEPS0_ @3751
    _ZN18wxsResourceFactory32HashT_wxImplementation_HashTable8iteratorppEv @3752
    _ZN18wxsResourceFactory32HashT_wxImplementation_HashTableC2EjRK12wxStringHashRK13wxStringEqualRKNS_28HashT_wxImplementation_KeyExE @3753
    _ZN18wxsResourceFactory32HashT_wxImplementation_HashTableD2Ev @3754
    _ZN18wxsResourceFactory5BuildERK8wxStringP10wxsProject @3755
    _ZN18wxsResourceFactory5HashTC1Ej12wxStringHash13wxStringEqual @3756
    _ZN18wxsResourceFactory5HashTD1Ev @3757
    _ZN18wxsResourceFactory5HashTixERK8wxString @3758
    _ZN18wxsResourceFactory6m_HashE @3759 DATA
    _ZN18wxsResourceFactory8OnAttachEv @3760
    _ZN18wxsResourceFactory9OnReleaseEv @3761
    _ZN18wxsResourceFactoryC1Ev @3762
    _ZN18wxsResourceFactoryC2Ev @3763
    _ZN18wxsResourceFactoryD0Ev @3764
    _ZN18wxsResourceFactoryD1Ev @3765
    _ZN18wxsResourceFactoryD2Ev @3766
    _ZN18wxsScrollingDialog14OnBuildPreviewEP8wxWindowl @3767
    _ZN18wxsScrollingDialog19OnBuildCreatingCodeEv @3768
    _ZN18wxsScrollingDialog25OnEnumContainerPropertiesEl @3769
    _ZN18wxsScrollingDialogC1EP14wxsItemResData @3770
    _ZN18wxsScrollingDialogC2EP14wxsItemResData @3771
    _ZN18wxsScrollingDialogD0Ev @3772
    _ZN18wxsScrollingDialogD1Ev @3773
    _ZN18wxsTextEntryDialog19OnBuildCreatingCodeEv @3774
    _ZN18wxsTextEntryDialog20OnEnumToolPropertiesEl @3775
    _ZN18wxsTextEntryDialogC1EP14wxsItemResData @3776
    _ZN18wxsTextEntryDialogC2EP14wxsItemResData @3777
    _ZN18wxsTextEntryDialogD0Ev @3778
    _ZN18wxsTextEntryDialogD1Ev @3779
    _ZN19CodeBlocksDockEventC1Eii @3780
    _ZN19CodeBlocksDockEventD1Ev @3781
    _ZN19wxAnimationCtrlBaseC2Ev @3782
    _ZN19wxAnimationCtrlBaseD2Ev @3783
    _ZN19wxArrayEditorDialog10OnAddClickER14wxCommandEvent @3784
    _ZN19wxArrayEditorDialog11OnDownClickER14wxCommandEvent @3785
    _ZN19wxArrayEditorDialog12ms_classInfoE @3786 DATA
    _ZN19wxArrayEditorDialog13OnDeleteClickER14wxCommandEvent @3787
    _ZN19wxArrayEditorDialog13OnUpdateClickER14wxCommandEvent @3788
    _ZN19wxArrayEditorDialog13sm_eventTableE @3789 DATA
    _ZN19wxArrayEditorDialog14OnListBoxClickER14wxCommandEvent @3790
    _ZN19wxArrayEditorDialog14SetDialogValueERK9wxVariant @3791
    _ZN19wxArrayEditorDialog17sm_eventHashTableE @3792 DATA
    _ZN19wxArrayEditorDialog20sm_eventTableEntriesE @3793 DATA
    _ZN19wxArrayEditorDialog4InitEv @3794
    _ZN19wxArrayEditorDialog6CreateEP8wxWindowRK8wxStringS4_lRK7wxPointRK6wxSize @3795
    _ZN19wxArrayEditorDialog6OnIdleER11wxIdleEvent @3796
    _ZN19wxArrayEditorDialog9OnUpClickER14wxCommandEvent @3797
    _ZN19wxArrayEditorDialogC1EP8wxWindowRK8wxStringS4_lRK7wxPointRK6wxSize @3798
    _ZN19wxArrayEditorDialogC1Ev @3799
    _ZN19wxArrayEditorDialogC2EP8wxWindowRK8wxStringS4_lRK7wxPointRK6wxSize @3800
    _ZN19wxArrayEditorDialogC2Ev @3801
    _ZN19wxArrayEditorDialogD0Ev @3802
    _ZN19wxArrayEditorDialogD1Ev @3803
    _ZN19wxArrayEditorDialogD2Ev @3804
    _ZN19wxImageFileProperty10OnSetValueEv @3805
    _ZN19wxImageFileProperty12ms_classInfoE @3806 DATA
    _ZN19wxImageFileProperty13OnCustomPaintER4wxDCRK6wxRectR13wxPGPaintData @3807
    _ZN19wxImageFileProperty14wxCreateObjectEv @3808
    _ZN19wxImageFilePropertyC1ERK8wxStringS2_S2_ @3809
    _ZN19wxImageFilePropertyC2ERK8wxStringS2_S2_ @3810
    _ZN19wxImageFilePropertyD0Ev @3811
    _ZN19wxImageFilePropertyD1Ev @3812
    _ZN19wxImageFilePropertyD2Ev @3813
    _ZN19wxListBoxItemsArrayC1Ev @3814
    _ZN19wxListBoxItemsArrayD1Ev @3815
    _ZN19wxMultiChoiceDialogC1EP8wxWindowRK8wxStringS4_iPS3_lRK7wxPoint @3816
    _ZN19wxMultiChoiceDialogD1Ev @3817
    _ZN19wxPGDefaultRendererC1Ev @3818
    _ZN19wxPGDefaultRendererD0Ev @3819
    _ZN19wxPGDefaultRendererD1Ev @3820
    _ZN19wxPGGlobalVarsClassC1Ev @3821
    _ZN19wxPGGlobalVarsClassC2Ev @3822
    _ZN19wxPGGlobalVarsClassD1Ev @3823
    _ZN19wxPGGlobalVarsClassD2Ev @3824
    _ZN19wxPGStringTokenizer12GetNextTokenEv @3825
    _ZN19wxPGStringTokenizer13HasMoreTokensEv @3826
    _ZN19wxPGStringTokenizerC1ERK8wxStringw @3827
    _ZN19wxPGStringTokenizerC2ERK8wxStringw @3828
    _ZN19wxPGStringTokenizerD1Ev @3829
    _ZN19wxPGStringTokenizerD2Ev @3830
    _ZN19wxPGVariantDataFont11GetValuePtrEv @3831
    _ZN19wxPGVariantDataFont11GetValueRefEv @3832
    _ZN19wxPGVariantDataFont12ms_classInfoE @3833 DATA
    _ZN19wxPGVariantDataFont14wxCreateObjectEv @3834
    _ZN19wxPGVariantDataFont17GetValueClassInfoEv @3835
    _ZN19wxPGVariantDataFont4ReadER8wxString @3836
    _ZN19wxPGVariantDataFont5CloneEv @3837
    _ZN19wxPGVariantDataFontC1ERK6wxFont @3838
    _ZN19wxPGVariantDataFontC1Ev @3839
    _ZN19wxPGVariantDataFontD0Ev @3840
    _ZN19wxPGVariantDataFontD1Ev @3841
    _ZN19wxPGVariantDataSize11GetValuePtrEv @3842
    _ZN19wxPGVariantDataSize11GetValueRefEv @3843
    _ZN19wxPGVariantDataSize12ms_classInfoE @3844 DATA
    _ZN19wxPGVariantDataSize14wxCreateObjectEv @3845
    _ZN19wxPGVariantDataSize4ReadER8wxString @3846
    _ZN19wxPGVariantDataSize5CloneEv @3847
    _ZN19wxPGVariantDataSizeC1ERK6wxSize @3848
    _ZN19wxPGVariantDataSizeC1Ev @3849
    _ZN19wxPGVariantDataSizeD0Ev @3850
    _ZN19wxPGVariantDataSizeD1Ev @3851
    _ZN19wxPropertyGridEvent10SetCanVetoEb @3852
    _ZN19wxPropertyGridEvent11SetPropertyEP12wxPGProperty @3853
    _ZN19wxPropertyGridEvent12ms_classInfoE @3854 DATA
    _ZN19wxPropertyGridEvent14EnablePropertyEb @3855
    _ZN19wxPropertyGridEvent14wxCreateObjectEv @3856
    _ZN19wxPropertyGridEvent15DisablePropertyEv @3857
    _ZN19wxPropertyGridEvent15SetPropertyGridEP14wxPropertyGrid @3858
    _ZN19wxPropertyGridEvent17GetValidationInfoEv @3859
    _ZN19wxPropertyGridEvent19SetupValidationInfoEv @3860
    _ZN19wxPropertyGridEvent27SetValidationFailureMessageERK8wxString @3861
    _ZN19wxPropertyGridEvent28SetValidationFailureBehaviorEi @3862
    _ZN19wxPropertyGridEvent4InitEv @3863
    _ZN19wxPropertyGridEvent4VetoEb @3864
    _ZN19wxPropertyGridEvent9SetColumnEj @3865
    _ZN19wxPropertyGridEventC1ERKS_ @3866
    _ZN19wxPropertyGridEventC1Eii @3867
    _ZN19wxPropertyGridEventC2ERKS_ @3868
    _ZN19wxPropertyGridEventC2Eii @3869
    _ZN19wxPropertyGridEventD0Ev @3870
    _ZN19wxPropertyGridEventD1Ev @3871
    _ZN19wxPropertyGridEventD2Ev @3872
    _ZN19wxPropertyGridState10DoCollapseEP12wxPGProperty @3873
    _ZN19wxPropertyGridState11GetLastItemEi @3874
    _ZN19wxPropertyGridState12DoFitColumnsEb @3875
    _ZN19wxPropertyGridState14DoHidePropertyEP12wxPGPropertybi @3876
    _ZN19wxPropertyGridState14DoSetSelectionEP12wxPGProperty @3877
    _ZN19wxPropertyGridState14InitNonCatModeEv @3878
    _ZN19wxPropertyGridState14SetColumnCountEi @3879
    _ZN19wxPropertyGridState15GetNextPropertyEP12wxPGProperty @3880
    _ZN19wxPropertyGridState15GetPrevPropertyEP12wxPGProperty @3881
    _ZN19wxPropertyGridState15SetSplitterLeftEb @3882
    _ZN19wxPropertyGridState15SetVirtualWidthEi @3883
    _ZN19wxPropertyGridState16DoClearSelectionEv @3884
    _ZN19wxPropertyGridState16DoEnablePropertyEP12wxPGPropertyb @3885
    _ZN19wxPropertyGridState16DoSelectPropertyEP12wxPGPropertyj @3886
    _ZN19wxPropertyGridState16EnableCategoriesEb @3887
    _ZN19wxPropertyGridState16GetVirtualHeightEv @3888
    _ZN19wxPropertyGridState16PrepareToAddItemEP12wxPGPropertyS1_ @3889
    _ZN19wxPropertyGridState16ResetColumnSizesEb @3890
    _ZN19wxPropertyGridState17CheckColumnWidthsEi @3891
    _ZN19wxPropertyGridState18DoSetPropertyValueEP12wxPGPropertyR9wxVariant @3892
    _ZN19wxPropertyGridState19ClearModifiedStatusEP12wxPGProperty @3893
    _ZN19wxPropertyGridState19DoSetPropertyValuesERK6wxListP12wxPGProperty @3894
    _ZN19wxPropertyGridState19EnsureVirtualHeightEv @3895
    _ZN19wxPropertyGridState19OnClientWidthChangeEiib @3896
    _ZN19wxPropertyGridState19PropagateColSizeDecEiii @3897
    _ZN19wxPropertyGridState20VirtualHeightChangedEv @3898
    _ZN19wxPropertyGridState21DoRemoveFromSelectionEP12wxPGProperty @3899
    _ZN19wxPropertyGridState21DoSetColumnProportionEji @3900
    _ZN19wxPropertyGridState21DoSetSplitterPositionEiibb @3901
    _ZN19wxPropertyGridState22DoLimitPropertyEditingEP12wxPGPropertyb @3902
    _ZN19wxPropertyGridState22GetNextSiblingPropertyEP12wxPGProperty @3903
    _ZN19wxPropertyGridState22GetPrevSiblingPropertyEP12wxPGProperty @3904
    _ZN19wxPropertyGridState24DoSetPropertyValueStringEP12wxPGPropertyRK8wxString @3905
    _ZN19wxPropertyGridState24RecalculateVirtualHeightEv @3906
    _ZN19wxPropertyGridState27CalculateFontAndBitmapStuffEi @3907
    _ZN19wxPropertyGridState29DoSetPropertyValueWxObjectPtrEP12wxPGPropertyP8wxObject @3908
    _ZN19wxPropertyGridState4SortEP12wxPGProperty @3909
    _ZN19wxPropertyGridState4SortEv @3910
    _ZN19wxPropertyGridState7DoClearEv @3911
    _ZN19wxPropertyGridState8DoAppendEP12wxPGProperty @3912
    _ZN19wxPropertyGridState8DoDeleteEP12wxPGPropertyb @3913
    _ZN19wxPropertyGridState8DoExpandEP12wxPGProperty @3914
    _ZN19wxPropertyGridState8DoInsertEP12wxPGPropertyiS1_ @3915
    _ZN19wxPropertyGridStateC1Ev @3916
    _ZN19wxPropertyGridStateC2Ev @3917
    _ZN19wxPropertyGridStateD0Ev @3918
    _ZN19wxPropertyGridStateD1Ev @3919
    _ZN19wxPropertyGridStateD2Ev @3920
    _ZN19wxSimpleHtmlListBox6AppendERK8wxString @3921
    _ZN19wxSimpleHtmlListBoxC1EP8wxWindowiRK7wxPointRK6wxSizeiPK8wxStringlRK11wxValidatorRS9_ @3922
    _ZN19wxTopLevelWindowMSWC2Ev @3923
    _ZN19wxWidgetsResFactory10OnGetCountEv @3924
    _ZN19wxWidgetsResFactory11OnNewWizardEiP10wxsProject @3925
    _ZN19wxWidgetsResFactory15OnBuildExternalERK8wxString @3926
    _ZN19wxWidgetsResFactory18OnResourceTreeIconEi @3927
    _ZN19wxWidgetsResFactory19OnCanHandleExternalERK8wxString @3928
    _ZN19wxWidgetsResFactory8OnAttachEv @3929
    _ZN19wxWidgetsResFactory8OnCreateEiP10wxsProject @3930
    _ZN19wxWidgetsResFactory9OnGetInfoEiR8wxStringS1_ @3931
    _ZN19wxWidgetsResFactory9OnReleaseEv @3932
    _ZN19wxWidgetsResFactoryC1Ev @3933
    _ZN19wxWidgetsResFactoryC2Ev @3934
    _ZN19wxWidgetsResFactoryD0Ev @3935
    _ZN19wxWidgetsResFactoryD1Ev @3936
    _ZN19wxsColourPickerCtrl14OnBuildPreviewEP8wxWindowl @3937
    _ZN19wxsColourPickerCtrl19OnBuildCreatingCodeEv @3938
    _ZN19wxsColourPickerCtrl22OnEnumWidgetPropertiesEl @3939
    _ZN19wxsColourPickerCtrlC1EP14wxsItemResData @3940
    _ZN19wxsColourPickerCtrlC2EP14wxsItemResData @3941
    _ZN19wxsColourPickerCtrlD0Ev @3942
    _ZN19wxsColourPickerCtrlD1Ev @3943
    _ZN19wxsEditEnumProperty11GetTypeNameEv @3944
    _ZN19wxsEditEnumProperty14PropStreamReadEP20wxsPropertyContainerP17wxsPropertyStream @3945
    _ZN19wxsEditEnumProperty15PropStreamWriteEP20wxsPropertyContainerP17wxsPropertyStream @3946
    _ZN19wxsEditEnumProperty6PGReadEP20wxsPropertyContainerP21wxPropertyGridManagerP12wxPGPropertyl @3947
    _ZN19wxsEditEnumProperty7PGWriteEP20wxsPropertyContainerP21wxPropertyGridManagerP12wxPGPropertyl @3948
    _ZN19wxsEditEnumProperty7XmlReadEP20wxsPropertyContainerP12TiXmlElement @3949
    _ZN19wxsEditEnumProperty8PGCreateEP20wxsPropertyContainerP21wxPropertyGridManagerP12wxPGProperty @3950
    _ZN19wxsEditEnumProperty8XmlWriteEP20wxsPropertyContainerP12TiXmlElement @3951
    _ZN19wxsEditEnumPropertyC1ERK8wxStringS2_lPPKwbS2_bbi @3952
    _ZN19wxsEditEnumPropertyC2ERK8wxStringS2_lPPKwbS2_bbi @3953
    _ZN19wxsEditEnumPropertyD0Ev @3954
    _ZN19wxsEditEnumPropertyD1Ev @3955
    _ZN19wxsHtmlEasyPrinting19OnBuildCreatingCodeEv @3956
    _ZN19wxsHtmlEasyPrinting20OnEnumToolPropertiesEl @3957
    _ZN19wxsHtmlEasyPrintingC1EP14wxsItemResData @3958
    _ZN19wxsHtmlEasyPrintingC2EP14wxsItemResData @3959
    _ZN19wxsHtmlEasyPrintingD0Ev @3960
    _ZN19wxsHtmlEasyPrintingD1Ev @3961
    _ZN19wxsItemResFunctionsC2Ev @3962
    _ZN19wxsItemResFunctionsD0Ev @3963
    _ZN19wxsItemResFunctionsD1Ev @3964
    _ZN19wxsItemResFunctionsD2Ev @3965
    _ZN19wxsPositionSizeData11GetPositionEP8wxWindow @3966
    _ZN19wxsPositionSizeData11GetSizeCodeEP15wxsCoderContext @3967
    _ZN19wxsPositionSizeData11SetPositionERK7wxPointP8wxWindow @3968
    _ZN19wxsPositionSizeData15GetPositionCodeEP15wxsCoderContext @3969
    _ZN19wxsPositionSizeData7GetSizeEP8wxWindow @3970
    _ZN19wxsPositionSizeData7SetSizeERK6wxSizeP8wxWindow @3971
    _ZN19wxsPositionSizeDataC1Ev @3972
    _ZN19wxsSashLayoutWindow13OnCanAddChildEP7wxsItemb @3973
    _ZN19wxsSashLayoutWindow14OnBuildPreviewEP8wxWindowl @3974
    _ZN19wxsSashLayoutWindow19OnBuildCreatingCodeEv @3975
    _ZN19wxsSashLayoutWindow25OnEnumContainerPropertiesEl @3976
    _ZN19wxsSashLayoutWindowC1EP14wxsItemResData @3977
    _ZN19wxsSashLayoutWindowC2EP14wxsItemResData @3978
    _ZN19wxsSashLayoutWindowD0Ev @3979
    _ZN19wxsSashLayoutWindowD1Ev @3980
    _ZN19wxsVersionConverter3GetEv @3981
    _ZN19wxsVersionConverterC1Ev @3982
    _ZN19wxsVersionConverterD1Ev @3983
    _ZN20cbConfigurationPanel11OnInitPanelEv @3984
    _ZN20cbConfigurationPanel9GetBitmapEv @3985
    _ZN20cbConfigurationPanelC2Ev @3986
    _ZN20cbConfigurationPanelD0Ev @3987
    _ZN20cbConfigurationPanelD1Ev @3988
    _ZN20cbConfigurationPanelD2Ev @3989
    _ZN20wxDatePickerCtrlBaseC2Ev @3990
    _ZN20wxDatePickerCtrlBaseD0Ev @3991
    _ZN20wxDatePickerCtrlBaseD1Ev @3992
    _ZN20wxDatePickerCtrlBaseD2Ev @3993
    _ZN20wxImageHistogramBaseC2Ej13wxIntegerHash14wxIntegerEqual @3994
    _ZN20wxImageHistogramBaseD2Ev @3995
    _ZN20wxImageHistogramBaseixERKm @3996
    _ZN20wxLongStringProperty12ms_classInfoE @3997 DATA
    _ZN20wxLongStringProperty13OnButtonClickEP14wxPropertyGridR8wxString @3998
    _ZN20wxLongStringProperty14wxCreateObjectEv @3999
    _ZN20wxLongStringProperty19DisplayEditorDialogEP12wxPGPropertyP14wxPropertyGridR8wxString @4000
    _ZN20wxLongStringProperty7OnEventEP14wxPropertyGridP8wxWindowR7wxEvent @4001
    _ZN20wxLongStringPropertyC1ERK8wxStringS2_S2_ @4002
    _ZN20wxLongStringPropertyC2ERK8wxStringS2_S2_ @4003
    _ZN20wxLongStringPropertyD0Ev @4004
    _ZN20wxLongStringPropertyD1Ev @4005
    _ZN20wxLongStringPropertyD2Ev @4006
    _ZN20wxNativeEncodingInfoaSERKS_ @4007
    _ZN20wxNavigationKeyEvent8SetFlagsEl @4008
    _ZN20wxNavigationKeyEventC1Ev @4009
    _ZN20wxNavigationKeyEventD1Ev @4010
    _ZN20wxOwnerDrawnComboBox12SetSelectionEi @4011
    _ZN20wxOwnerDrawnComboBox12SetSelectionEll @4012
    _ZN20wxOwnerDrawnComboBox13GetWidestItemEv @4013
    _ZN20wxOwnerDrawnComboBox13SetClientDataEPv @4014
    _ZN20wxOwnerDrawnComboBox13SetClientDataEjPv @4015
    _ZN20wxOwnerDrawnComboBox15SetClientObjectEP12wxClientData @4016
    _ZN20wxOwnerDrawnComboBox15SetClientObjectEjP12wxClientData @4017
    _ZN20wxOwnerDrawnComboBox15SetPopupControlEP20wxVListBoxComboPopup @4018
    _ZN20wxOwnerDrawnComboBox18GetWidestItemWidthEv @4019
    _ZN20wxOwnerDrawnComboBoxC1EP8wxWindowiRK8wxStringRK7wxPointRK6wxSizeiPS3_lRK11wxValidatorS4_ @4020
    _ZN20wxOwnerDrawnComboBoxC1Ev @4021
    _ZN20wxOwnerDrawnComboBoxC2EP8wxWindowiRK8wxStringRK7wxPointRK6wxSizeiPS3_lRK11wxValidatorS4_ @4022
    _ZN20wxOwnerDrawnComboBoxC2Ev @4023
    _ZN20wxPGAttributeStorage3SetERK8wxStringRK9wxVariant @4024
    _ZN20wxPGAttributeStorageC1Ev @4025
    _ZN20wxPGAttributeStorageC2Ev @4026
    _ZN20wxPGAttributeStorageD1Ev @4027
    _ZN20wxPGAttributeStorageD2Ev @4028
    _ZN20wxPGVariantDataPoint11GetValuePtrEv @4029
    _ZN20wxPGVariantDataPoint11GetValueRefEv @4030
    _ZN20wxPGVariantDataPoint12ms_classInfoE @4031 DATA
    _ZN20wxPGVariantDataPoint14wxCreateObjectEv @4032
    _ZN20wxPGVariantDataPoint4ReadER8wxString @4033
    _ZN20wxPGVariantDataPoint5CloneEv @4034
    _ZN20wxPGVariantDataPointC1ERK7wxPoint @4035
    _ZN20wxPGVariantDataPointC1Ev @4036
    _ZN20wxPGVariantDataPointD0Ev @4037
    _ZN20wxPGVariantDataPointD1Ev @4038
    _ZN20wxStringOutputStreamC1EP8wxString @4039
    _ZN20wxTopLevelWindowBase8IsActiveEv @4040
    _ZN20wxVListBoxComboPopup13GetWidestItemEv @4041
    _ZN20wxVListBoxComboPopup18GetWidestItemWidthEv @4042
    _ZN20wxsContextHelpButton14OnBuildPreviewEP8wxWindowl @4043
    _ZN20wxsContextHelpButton19OnBuildCreatingCodeEv @4044
    _ZN20wxsContextHelpButton22OnEnumWidgetPropertiesEl @4045
    _ZN20wxsContextHelpButtonC1EP14wxsItemResData @4046
    _ZN20wxsContextHelpButtonC2EP14wxsItemResData @4047
    _ZN20wxsContextHelpButtonD0Ev @4048
    _ZN20wxsContextHelpButtonD1Ev @4049
    _ZN20wxsDimensionProperty11GetTypeNameEv @4050
    _ZN20wxsDimensionProperty14PropStreamReadEP20wxsPropertyContainerP17wxsPropertyStream @4051
    _ZN20wxsDimensionProperty15PropStreamWriteEP20wxsPropertyContainerP17wxsPropertyStream @4052
    _ZN20wxsDimensionProperty6PGReadEP20wxsPropertyContainerP21wxPropertyGridManagerP12wxPGPropertyl @4053
    _ZN20wxsDimensionProperty7PGWriteEP20wxsPropertyContainerP21wxPropertyGridManagerP12wxPGPropertyl @4054
    _ZN20wxsDimensionProperty7XmlReadEP20wxsPropertyContainerP12TiXmlElement @4055
    _ZN20wxsDimensionProperty8PGCreateEP20wxsPropertyContainerP21wxPropertyGridManagerP12wxPGProperty @4056
    _ZN20wxsDimensionProperty8XmlWriteEP20wxsPropertyContainerP12TiXmlElement @4057
    _ZN20wxsDimensionPropertyC1ERK8wxStringS2_S2_llbi @4058
    _ZN20wxsDimensionPropertyC2ERK8wxStringS2_S2_llbi @4059
    _ZN20wxsDimensionPropertyD0Ev @4060
    _ZN20wxsDimensionPropertyD1Ev @4061
    _ZN20wxsFindReplaceDialog19OnBuildCreatingCodeEv @4062
    _ZN20wxsFindReplaceDialog20OnEnumToolPropertiesEl @4063
    _ZN20wxsFindReplaceDialogC1EP14wxsItemResData @4064
    _ZN20wxsFindReplaceDialogC2EP14wxsItemResData @4065
    _ZN20wxsFindReplaceDialogD0Ev @4066
    _ZN20wxsFindReplaceDialogD1Ev @4067
    _ZN20wxsFontFaceEditorDlg10ID_BUTTON1E @4068 DATA
    _ZN20wxsFontFaceEditorDlg12ID_TEXTCTRL1E @4069 DATA
    _ZN20wxsFontFaceEditorDlg13sm_eventTableE @4070 DATA
    _ZN20wxsFontFaceEditorDlg14OnButton1ClickER14wxCommandEvent @4071
    _ZN20wxsFontFaceEditorDlg14OnButton2ClickER14wxCommandEvent @4072
    _ZN20wxsFontFaceEditorDlg17sm_eventHashTableE @4073 DATA
    _ZN20wxsFontFaceEditorDlg20sm_eventTableEntriesE @4074 DATA
    _ZN20wxsFontFaceEditorDlgC1EP8wxWindowR8wxStringi @4075
    _ZN20wxsFontFaceEditorDlgC2EP8wxWindowR8wxStringi @4076
    _ZN20wxsFontFaceEditorDlgD0Ev @4077
    _ZN20wxsFontFaceEditorDlgD1Ev @4078
    _ZN20wxsFontFaceEditorDlgD2Ev @4079
    _ZN20wxsImageListProperty10ShowEditorEP20wxsPropertyContainer @4080
    _ZN20wxsImageListProperty11GetTypeNameEv @4081
    _ZN20wxsImageListProperty14PropStreamReadEP20wxsPropertyContainerP17wxsPropertyStream @4082
    _ZN20wxsImageListProperty15PropStreamWriteEP20wxsPropertyContainerP17wxsPropertyStream @4083
    _ZN20wxsImageListProperty6GetStrEP20wxsPropertyContainer @4084
    _ZN20wxsImageListProperty7XmlReadEP20wxsPropertyContainerP12TiXmlElement @4085
    _ZN20wxsImageListProperty8XmlWriteEP20wxsPropertyContainerP12TiXmlElement @4086
    _ZN20wxsImageListPropertyC1ERK8wxStringS2_S2_li @4087
    _ZN20wxsImageListPropertyC2ERK8wxStringS2_S2_li @4088
    _ZN20wxsImageListPropertyD0Ev @4089
    _ZN20wxsImageListPropertyD1Ev @4090
    _ZN20wxsItemEditorContent10PaintExtraEP4wxDC @4091
    _ZN20wxsItemEditorContent11DragPointsT3AddEPNS_13DragPointDataEj @4092
    _ZN20wxsItemEditorContent11DragPointsTC1Ev @4093
    _ZN20wxsItemEditorContent11DragPointsTD1Ev @4094
    _ZN20wxsItemEditorContent11ItemToRectT4findERKPKv @4095
    _ZN20wxsItemEditorContent11ItemToRectTC1Ej13wxPointerHash14wxPointerEqual @4096
    _ZN20wxsItemEditorContent11ItemToRectTD1Ev @4097
    _ZN20wxsItemEditorContent11ItemToRectTixERKPKv @4098
    _ZN20wxsItemEditorContent11OnMouseIdleER12wxMouseEvent @4099
    _ZN20wxsItemEditorContent13AddDragPointsEP7wxsItemS1_ @4100
    _ZN20wxsItemEditorContent13FindItemAtPosEiiP7wxsItem @4101
    _ZN20wxsItemEditorContent13ItemToWindowT4findERKPKv @4102
    _ZN20wxsItemEditorContent13ItemToWindowTC1Ej13wxPointerHash14wxPointerEqual @4103
    _ZN20wxsItemEditorContent13ItemToWindowTD1Ev @4104
    _ZN20wxsItemEditorContent13ItemToWindowTixERKPKv @4105
    _ZN20wxsItemEditorContent13sm_eventTableE @4106 DATA
    _ZN20wxsItemEditorContent14GreyDragPointsEv @4107
    _ZN20wxsItemEditorContent15AddItemAtTargetEP9wxsParentiPK11wxsItemInfoii @4108
    _ZN20wxsItemEditorContent15ClearDragPointsEv @4109
    _ZN20wxsItemEditorContent15RecalculateMapsEv @4110
    _ZN20wxsItemEditorContent16FindAbsoluteRectEP7wxsItemRiS2_S2_S2_ @4111
    _ZN20wxsItemEditorContent16GetPreviewWindowEP7wxsItem @4112
    _ZN20wxsItemEditorContent16InsertByPointingEPK11wxsItemInfo @4113
    _ZN20wxsItemEditorContent16RefreshSelectionEv @4114
    _ZN20wxsItemEditorContent16ScreenShootTakenEv @4115
    _ZN20wxsItemEditorContent16UpdateDragPointsEPNS_13DragPointDataE @4116
    _ZN20wxsItemEditorContent17IsContinousInsertEv @4117
    _ZN20wxsItemEditorContent17RebuildDragPointsEv @4118
    _ZN20wxsItemEditorContent17sm_eventHashTableE @4119 DATA
    _ZN20wxsItemEditorContent18FindDragPointAtPosEii @4120
    _ZN20wxsItemEditorContent18RecalculateMapsReqEP7wxsItem @4121
    _ZN20wxsItemEditorContent19AfterPreviewChangedEv @4122
    _ZN20wxsItemEditorContent19OnMouseDraggingItemER12wxMouseEvent @4123
    _ZN20wxsItemEditorContent19OnMouseTargetSearchER12wxMouseEvent @4124
    _ZN20wxsItemEditorContent20BeforePreviewChangedEv @4125
    _ZN20wxsItemEditorContent20OnMouseDraggingPointER12wxMouseEvent @4126
    _ZN20wxsItemEditorContent20sm_eventTableEntriesE @4127 DATA
    _ZN20wxsItemEditorContent21FindDragPointFromItemEP7wxsItem @4128
    _ZN20wxsItemEditorContent22FindDraggingItemTargetEiiP7wxsItemRP9wxsParentRS1_Rb @4129
    _ZN20wxsItemEditorContent23OnMouseDraggingItemInitER12wxMouseEvent @4130
    _ZN20wxsItemEditorContent24OnMouseDraggingPointInitER12wxMouseEvent @4131
    _ZN20wxsItemEditorContent29GridFixupForGlobalCoordinatesERiS0_P7wxsItem @4132
    _ZN20wxsItemEditorContent33ItemToRectT_wxImplementation_PairC1ERKPKvRK6wxRect @4133
    _ZN20wxsItemEditorContent34ItemToRectT_wxImplementation_KeyExC1Ev @4134
    _ZN20wxsItemEditorContent35ItemToWindowT_wxImplementation_PairC1ERKPKvRKPK8wxWindow @4135
    _ZN20wxsItemEditorContent36ItemToWindowT_wxImplementation_KeyExC1Ev @4136
    _ZN20wxsItemEditorContent38ItemToRectT_wxImplementation_HashTable10CreateNodeERKNS_33ItemToRectT_wxImplementation_PairEj @4137
    _ZN20wxsItemEditorContent38ItemToRectT_wxImplementation_HashTable10DeleteNodeEP21_wxHashTable_NodeBase @4138
    _ZN20wxsItemEditorContent38ItemToRectT_wxImplementation_HashTable11ResizeTableEj @4139
    _ZN20wxsItemEditorContent38ItemToRectT_wxImplementation_HashTable15GetOrCreateNodeERKNS_33ItemToRectT_wxImplementation_PairERb @4140
    _ZN20wxsItemEditorContent38ItemToRectT_wxImplementation_HashTable16GetBucketForNodeEPS0_PNS0_4NodeE @4141
    _ZN20wxsItemEditorContent38ItemToRectT_wxImplementation_HashTable3endEv @4142
    _ZN20wxsItemEditorContent38ItemToRectT_wxImplementation_HashTable4Node6m_nextEv @4143
    _ZN20wxsItemEditorContent38ItemToRectT_wxImplementation_HashTable4NodeC1ERKNS_33ItemToRectT_wxImplementation_PairE @4144
    _ZN20wxsItemEditorContent38ItemToRectT_wxImplementation_HashTable5clearEv @4145
    _ZN20wxsItemEditorContent38ItemToRectT_wxImplementation_HashTable8IteratorC2EPNS0_4NodeEPKS0_ @4146
    _ZN20wxsItemEditorContent38ItemToRectT_wxImplementation_HashTable8iteratorC1EPNS0_4NodeEPS0_ @4147
    _ZN20wxsItemEditorContent38ItemToRectT_wxImplementation_HashTableC2EjRK13wxPointerHashRK14wxPointerEqualRKNS_34ItemToRectT_wxImplementation_KeyExE @4148
    _ZN20wxsItemEditorContent38ItemToRectT_wxImplementation_HashTableD2Ev @4149
    _ZN20wxsItemEditorContent40ItemToWindowT_wxImplementation_HashTable10CreateNodeERKNS_35ItemToWindowT_wxImplementation_PairEj @4150
    _ZN20wxsItemEditorContent40ItemToWindowT_wxImplementation_HashTable10DeleteNodeEP21_wxHashTable_NodeBase @4151
    _ZN20wxsItemEditorContent40ItemToWindowT_wxImplementation_HashTable11ResizeTableEj @4152
    _ZN20wxsItemEditorContent40ItemToWindowT_wxImplementation_HashTable15GetOrCreateNodeERKNS_35ItemToWindowT_wxImplementation_PairERb @4153
    _ZN20wxsItemEditorContent40ItemToWindowT_wxImplementation_HashTable16GetBucketForNodeEPS0_PNS0_4NodeE @4154
    _ZN20wxsItemEditorContent40ItemToWindowT_wxImplementation_HashTable3endEv @4155
    _ZN20wxsItemEditorContent40ItemToWindowT_wxImplementation_HashTable4Node6m_nextEv @4156
    _ZN20wxsItemEditorContent40ItemToWindowT_wxImplementation_HashTable4NodeC1ERKNS_35ItemToWindowT_wxImplementation_PairE @4157
    _ZN20wxsItemEditorContent40ItemToWindowT_wxImplementation_HashTable5clearEv @4158
    _ZN20wxsItemEditorContent40ItemToWindowT_wxImplementation_HashTable8IteratorC2EPNS0_4NodeEPKS0_ @4159
    _ZN20wxsItemEditorContent40ItemToWindowT_wxImplementation_HashTable8iteratorC1EPNS0_4NodeEPS0_ @4160
    _ZN20wxsItemEditorContent40ItemToWindowT_wxImplementation_HashTableC2EjRK13wxPointerHashRK14wxPointerEqualRKNS_36ItemToWindowT_wxImplementation_KeyExE @4161
    _ZN20wxsItemEditorContent40ItemToWindowT_wxImplementation_HashTableD2Ev @4162
    _ZN20wxsItemEditorContent6SetCurEi @4163
    _ZN20wxsItemEditorContent7OnMouseER12wxMouseEvent @4164
    _ZN20wxsItemEditorContent9ClearMapsEv @4165
    _ZN20wxsItemEditorContent9GridFixupEP8wxWindowRiS2_ @4166
    _ZN20wxsItemEditorContent9OnKeyDownER10wxKeyEvent @4167
    _ZN20wxsItemEditorContentC1EP8wxWindowP14wxsItemResDataP13wxsItemEditor @4168
    _ZN20wxsItemEditorContentC2EP8wxWindowP14wxsItemResDataP13wxsItemEditor @4169
    _ZN20wxsItemEditorContentD0Ev @4170
    _ZN20wxsItemEditorContentD1Ev @4171
    _ZN20wxsItemEditorContentD2Ev @4172
    _ZN20wxsItemResDataObject10SetXmlDataERK8wxString @4173
    _ZN20wxsItemResDataObject5ClearEv @4174
    _ZN20wxsItemResDataObject7AddItemEP7wxsItem @4175
    _ZN20wxsItemResDataObject7SetDataERK12wxDataFormatjPKv @4176
    _ZN20wxsItemResDataObjectC1Ev @4177
    _ZN20wxsItemResDataObjectC2Ev @4178
    _ZN20wxsItemResDataObjectD0Ev @4179
    _ZN20wxsItemResDataObjectD1Ev @4180
    _ZN20wxsItemResDataObjectD2Ev @4181
    _ZN20wxsMultiChoiceDialog19OnBuildCreatingCodeEv @4182
    _ZN20wxsMultiChoiceDialog20OnEnumToolPropertiesEl @4183
    _ZN20wxsMultiChoiceDialogC1EP14wxsItemResData @4184
    _ZN20wxsMultiChoiceDialogC2EP14wxsItemResData @4185
    _ZN20wxsMultiChoiceDialogD0Ev @4186
    _ZN20wxsMultiChoiceDialogD1Ev @4187
    _ZN20wxsPropertyContainer12SubContainerEPS_l @4188
    _ZN20wxsPropertyContainer12SubContainerERS_l @4189
    _ZN20wxsPropertyContainer13CurrentStreamE @4190 DATA
    _ZN20wxsPropertyContainer14CurrentElementE @4191 DATA
    _ZN20wxsPropertyContainer14PropStreamReadEP17wxsPropertyStream @4192
    _ZN20wxsPropertyContainer15PropStreamWriteEP17wxsPropertyStream @4193
    _ZN20wxsPropertyContainer17OnPropertyChangedEv @4194
    _ZN20wxsPropertyContainer18GetPropertiesFlagsEv @4195
    _ZN20wxsPropertyContainer18ShowInPropertyGridEv @4196
    _ZN20wxsPropertyContainer20NotifyPropertyChangeEb @4197
    _ZN20wxsPropertyContainer20OnAddExtraPropertiesEP22wxsPropertyGridManager @4198
    _ZN20wxsPropertyContainer20OnGetPropertiesFlagsEv @4199
    _ZN20wxsPropertyContainer20OnSubPropertyChangedEPS_ @4200
    _ZN20wxsPropertyContainer22OnExtraPropertyChangedEP22wxsPropertyGridManagerP12wxPGProperty @4201
    _ZN20wxsPropertyContainer23OnCreateQuickPropertiesEP8wxWindow @4202
    _ZN20wxsPropertyContainer25BuildQuickPropertiesPanelEP8wxWindow @4203
    _ZN20wxsPropertyContainer34NotifyPropertyChangeFromQuickPropsEv @4204
    _ZN20wxsPropertyContainer36NotifyPropertyChangeFromPropertyGridEv @4205
    _ZN20wxsPropertyContainer5FlagsE @4206 DATA
    _ZN20wxsPropertyContainer5MutexE @4207 DATA
    _ZN20wxsPropertyContainer6IsReadE @4208 DATA
    _ZN20wxsPropertyContainer7XmlReadEP12TiXmlElement @4209
    _ZN20wxsPropertyContainer8PropertyER11wxsProperty @4210
    _ZN20wxsPropertyContainer8XmlWriteEP12TiXmlElement @4211
    _ZN20wxsPropertyContainerC1Ev @4212
    _ZN20wxsPropertyContainerC2Ev @4213
    _ZN20wxsPropertyContainerD0Ev @4214
    _ZN20wxsPropertyContainerD1Ev @4215
    _ZN20wxsPropertyContainerD2Ev @4216
    _ZN20wxsSimpleHtmlListBox14OnBuildPreviewEP8wxWindowl @4217
    _ZN20wxsSimpleHtmlListBox19OnBuildCreatingCodeEv @4218
    _ZN20wxsSimpleHtmlListBox22OnEnumWidgetPropertiesEl @4219
    _ZN20wxsSimpleHtmlListBoxC1EP14wxsItemResData @4220
    _ZN20wxsSimpleHtmlListBoxC2EP14wxsItemResData @4221
    _ZN20wxsSimpleHtmlListBoxD0Ev @4222
    _ZN20wxsSimpleHtmlListBoxD1Ev @4223
    _ZN20wxwxMenuItemListNodeC1EP10wxListBasePS_S2_P10wxMenuItemRK9wxListKey @4224
    _ZN21_wxHashTable_NodeBaseC2Ev @4225
    _ZN21wxArrayStringProperty10OnSetValueEv @4226
    _ZN21wxArrayStringProperty12ms_classInfoE @4227 DATA
    _ZN21wxArrayStringProperty13OnButtonClickEP14wxPropertyGridP8wxWindowPKw @4228
    _ZN21wxArrayStringProperty14wxCreateObjectEv @4229
    _ZN21wxArrayStringProperty18CreateEditorDialogEv @4230
    _ZN21wxArrayStringProperty18OnCustomStringEditEP8wxWindowR8wxString @4231
    _ZN21wxArrayStringProperty21GenerateValueAsStringEv @4232
    _ZN21wxArrayStringProperty7OnEventEP14wxPropertyGridP8wxWindowR7wxEvent @4233
    _ZN21wxArrayStringPropertyC1ERK8wxStringS2_RK13wxArrayString @4234
    _ZN21wxArrayStringPropertyC2ERK8wxStringS2_RK13wxArrayString @4235
    _ZN21wxArrayStringPropertyD0Ev @4236
    _ZN21wxArrayStringPropertyD1Ev @4237
    _ZN21wxArrayStringPropertyD2Ev @4238
    _ZN21wxColourPropertyValue12ms_classInfoE @4239 DATA
    _ZN21wxColourPropertyValue14wxCreateObjectEv @4240
    _ZN21wxColourPropertyValue4InitEjRK8wxColour @4241
    _ZN21wxColourPropertyValueC1ERK8wxColour @4242
    _ZN21wxColourPropertyValueC1ERKS_ @4243
    _ZN21wxColourPropertyValueC1Ej @4244
    _ZN21wxColourPropertyValueC1EjRK8wxColour @4245
    _ZN21wxColourPropertyValueC1Ev @4246
    _ZN21wxColourPropertyValueC2ERK8wxColour @4247
    _ZN21wxColourPropertyValueC2ERKS_ @4248
    _ZN21wxColourPropertyValueC2Ej @4249
    _ZN21wxColourPropertyValueC2EjRK8wxColour @4250
    _ZN21wxColourPropertyValueC2Ev @4251
    _ZN21wxColourPropertyValueD0Ev @4252
    _ZN21wxColourPropertyValueD1Ev @4253
    _ZN21wxColourPropertyValueD2Ev @4254
    _ZN21wxColourPropertyValueaSERKS_ @4255
    _ZN21wxEventTableEntryBaseC2EiiM8wxObjectFvR7wxEventEPS0_ @4256
    _ZN21wxHtmlWindowInterfaceC2Ev @4257
    _ZN21wxHtmlWindowInterfaceD0Ev @4258
    _ZN21wxHtmlWindowInterfaceD1Ev @4259
    _ZN21wxHtmlWindowInterfaceD2Ev @4260
    _ZN21wxImageHistogramEntryC1Ev @4261
    _ZN21wxMultiChoiceProperty10OnSetValueEv @4262
    _ZN21wxMultiChoiceProperty12ms_classInfoE @4263 DATA
    _ZN21wxMultiChoiceProperty13GetChoiceInfoEP14wxPGChoiceInfo @4264
    _ZN21wxMultiChoiceProperty14wxCreateObjectEv @4265
    _ZN21wxMultiChoiceProperty21GenerateValueAsStringEv @4266
    _ZN21wxMultiChoiceProperty7OnEventEP14wxPropertyGridP8wxWindowR7wxEvent @4267
    _ZN21wxMultiChoicePropertyC1ERK8wxStringS2_RK11wxPGChoicesRK13wxArrayString @4268
    _ZN21wxMultiChoicePropertyC1ERK8wxStringS2_RK13wxArrayString @4269
    _ZN21wxMultiChoicePropertyC1ERK8wxStringS2_RK13wxArrayStringS5_ @4270
    _ZN21wxMultiChoicePropertyC2ERK8wxStringS2_RK11wxPGChoicesRK13wxArrayString @4271
    _ZN21wxMultiChoicePropertyC2ERK8wxStringS2_RK13wxArrayString @4272
    _ZN21wxMultiChoicePropertyC2ERK8wxStringS2_RK13wxArrayStringS5_ @4273
    _ZN21wxMultiChoicePropertyD0Ev @4274
    _ZN21wxMultiChoicePropertyD1Ev @4275
    _ZN21wxMultiChoicePropertyD2Ev @4276
    _ZN21wxPGFileDialogAdapter12DoShowDialogEP14wxPropertyGridP12wxPGProperty @4277
    _ZN21wxPGFileDialogAdapterC1Ev @4278
    _ZN21wxPGFileDialogAdapterD0Ev @4279
    _ZN21wxPGFileDialogAdapterD1Ev @4280
    _ZN21wxPGInDialogValidator10DoValidateEP14wxPropertyGridP11wxValidatorRK8wxString @4281
    _ZN21wxPGInDialogValidatorC1Ev @4282
    _ZN21wxPGInDialogValidatorC2Ev @4283
    _ZN21wxPGInDialogValidatorD1Ev @4284
    _ZN21wxPGInDialogValidatorD2Ev @4285
    _ZN21wxPropertyGridManager10InsertPageEiRK8wxStringRK8wxBitmapP18wxPropertyGridPage @4286
    _ZN21wxPropertyGridManager10RemovePageEi @4287
    _ZN21wxPropertyGridManager10SelectPageEP18wxPropertyGridPage @4288
    _ZN21wxPropertyGridManager10SelectPageERK8wxString @4289
    _ZN21wxPropertyGridManager10SelectPageEi @4290
    _ZN21wxPropertyGridManager11GetIteratorEiP12wxPGProperty @4291
    _ZN21wxPropertyGridManager11GetIteratorEii @4292
    _ZN21wxPropertyGridManager11OnMouseMoveER12wxMouseEvent @4293
    _ZN21wxPropertyGridManager12DoSelectPageEi @4294
    _ZN21wxPropertyGridManager12GetLastChildERK14wxPGPropArgCls @4295
    _ZN21wxPropertyGridManager12OnMouseClickER12wxMouseEvent @4296
    _ZN21wxPropertyGridManager12OnMouseEntryER12wxMouseEvent @4297
    _ZN21wxPropertyGridManager12ProcessEventER7wxEvent @4298
    _ZN21wxPropertyGridManager12ms_classInfoE @4299 DATA
    _ZN21wxPropertyGridManager13EnsureVisibleERK14wxPGPropArgCls @4300
    _ZN21wxPropertyGridManager13SetExtraStyleEl @4301
    _ZN21wxPropertyGridManager13SetTargetPageEPKw @4302
    _ZN21wxPropertyGridManager13SetTargetPageEi @4303
    _ZN21wxPropertyGridManager13sm_eventTableE @4304 DATA
    _ZN21wxPropertyGridManager14ClearSelectionEv @4305
    _ZN21wxPropertyGridManager14OnToolbarClickER14wxCommandEvent @4306
    _ZN21wxPropertyGridManager14SelectPropertyERK14wxPGPropArgClsb @4307
    _ZN21wxPropertyGridManager14SetColumnCountEii @4308
    _ZN21wxPropertyGridManager14SetDescriptionERK8wxStringS2_ @4309
    _ZN21wxPropertyGridManager15RefreshPropertyEP12wxPGProperty @4310
    _ZN21wxPropertyGridManager15RepaintSplitterER4wxDCiiib @4311
    _ZN21wxPropertyGridManager15SetSplitterLeftEbb @4312
    _ZN21wxPropertyGridManager16EnableCategoriesEb @4313
    _ZN21wxPropertyGridManager16GetChildrenCountEi @4314
    _ZN21wxPropertyGridManager16GetChildrenCountEv @4315
    _ZN21wxPropertyGridManager16RecreateControlsEv @4316
    _ZN21wxPropertyGridManager16SetDescBoxHeightEib @4317
    _ZN21wxPropertyGridManager17SetPropertyColourERK14wxPGPropArgClsRK8wxColour @4318
    _ZN21wxPropertyGridManager17sm_eventHashTableE @4319 DATA
    _ZN21wxPropertyGridManager18SetStringSelectionEPKw @4320
    _ZN21wxPropertyGridManager18SetWindowStyleFlagEl @4321
    _ZN21wxPropertyGridManager19ClearModifiedStatusERK14wxPGPropArgCls @4322
    _ZN21wxPropertyGridManager19ClearModifiedStatusEv @4323
    _ZN21wxPropertyGridManager19SetSplitterPositionEii @4324
    _ZN21wxPropertyGridManager20OnPropertyGridSelectER19wxPropertyGridEvent @4325
    _ZN21wxPropertyGridManager20RecalculatePositionsEii @4326
    _ZN21wxPropertyGridManager20SetCaptionTextColourERK14wxPGPropArgClsRK8wxColour @4327
    _ZN21wxPropertyGridManager20SetDescribedPropertyEP12wxPGProperty @4328
    _ZN21wxPropertyGridManager20SetEditableStateItemERK8wxString9wxVariant @4329
    _ZN21wxPropertyGridManager20UpdateDescriptionBoxEiii @4330
    _ZN21wxPropertyGridManager20sm_eventTableEntriesE @4331 DATA
    _ZN21wxPropertyGridManager21SetPropertyTextColourERK14wxPGPropArgClsRK8wxColour @4332
    _ZN21wxPropertyGridManager23CommitChangesFromEditorEj @4333
    _ZN21wxPropertyGridManager23SetPageSplitterPositionEiii @4334
    _ZN21wxPropertyGridManager23SetPropertyAttributeAllERK8wxString9wxVariant @4335
    _ZN21wxPropertyGridManager26SetPropertyColourToDefaultERK14wxPGPropArgCls @4336
    _ZN21wxPropertyGridManager27SetPropertyBackgroundColourERK14wxPGPropArgClsRK8wxColour @4337
    _ZN21wxPropertyGridManager31RegisterAdvancedPropertyClassesEv @4338
    _ZN21wxPropertyGridManager4ThawEv @4339
    _ZN21wxPropertyGridManager5ClearEv @4340
    _ZN21wxPropertyGridManager5Init1Ev @4341
    _ZN21wxPropertyGridManager5Init2Ei @4342
    _ZN21wxPropertyGridManager5SetIdEi @4343
    _ZN21wxPropertyGridManager6CreateEP8wxWindowiRK7wxPointRK6wxSizelRK8wxString @4344
    _ZN21wxPropertyGridManager6FreezeEv @4345
    _ZN21wxPropertyGridManager7AddPageERK8wxStringRK8wxBitmapP18wxPropertyGridPage @4346
    _ZN21wxPropertyGridManager7GetGridEv @4347
    _ZN21wxPropertyGridManager7OnPaintER12wxPaintEvent @4348
    _ZN21wxPropertyGridManager7RefreshEbPK6wxRect @4349
    _ZN21wxPropertyGridManager7SetFontERK6wxFont @4350
    _ZN21wxPropertyGridManager8CanCloseEv @4351
    _ZN21wxPropertyGridManager8OnResizeER11wxSizeEvent @4352
    _ZN21wxPropertyGridManager8ReparentEP12wxWindowBase @4353
    _ZN21wxPropertyGridManager9ClearPageEi @4354
    _ZN21wxPropertyGridManager9OnMouseUpER12wxMouseEvent @4355
    _ZN21wxPropertyGridManagerC1EP8wxWindowiRK7wxPointRK6wxSizelRK8wxString @4356
    _ZN21wxPropertyGridManagerC1Ev @4357
    _ZN21wxPropertyGridManagerC2EP8wxWindowiRK7wxPointRK6wxSizelRK8wxString @4358
    _ZN21wxPropertyGridManagerC2Ev @4359
    _ZN21wxPropertyGridManagerD0Ev @4360
    _ZN21wxPropertyGridManagerD1Ev @4361
    _ZN21wxPropertyGridManagerD2Ev @4362
    _ZN21wxsBitmapIconProperty10ShowEditorEP20wxsPropertyContainer @4363
    _ZN21wxsBitmapIconProperty11GetTypeNameEv @4364
    _ZN21wxsBitmapIconProperty14PropStreamReadEP20wxsPropertyContainerP17wxsPropertyStream @4365
    _ZN21wxsBitmapIconProperty15PropStreamWriteEP20wxsPropertyContainerP17wxsPropertyStream @4366
    _ZN21wxsBitmapIconProperty6GetStrEP20wxsPropertyContainer @4367
    _ZN21wxsBitmapIconProperty7XmlReadEP20wxsPropertyContainerP12TiXmlElement @4368
    _ZN21wxsBitmapIconProperty8XmlWriteEP20wxsPropertyContainerP12TiXmlElement @4369
    _ZN21wxsBitmapIconPropertyC1ERK8wxStringS2_lS2_i @4370
    _ZN21wxsBitmapIconPropertyC2ERK8wxStringS2_lS2_i @4371
    _ZN21wxsBitmapIconPropertyD0Ev @4372
    _ZN21wxsBitmapIconPropertyD1Ev @4373
    _ZN21wxsScrollingDialogRes19OnBuildExactPreviewEP8wxWindowP14wxsItemResData @4374
    _ZN21wxsScrollingDialogRes20OnGetAppBuildingCodeEv @4375
    _ZN21wxsScrollingDialogRes7ResTypeE @4376 DATA
    _ZN21wxsScrollingDialogResC1EP10wxsProject @4377
    _ZN21wxsScrollingDialogResC1ERK8wxStringP12TiXmlElement @4378
    _ZN21wxsScrollingDialogResD0Ev @4379
    _ZN21wxsScrollingDialogResD1Ev @4380
    _ZN21wxsSingleChoiceDialog19OnBuildCreatingCodeEv @4381
    _ZN21wxsSingleChoiceDialog20OnEnumToolPropertiesEl @4382
    _ZN21wxsSingleChoiceDialogC1EP14wxsItemResData @4383
    _ZN21wxsSingleChoiceDialogC2EP14wxsItemResData @4384
    _ZN21wxsSingleChoiceDialogD0Ev @4385
    _ZN21wxsSingleChoiceDialogD1Ev @4386
    _ZN21wxsSizerFlagsProperty10GetWxFlagsEl @4387
    _ZN21wxsSizerFlagsProperty11GetTypeNameEv @4388
    _ZN21wxsSizerFlagsProperty11ParseStringERK8wxString @4389
    _ZN21wxsSizerFlagsProperty14PropStreamReadEP20wxsPropertyContainerP17wxsPropertyStream @4390
    _ZN21wxsSizerFlagsProperty15PropStreamWriteEP20wxsPropertyContainerP17wxsPropertyStream @4391
    _ZN21wxsSizerFlagsProperty6PGReadEP20wxsPropertyContainerP21wxPropertyGridManagerP12wxPGPropertyl @4392
    _ZN21wxsSizerFlagsProperty7PGWriteEP20wxsPropertyContainerP21wxPropertyGridManagerP12wxPGPropertyl @4393
    _ZN21wxsSizerFlagsProperty7XmlReadEP20wxsPropertyContainerP12TiXmlElement @4394
    _ZN21wxsSizerFlagsProperty8FixFlagsERl @4395
    _ZN21wxsSizerFlagsProperty8PGCreateEP20wxsPropertyContainerP21wxPropertyGridManagerP12wxPGProperty @4396
    _ZN21wxsSizerFlagsProperty8XmlWriteEP20wxsPropertyContainerP12TiXmlElement @4397
    _ZN21wxsSizerFlagsProperty9GetStringEl @4398
    _ZN21wxsSizerFlagsPropertyC1Eli @4399
    _ZN21wxsSizerFlagsPropertyC2Eli @4400
    _ZN21wxsSizerFlagsPropertyD0Ev @4401
    _ZN21wxsSizerFlagsPropertyD1Ev @4402
    _ZN21wxsSymbolPickerDialog19OnBuildCreatingCodeEv @4403
    _ZN21wxsSymbolPickerDialog20OnEnumToolPropertiesEl @4404
    _ZN21wxsSymbolPickerDialogC1EP14wxsItemResData @4405
    _ZN21wxsSymbolPickerDialogC2EP14wxsItemResData @4406
    _ZN21wxsSymbolPickerDialogD0Ev @4407
    _ZN21wxsSymbolPickerDialogD1Ev @4408
    _ZN22cbCodeCompletionPluginD0Ev @4409
    _ZN22cbCodeCompletionPluginD1Ev @4410
    _ZN22wxArrayTreeItemIdsBaseC2Ev @4411
    _ZN22wxArrayTreeItemIdsBaseD2Ev @4412
    _ZN22wxPropertyGridIterator7OneStepEP19wxPropertyGridStateiP12wxPGPropertyi @4413
    _ZN22wxPropertyGridIteratorC1EP19wxPropertyGridStateiP12wxPGPropertyi @4414
    _ZN22wxPropertyGridIteratorC1EP19wxPropertyGridStateiii @4415
    _ZN22wxPropertyGridIteratorC1ERKS_ @4416
    _ZN22wxPropertyGridIteratorC1Ev @4417
    _ZN22wxPropertyGridIteratorC2EP19wxPropertyGridStateiP12wxPGPropertyi @4418
    _ZN22wxPropertyGridIteratorC2EP19wxPropertyGridStateiii @4419
    _ZN22wxPropertyGridIteratorC2ERKS_ @4420
    _ZN22wxPropertyGridIteratorC2Ev @4421
    _ZN22wxPropertyGridIteratorD1Ev @4422
    _ZN22wxPropertyGridIteratorD2Ev @4423
    _ZN22wxPropertyGridIteratoraSERKS_ @4424
    _ZN22wxPropertyGridIteratormmEi @4425
    _ZN22wxPropertyGridIteratormmEv @4426
    _ZN22wxPropertyGridIteratorppEi @4427
    _ZN22wxPropertyGridIteratorppEv @4428
    _ZN22wxRichTextStyleListBox12SetStyleTypeENS_19wxRichTextStyleTypeE @4429
    _ZN22wxRichTextStyleListBox19SetApplyOnSelectionEb @4430
    _ZN22wxSystemColourProperty10OnSetValueEv @4431
    _ZN22wxSystemColourProperty12ms_classInfoE @4432 DATA
    _ZN22wxSystemColourProperty13OnCustomPaintER4wxDCRK6wxRectR13wxPGPaintData @4433
    _ZN22wxSystemColourProperty14DoSetAttributeERK8wxStringR9wxVariant @4434
    _ZN22wxSystemColourProperty14wxCreateObjectEv @4435
    _ZN22wxSystemColourProperty4InitEiRK8wxColour @4436
    _ZN22wxSystemColourProperty7OnEventEP14wxPropertyGridP8wxWindowR7wxEvent @4437
    _ZN22wxSystemColourPropertyC1ERK8wxStringS2_PPKwPKlP11wxPGChoicesRK21wxColourPropertyValue @4438
    _ZN22wxSystemColourPropertyC1ERK8wxStringS2_PPKwPKlP11wxPGChoicesRK8wxColour @4439
    _ZN22wxSystemColourPropertyC1ERK8wxStringS2_RK21wxColourPropertyValue @4440
    _ZN22wxSystemColourPropertyC2ERK8wxStringS2_PPKwPKlP11wxPGChoicesRK21wxColourPropertyValue @4441
    _ZN22wxSystemColourPropertyC2ERK8wxStringS2_PPKwPKlP11wxPGChoicesRK8wxColour @4442
    _ZN22wxSystemColourPropertyC2ERK8wxStringS2_RK21wxColourPropertyValue @4443
    _ZN22wxSystemColourPropertyD0Ev @4444
    _ZN22wxSystemColourPropertyD1Ev @4445
    _ZN22wxSystemColourPropertyD2Ev @4446
    _ZN22wxsArrayStringProperty10ShowEditorEP20wxsPropertyContainer @4447
    _ZN22wxsArrayStringProperty11GetTypeNameEv @4448
    _ZN22wxsArrayStringProperty14PropStreamReadEP20wxsPropertyContainerP17wxsPropertyStream @4449
    _ZN22wxsArrayStringProperty15PropStreamWriteEP20wxsPropertyContainerP17wxsPropertyStream @4450
    _ZN22wxsArrayStringProperty6GetStrEP20wxsPropertyContainer @4451
    _ZN22wxsArrayStringProperty7XmlReadEP20wxsPropertyContainerP12TiXmlElement @4452
    _ZN22wxsArrayStringProperty8XmlWriteEP20wxsPropertyContainerP12TiXmlElement @4453
    _ZN22wxsArrayStringPropertyC1ERK8wxStringS2_S2_li @4454
    _ZN22wxsArrayStringPropertyC2ERK8wxStringS2_S2_li @4455
    _ZN22wxsArrayStringPropertyD0Ev @4456
    _ZN22wxsArrayStringPropertyD1Ev @4457
    _ZN22wxsBitmapIconEditorDlg10ID_BUTTON1E @4458 DATA
    _ZN22wxsBitmapIconEditorDlg10ID_BUTTON3E @4459 DATA
    _ZN22wxsBitmapIconEditorDlg12ID_COMBOBOX1E @4460 DATA
    _ZN22wxsBitmapIconEditorDlg12ID_COMBOBOX2E @4461 DATA
    _ZN22wxsBitmapIconEditorDlg12ID_TEXTCTRL1E @4462 DATA
    _ZN22wxsBitmapIconEditorDlg13OnArtIdSelectER14wxCommandEvent @4463
    _ZN22wxsBitmapIconEditorDlg13UpdatePreviewEv @4464
    _ZN22wxsBitmapIconEditorDlg13sm_eventTableE @4465 DATA
    _ZN22wxsBitmapIconEditorDlg14ID_STATICTEXT1E @4466 DATA
    _ZN22wxsBitmapIconEditorDlg14ID_STATICTEXT2E @4467 DATA
    _ZN22wxsBitmapIconEditorDlg14OnButton1ClickER14wxCommandEvent @4468
    _ZN22wxsBitmapIconEditorDlg14OnButton3ClickER14wxCommandEvent @4469
    _ZN22wxsBitmapIconEditorDlg14OnFileNameTextER14wxCommandEvent @4470
    _ZN22wxsBitmapIconEditorDlg15ID_RADIOBUTTON1E @4471 DATA
    _ZN22wxsBitmapIconEditorDlg15ID_RADIOBUTTON2E @4472 DATA
    _ZN22wxsBitmapIconEditorDlg15ID_RADIOBUTTON3E @4473 DATA
    _ZN22wxsBitmapIconEditorDlg15OnUpdatePreviewER14wxCommandEvent @4474
    _ZN22wxsBitmapIconEditorDlg16ID_STATICBITMAP1E @4475 DATA
    _ZN22wxsBitmapIconEditorDlg17sm_eventHashTableE @4476 DATA
    _ZN22wxsBitmapIconEditorDlg20sm_eventTableEntriesE @4477 DATA
    _ZN22wxsBitmapIconEditorDlg7OnTimerER12wxTimerEvent @4478
    _ZN22wxsBitmapIconEditorDlg8ReadDataER17wxsBitmapIconData @4479
    _ZN22wxsBitmapIconEditorDlg9WriteDataER17wxsBitmapIconData @4480
    _ZN22wxsBitmapIconEditorDlgC1EP8wxWindowR17wxsBitmapIconDataRK8wxStringi @4481
    _ZN22wxsBitmapIconEditorDlgC2EP8wxWindowR17wxsBitmapIconDataRK8wxStringi @4482
    _ZN22wxsBitmapIconEditorDlgD0Ev @4483
    _ZN22wxsBitmapIconEditorDlgD1Ev @4484
    _ZN22wxsBitmapIconEditorDlgD2Ev @4485
    _ZN22wxsPasswordEntryDialog19OnBuildCreatingCodeEv @4486
    _ZN22wxsPasswordEntryDialog20OnEnumToolPropertiesEl @4487
    _ZN22wxsPasswordEntryDialogC1EP14wxsItemResData @4488
    _ZN22wxsPasswordEntryDialogC2EP14wxsItemResData @4489
    _ZN22wxsPasswordEntryDialogD0Ev @4490
    _ZN22wxsPasswordEntryDialogD1Ev @4491
    _ZN22wxsPropertyGridManager11wxArrayCont3AddEP20wxsPropertyContainerj @4492
    _ZN22wxsPropertyGridManager11wxArrayCont8RemoveAtEjj @4493
    _ZN22wxsPropertyGridManager11wxArrayContC1Ev @4494
    _ZN22wxsPropertyGridManager11wxArrayContD1Ev @4495
    _ZN22wxsPropertyGridManager11wxArrayPGId3AddEP12wxPGPropertyj @4496
    _ZN22wxsPropertyGridManager11wxArrayPGId8RemoveAtEjj @4497
    _ZN22wxsPropertyGridManager11wxArrayPGIdC1Ev @4498
    _ZN22wxsPropertyGridManager11wxArrayPGIdD1Ev @4499
    _ZN22wxsPropertyGridManager12ms_classInfoE @4500 DATA
    _ZN22wxsPropertyGridManager12wxArrayProps3AddEP11wxsPropertyj @4501
    _ZN22wxsPropertyGridManager12wxArrayProps8RemoveAtEjj @4502
    _ZN22wxsPropertyGridManager12wxArrayPropsC1Ev @4503
    _ZN22wxsPropertyGridManager12wxArrayPropsD1Ev @4504
    _ZN22wxsPropertyGridManager13SelectionDataC1Ev @4505
    _ZN22wxsPropertyGridManager13SelectionDataD1Ev @4506
    _ZN22wxsPropertyGridManager13StoreSelectedEPNS_13SelectionDataE @4507
    _ZN22wxsPropertyGridManager13sm_eventTableE @4508 DATA
    _ZN22wxsPropertyGridManager15RestoreSelectedEPKNS_13SelectionDataE @4509
    _ZN22wxsPropertyGridManager17sm_eventHashTableE @4510 DATA
    _ZN22wxsPropertyGridManager18OnContainerChangedEP20wxsPropertyContainer @4511
    _ZN22wxsPropertyGridManager19SetNewMainContainerEP20wxsPropertyContainer @4512
    _ZN22wxsPropertyGridManager20sm_eventTableEntriesE @4513 DATA
    _ZN22wxsPropertyGridManager23UnbindPropertyContainerEP20wxsPropertyContainerb @4514
    _ZN22wxsPropertyGridManager25NewPropertyContainerStartEv @4515
    _ZN22wxsPropertyGridManager26NewPropertyContainerFinishEP20wxsPropertyContainer @4516
    _ZN22wxsPropertyGridManager29DeleteTemporaryPropertiesListEv @4517
    _ZN22wxsPropertyGridManager31NewPropertyContainerAddPropertyEP11wxsPropertyP20wxsPropertyContainer @4518
    _ZN22wxsPropertyGridManager32wxSetCont_wxImplementation_KeyExC1Ev @4519
    _ZN22wxsPropertyGridManager36wxSetCont_wxImplementation_HashTable10CreateNodeERKP20wxsPropertyContainerj @4520
    _ZN22wxsPropertyGridManager36wxSetCont_wxImplementation_HashTable10DeleteNodeEP21_wxHashTable_NodeBase @4521
    _ZN22wxsPropertyGridManager36wxSetCont_wxImplementation_HashTable11ResizeTableEj @4522
    _ZN22wxsPropertyGridManager36wxSetCont_wxImplementation_HashTable15GetOrCreateNodeERKP20wxsPropertyContainerRb @4523
    _ZN22wxsPropertyGridManager36wxSetCont_wxImplementation_HashTable16GetBucketForNodeEPS0_PNS0_4NodeE @4524
    _ZN22wxsPropertyGridManager36wxSetCont_wxImplementation_HashTable3endEv @4525
    _ZN22wxsPropertyGridManager36wxSetCont_wxImplementation_HashTable4Node6m_nextEv @4526
    _ZN22wxsPropertyGridManager36wxSetCont_wxImplementation_HashTable4NodeC1ERKP20wxsPropertyContainer @4527
    _ZN22wxsPropertyGridManager36wxSetCont_wxImplementation_HashTable5clearEv @4528
    _ZN22wxsPropertyGridManager36wxSetCont_wxImplementation_HashTable8IteratorC2EPNS0_4NodeEPKS0_ @4529
    _ZN22wxsPropertyGridManager36wxSetCont_wxImplementation_HashTable8iteratorC1EPNS0_4NodeEPS0_ @4530
    _ZN22wxsPropertyGridManager36wxSetCont_wxImplementation_HashTableC2EjRK13wxPointerHashRK14wxPointerEqualRKNS_32wxSetCont_wxImplementation_KeyExE @4531
    _ZN22wxsPropertyGridManager36wxSetCont_wxImplementation_HashTableD2Ev @4532
    _ZN22wxsPropertyGridManager3GetEv @4533
    _ZN22wxsPropertyGridManager6UpdateEP20wxsPropertyContainer @4534
    _ZN22wxsPropertyGridManager8OnChangeER19wxPropertyGridEvent @4535
    _ZN22wxsPropertyGridManager8RegisterEP20wxsPropertyContainerP11wxsPropertyP12wxPGPropertyl @4536
    _ZN22wxsPropertyGridManager9SingletonE @4537 DATA
    _ZN22wxsPropertyGridManager9UnbindAllEv @4538
    _ZN22wxsPropertyGridManager9wxSetCont13Insert_ResultC1ERKNS_36wxSetCont_wxImplementation_HashTable8iteratorERKb @4539
    _ZN22wxsPropertyGridManager9wxSetCont4findERKPK20wxsPropertyContainer @4540
    _ZN22wxsPropertyGridManager9wxSetCont6insertERKP20wxsPropertyContainer @4541
    _ZN22wxsPropertyGridManager9wxSetContC1Ej13wxPointerHash14wxPointerEqual @4542
    _ZN22wxsPropertyGridManager9wxSetContD1Ev @4543
    _ZN22wxsPropertyGridManagerC1EP8wxWindowiRK7wxPointRK6wxSizelPKw @4544
    _ZN22wxsPropertyGridManagerC2EP8wxWindowiRK7wxPointRK6wxSizelPKw @4545
    _ZN22wxsPropertyGridManagerD0Ev @4546
    _ZN22wxsPropertyGridManagerD1Ev @4547
    _ZN22wxsPropertyGridManagerD2Ev @4548
    _ZN22wxsSimpleFontEditorDlg10ID_BUTTON1E @4549 DATA
    _ZN22wxsSimpleFontEditorDlg10ID_BUTTON2E @4550 DATA
    _ZN22wxsSimpleFontEditorDlg10ID_BUTTON3E @4551 DATA
    _ZN22wxsSimpleFontEditorDlg12ID_TEXTCTRL1E @4552 DATA
    _ZN22wxsSimpleFontEditorDlg13sm_eventTableE @4553 DATA
    _ZN22wxsSimpleFontEditorDlg14ID_STATICLINE1E @4554 DATA
    _ZN22wxsSimpleFontEditorDlg14ID_STATICLINE2E @4555 DATA
    _ZN22wxsSimpleFontEditorDlg14ID_STATICTEXT1E @4556 DATA
    _ZN22wxsSimpleFontEditorDlg14ID_STATICTEXT2E @4557 DATA
    _ZN22wxsSimpleFontEditorDlg14ID_STATICTEXT3E @4558 DATA
    _ZN22wxsSimpleFontEditorDlg14OnButton1ClickER14wxCommandEvent @4559
    _ZN22wxsSimpleFontEditorDlg14OnButton2ClickER14wxCommandEvent @4560
    _ZN22wxsSimpleFontEditorDlg14OnButton3ClickER14wxCommandEvent @4561
    _ZN22wxsSimpleFontEditorDlg17sm_eventHashTableE @4562 DATA
    _ZN22wxsSimpleFontEditorDlg20sm_eventTableEntriesE @4563 DATA
    _ZN22wxsSimpleFontEditorDlg21UpdateFontDescriptionEv @4564
    _ZN22wxsSimpleFontEditorDlg4OnOKER14wxCommandEvent @4565
    _ZN22wxsSimpleFontEditorDlgC1EP8wxWindowR11wxsFontDatai @4566
    _ZN22wxsSimpleFontEditorDlgC2EP8wxWindowR11wxsFontDatai @4567
    _ZN22wxsSimpleFontEditorDlgD0Ev @4568
    _ZN22wxsSimpleFontEditorDlgD1Ev @4569
    _ZN22wxsSimpleFontEditorDlgD2Ev @4570
    _ZN23wxFileDirPickerCtrlBaseC2Ev @4571
    _ZN23wxFileDirPickerCtrlBaseD2Ev @4572
    _ZN23wxHtmlWindowMouseHelperD2Ev @4573
    _ZN23wxPGEditorDialogAdapter10ShowDialogEP14wxPropertyGridP12wxPGProperty @4574
    _ZN23wxPGEditorDialogAdapter12ms_classInfoE @4575 DATA
    _ZN23wxPGEditorDialogAdapter8GetValueEv @4576
    _ZN23wxPGEditorDialogAdapter8SetValueE9wxVariant @4577
    _ZN23wxPGEditorDialogAdapterC1Ev @4578
    _ZN23wxPGEditorDialogAdapterC2Ev @4579
    _ZN23wxPGEditorDialogAdapterD0Ev @4580
    _ZN23wxPGEditorDialogAdapterD1Ev @4581
    _ZN23wxPGEditorDialogAdapterD2Ev @4582
    _ZN23wxPGVIteratorBase_State4NextEv @4583
    _ZN23wxPGVIteratorBase_StateC1EP19wxPropertyGridStatei @4584
    _ZN23wxPGVIteratorBase_StateD0Ev @4585
    _ZN23wxPGVIteratorBase_StateD1Ev @4586
    _ZN23wxPGVariantDataArrayInt11GetValuePtrEv @4587
    _ZN23wxPGVariantDataArrayInt11GetValueRefEv @4588
    _ZN23wxPGVariantDataArrayInt12ms_classInfoE @4589 DATA
    _ZN23wxPGVariantDataArrayInt14wxCreateObjectEv @4590
    _ZN23wxPGVariantDataArrayInt4ReadER8wxString @4591
    _ZN23wxPGVariantDataArrayInt5CloneEv @4592
    _ZN23wxPGVariantDataArrayIntC1ERK10wxArrayInt @4593
    _ZN23wxPGVariantDataArrayIntC1Ev @4594
    _ZN23wxPGVariantDataArrayIntD0Ev @4595
    _ZN23wxPGVariantDataArrayIntD1Ev @4596
    _ZN23wxPGVariantDataLongLong11GetValuePtrEv @4597
    _ZN23wxPGVariantDataLongLong11GetValueRefEv @4598
    _ZN23wxPGVariantDataLongLong12ms_classInfoE @4599 DATA
    _ZN23wxPGVariantDataLongLong14wxCreateObjectEv @4600
    _ZN23wxPGVariantDataLongLong4ReadER8wxString @4601
    _ZN23wxPGVariantDataLongLong5CloneEv @4602
    _ZN23wxPGVariantDataLongLongC1ERK16wxLongLongNative @4603
    _ZN23wxPGVariantDataLongLongC1Ev @4604
    _ZN23wxPGVariantDataLongLongD0Ev @4605
    _ZN23wxPGVariantDataLongLongD1Ev @4606
    _ZN23wxPropertyGridInterface10SetPropValERK14wxPGPropArgClsR9wxVariant @4607
    _ZN23wxPropertyGridInterface11CollapseAllEv @4608
    _ZN23wxPropertyGridInterface11GetIteratorEiP12wxPGProperty @4609
    _ZN23wxPropertyGridInterface11GetIteratorEii @4610
    _ZN23wxPropertyGridInterface11RefreshGridEP19wxPropertyGridState @4611
    _ZN23wxPropertyGridInterface12DoSelectPageEi @4612
    _ZN23wxPropertyGridInterface12HidePropertyERK14wxPGPropArgClsbi @4613
    _ZN23wxPropertyGridInterface13GetFirstChildERK14wxPGPropArgCls @4614
    _ZN23wxPropertyGridInterface14AppendCategoryERK8wxStringS2_ @4615
    _ZN23wxPropertyGridInterface14ClearSelectionEb @4616
    _ZN23wxPropertyGridInterface14DeletePropertyERK14wxPGPropArgCls @4617
    _ZN23wxPropertyGridInterface14EnablePropertyERK14wxPGPropArgClsb @4618
    _ZN23wxPropertyGridInterface14EndAddChildrenERK14wxPGPropArgCls @4619
    _ZN23wxPropertyGridInterface14InsertCategoryERK14wxPGPropArgClsiRK8wxStringS5_ @4620
    _ZN23wxPropertyGridInterface14RemovePropertyERK14wxPGPropArgCls @4621
    _ZN23wxPropertyGridInterface14SetBoolChoicesERK8wxStringS2_ @4622
    _ZN23wxPropertyGridInterface15DisablePropertyERK14wxPGPropArgCls @4623
    _ZN23wxPropertyGridInterface15GetEditorByNameERK8wxString @4624
    _ZN23wxPropertyGridInterface15GetPropertyGridEv @4625
    _ZN23wxPropertyGridInterface15GetPropertyNameERK14wxPGPropArgCls @4626
    _ZN23wxPropertyGridInterface15ReplacePropertyERK14wxPGPropArgClsP12wxPGProperty @4627
    _ZN23wxPropertyGridInterface15SetPropertyCellERK14wxPGPropArgClsiRK8wxStringRK8wxBitmapRK8wxColourSB_ @4628
    _ZN23wxPropertyGridInterface16BeginAddChildrenERK14wxPGPropArgCls @4629
    _ZN23wxPropertyGridInterface16DoClearSelectionEbi @4630
    _ZN23wxPropertyGridInterface16GetPropertyIndexERK14wxPGPropArgCls @4631
    _ZN23wxPropertyGridInterface16GetPropertyLabelERK14wxPGPropArgCls @4632
    _ZN23wxPropertyGridInterface16GetPropertyValueERK14wxPGPropArgCls @4633
    _ZN23wxPropertyGridInterface16SetPropertyImageERK14wxPGPropArgClsR8wxBitmap @4634
    _ZN23wxPropertyGridInterface16SetPropertyLabelERK14wxPGPropArgClsRK8wxString @4635
    _ZN23wxPropertyGridInterface16SetPropertyValueERK14wxPGPropArgCls9wxVariant @4636
    _ZN23wxPropertyGridInterface16SetPropertyValueERK14wxPGPropArgClsP8wxObject @4637
    _ZN23wxPropertyGridInterface16SetPropertyValueERK14wxPGPropArgClsPKw @4638
    _ZN23wxPropertyGridInterface16SetPropertyValueERK14wxPGPropArgClsPv @4639
    _ZN23wxPropertyGridInterface16SetPropertyValueERK14wxPGPropArgClsR8wxObject @4640
    _ZN23wxPropertyGridInterface16SetPropertyValueERK14wxPGPropArgClsRK10wxArrayInt @4641
    _ZN23wxPropertyGridInterface16SetPropertyValueERK14wxPGPropArgClsRK10wxDateTime @4642
    _ZN23wxPropertyGridInterface16SetPropertyValueERK14wxPGPropArgClsRK13wxArrayString @4643
    _ZN23wxPropertyGridInterface16SetPropertyValueERK14wxPGPropArgClsRK6wxSize @4644
    _ZN23wxPropertyGridInterface16SetPropertyValueERK14wxPGPropArgClsRK7wxPoint @4645
    _ZN23wxPropertyGridInterface16SetPropertyValueERK14wxPGPropArgClsRK8wxString @4646
    _ZN23wxPropertyGridInterface16SetPropertyValueERK14wxPGPropArgClsb @4647
    _ZN23wxPropertyGridInterface16SetPropertyValueERK14wxPGPropArgClsd @4648
    _ZN23wxPropertyGridInterface16SetPropertyValueERK14wxPGPropArgClsi @4649
    _ZN23wxPropertyGridInterface16SetPropertyValueERK14wxPGPropArgClsl @4650
    _ZN23wxPropertyGridInterface16SetPropertyValueERK14wxPGPropArgClsx @4651
    _ZN23wxPropertyGridInterface16SetPropertyValueERK14wxPGPropArgClsy @4652
    _ZN23wxPropertyGridInterface17AddPropertyChoiceERK14wxPGPropArgClsRK8wxStringi @4653
    _ZN23wxPropertyGridInterface17GetPropertyParentERK14wxPGPropArgCls @4654
    _ZN23wxPropertyGridInterface17SetPropertiesFlagERK17wxArrayPGPropertyjb @4655
    _ZN23wxPropertyGridInterface17SetPropertyEditorERK14wxPGPropArgClsPK10wxPGEditor @4656
    _ZN23wxPropertyGridInterface17SetPropertyEditorERK14wxPGPropArgClsRK8wxString @4657
    _ZN23wxPropertyGridInterface17SetPropertyValuesERK6wxListRK14wxPGPropArgCls @4658
    _ZN23wxPropertyGridInterface17SetPropertyValuesERK9wxVariantRK14wxPGPropArgCls @4659
    _ZN23wxPropertyGridInterface18ClearPropertyValueERK14wxPGPropArgCls @4660
    _ZN23wxPropertyGridInterface18GetPropertyChoicesERK14wxPGPropArgCls @4661
    _ZN23wxPropertyGridInterface18SetPropertyChoicesERK14wxPGPropArgClsR11wxPGChoices @4662
    _ZN23wxPropertyGridInterface19ChangePropertyValueERK14wxPGPropArgCls9wxVariant @4663
    _ZN23wxPropertyGridInterface19InitAllTypeHandlersEv @4664
    _ZN23wxPropertyGridInterface19SetColumnProportionEji @4665
    _ZN23wxPropertyGridInterface19SetPropertyReadOnlyERK14wxPGPropArgClsbi @4666
    _ZN23wxPropertyGridInterface20CreatePropertyByTypeERK8wxStringS2_S2_ @4667
    _ZN23wxPropertyGridInterface20DeletePropertyChoiceERK14wxPGPropArgClsi @4668
    _ZN23wxPropertyGridInterface20GetPropertyValidatorERK14wxPGPropArgCls @4669
    _ZN23wxPropertyGridInterface20GetPropertyValueTypeERK14wxPGPropArgCls @4670
    _ZN23wxPropertyGridInterface20InsertPropertyChoiceERK14wxPGPropArgClsRK8wxStringii @4671
    _ZN23wxPropertyGridInterface20LimitPropertyEditingERK14wxPGPropArgClsb @4672
    _ZN23wxPropertyGridInterface20RestoreEditableStateERK8wxStringi @4673
    _ZN23wxPropertyGridInterface20SetEditableStateItemERK8wxString9wxVariant @4674
    _ZN23wxPropertyGridInterface20SetPropertyAttributeERK14wxPGPropArgClsRK8wxString9wxVariantl @4675
    _ZN23wxPropertyGridInterface20SetPropertyMaxLengthERK14wxPGPropArgClsi @4676
    _ZN23wxPropertyGridInterface20SetPropertyValidatorERK14wxPGPropArgClsRK11wxValidator @4677
    _ZN23wxPropertyGridInterface21CreatePropertyByClassERK8wxStringS2_S2_ @4678
    _ZN23wxPropertyGridInterface21SetExpandedPropertiesERK17wxArrayPGPropertyb @4679
    _ZN23wxPropertyGridInterface21SetPropertyAttributesERK14wxPGPropArgClsRK20wxPGAttributeStorage @4680
    _ZN23wxPropertyGridInterface21SetPropertyClientDataERK14wxPGPropArgClsPv @4681
    _ZN23wxPropertyGridInterface21SetPropertyHelpStringERK14wxPGPropArgClsRK8wxString @4682
    _ZN23wxPropertyGridInterface22DoSetPropertyAttributeERK14wxPGPropArgClsRK8wxStringR9wxVariantl @4683
    _ZN23wxPropertyGridInterface22GetNextSiblingPropertyERK14wxPGPropArgCls @4684
    _ZN23wxPropertyGridInterface25GetPropertyShortClassNameERK14wxPGPropArgCls @4685
    _ZN23wxPropertyGridInterface25RegisterAdditionalEditorsEv @4686
    _ZN23wxPropertyGridInterface27SetPropertyChoicesExclusiveERK14wxPGPropArgCls @4687
    _ZN23wxPropertyGridInterface27SetPropertyValueUnspecifiedERK14wxPGPropArgCls @4688
    _ZN23wxPropertyGridInterface28SetValidationFailureBehaviorEi @4689
    _ZN23wxPropertyGridInterface6AppendEP12wxPGProperty @4690
    _ZN23wxPropertyGridInterface6DeleteERK14wxPGPropArgCls @4691
    _ZN23wxPropertyGridInterface6ExpandERK14wxPGPropArgCls @4692
    _ZN23wxPropertyGridInterface6InsertERK14wxPGPropArgClsP12wxPGProperty @4693
    _ZN23wxPropertyGridInterface6InsertERK14wxPGPropArgClsiP12wxPGProperty @4694
    _ZN23wxPropertyGridInterface7DisableERK14wxPGPropArgCls @4695
    _ZN23wxPropertyGridInterface8AppendInERK14wxPGPropArgClsP12wxPGProperty @4696
    _ZN23wxPropertyGridInterface8CollapseERK14wxPGPropArgCls @4697
    _ZN23wxPropertyGridInterface8GetFirstEi @4698
    _ZN23wxPropertyGridInterface9ExpandAllEb @4699
    _ZN23wxPropertyGridInterfaceC2Ev @4700
    _ZN23wxPropertyGridInterfaceD0Ev @4701
    _ZN23wxPropertyGridInterfaceD1Ev @4702
    _ZN23wxPropertyGridInterfaceD2Ev @4703
    _ZN23wxPropertyGridPopulator11AddChildrenEP12wxPGProperty @4704
    _ZN23wxPropertyGridPopulator12AddAttributeERK8wxStringS2_S2_ @4705
    _ZN23wxPropertyGridPopulator12ParseChoicesERK8wxStringS2_ @4706
    _ZN23wxPropertyGridPopulator12ProcessErrorERK8wxString @4707
    _ZN23wxPropertyGridPopulator3AddERK8wxStringS2_S2_PS1_P11wxPGChoices @4708
    _ZN23wxPropertyGridPopulator7SetGridEP14wxPropertyGrid @4709
    _ZN23wxPropertyGridPopulator8GetStateEv @4710
    _ZN23wxPropertyGridPopulator8SetStateEP19wxPropertyGridState @4711
    _ZN23wxPropertyGridPopulator9ToLongPCTERK8wxStringPll @4712
    _ZN23wxPropertyGridPopulatorC1Ev @4713
    _ZN23wxPropertyGridPopulatorC2Ev @4714
    _ZN23wxPropertyGridPopulatorD0Ev @4715
    _ZN23wxPropertyGridPopulatorD1Ev @4716
    _ZN23wxPropertyGridPopulatorD2Ev @4717
    _ZN23wxWidgetsGUIConfigPanel10ID_BUTTON1E @4718 DATA
    _ZN23wxWidgetsGUIConfigPanel10ID_BUTTON2E @4719 DATA
    _ZN23wxWidgetsGUIConfigPanel12ID_CHECKBOX1E @4720 DATA
    _ZN23wxWidgetsGUIConfigPanel12ID_CHECKBOX2E @4721 DATA
    _ZN23wxWidgetsGUIConfigPanel12ID_COMBOBOX1E @4722 DATA
    _ZN23wxWidgetsGUIConfigPanel12ID_TEXTCTRL1E @4723 DATA
    _ZN23wxWidgetsGUIConfigPanel13sm_eventTableE @4724 DATA
    _ZN23wxWidgetsGUIConfigPanel14ID_STATICTEXT1E @4725 DATA
    _ZN23wxWidgetsGUIConfigPanel14ID_STATICTEXT2E @4726 DATA
    _ZN23wxWidgetsGUIConfigPanel14OnButton1ClickER14wxCommandEvent @4727
    _ZN23wxWidgetsGUIConfigPanel14OnButton2ClickER14wxCommandEvent @4728
    _ZN23wxWidgetsGUIConfigPanel15OnInitAllChangeER14wxCommandEvent @4729
    _ZN23wxWidgetsGUIConfigPanel17sm_eventHashTableE @4730 DATA
    _ZN23wxWidgetsGUIConfigPanel20sm_eventTableEntriesE @4731 DATA
    _ZN23wxWidgetsGUIConfigPanel7OnApplyEv @4732
    _ZN23wxWidgetsGUIConfigPanel8OnCancelEv @4733
    _ZN23wxWidgetsGUIConfigPanelC1EP8wxWindowP12wxWidgetsGUI @4734
    _ZN23wxWidgetsGUIConfigPanelC2EP8wxWindowP12wxWidgetsGUI @4735
    _ZN23wxWidgetsGUIConfigPanelD0Ev @4736
    _ZN23wxWidgetsGUIConfigPanelD1Ev @4737
    _ZN23wxWidgetsGUIConfigPanelD2Ev @4738
    _ZN23wxsArrayStringEditorDlg12ID_TEXTCTRL1E @4739 DATA
    _ZN23wxsArrayStringEditorDlg13sm_eventTableE @4740 DATA
    _ZN23wxsArrayStringEditorDlg17sm_eventHashTableE @4741 DATA
    _ZN23wxsArrayStringEditorDlg20sm_eventTableEntriesE @4742 DATA
    _ZN23wxsArrayStringEditorDlg4OnOKER14wxCommandEvent @4743
    _ZN23wxsArrayStringEditorDlg8OnCancelER14wxCommandEvent @4744
    _ZN23wxsArrayStringEditorDlgC1EP8wxWindowR13wxArrayStringi @4745
    _ZN23wxsArrayStringEditorDlgC2EP8wxWindowR13wxArrayStringi @4746
    _ZN23wxsArrayStringEditorDlgD0Ev @4747
    _ZN23wxsArrayStringEditorDlgD1Ev @4748
    _ZN23wxsArrayStringEditorDlgD2Ev @4749
    _ZN23wxsCustomEditorProperty11CanParseStrEv @4750
    _ZN23wxsCustomEditorProperty6GetStrEP20wxsPropertyContainer @4751
    _ZN23wxsCustomEditorProperty6PGReadEP20wxsPropertyContainerP21wxPropertyGridManagerP12wxPGPropertyl @4752
    _ZN23wxsCustomEditorProperty7PGWriteEP20wxsPropertyContainerP21wxPropertyGridManagerP12wxPGPropertyl @4753
    _ZN23wxsCustomEditorProperty8PGCreateEP20wxsPropertyContainerP21wxPropertyGridManagerP12wxPGProperty @4754
    _ZN23wxsCustomEditorProperty8ParseStrEP20wxsPropertyContainer8wxString @4755
    _ZN23wxsCustomEditorPropertyC2ERK8wxStringS2_i @4756
    _ZN23wxsCustomEditorPropertyD0Ev @4757
    _ZN23wxsCustomEditorPropertyD1Ev @4758
    _ZN23wxsCustomEditorPropertyD2Ev @4759
    _ZN23wxsItemEditorDragAssist10AssistTypeEv @4760
    _ZN23wxsItemEditorDragAssist10UpdateRectER6wxRectRK8wxBitmap @4761
    _ZN23wxsItemEditorDragAssist11NewDraggingEv @4762
    _ZN23wxsItemEditorDragAssist12ParentColourEv @4763
    _ZN23wxsItemEditorDragAssist12TargetColourEv @4764
    _ZN23wxsItemEditorDragAssist12UpdateAssistEP7wxsItemS1_b @4765
    _ZN23wxsItemEditorDragAssist19RebuildParentAssistEv @4766
    _ZN23wxsItemEditorDragAssist19RebuildTargetAssistEv @4767
    _ZN23wxsItemEditorDragAssist9ColourMixER7wxImageRK8wxColour @4768
    _ZN23wxsItemEditorDragAssist9DrawExtraEP7wxsItemS1_bP4wxDC @4769
    _ZN23wxsItemEditorDragAssistC1EP20wxsItemEditorContent @4770
    _ZN23wxsItemEditorDragAssistC2EP20wxsItemEditorContent @4771
    _ZN23wxsItemEditorDragAssistD1Ev @4772
    _ZN23wxsItemEditorDragAssistD2Ev @4773
    _ZN23wxsPositionSizeProperty11GetTypeNameEv @4774
    _ZN23wxsPositionSizeProperty14PropStreamReadEP20wxsPropertyContainerP17wxsPropertyStream @4775
    _ZN23wxsPositionSizeProperty15PropStreamWriteEP20wxsPropertyContainerP17wxsPropertyStream @4776
    _ZN23wxsPositionSizeProperty6PGReadEP20wxsPropertyContainerP21wxPropertyGridManagerP12wxPGPropertyl @4777
    _ZN23wxsPositionSizeProperty7PGWriteEP20wxsPropertyContainerP21wxPropertyGridManagerP12wxPGPropertyl @4778
    _ZN23wxsPositionSizeProperty7XmlReadEP20wxsPropertyContainerP12TiXmlElement @4779
    _ZN23wxsPositionSizeProperty8PGCreateEP20wxsPropertyContainerP21wxPropertyGridManagerP12wxPGProperty @4780
    _ZN23wxsPositionSizeProperty8XmlWriteEP20wxsPropertyContainerP12TiXmlElement @4781
    _ZN23wxsPositionSizePropertyC1ERK8wxStringS2_S2_S2_S2_li @4782
    _ZN23wxsPositionSizePropertyC2ERK8wxStringS2_S2_S2_S2_li @4783
    _ZN23wxsPositionSizePropertyD0Ev @4784
    _ZN23wxsPositionSizePropertyD1Ev @4785
    _ZN23wxsResourceTreeItemData12OnRightClickEv @4786
    _ZN23wxsResourceTreeItemData7OnPopupEl @4787
    _ZN23wxsResourceTreeItemData8OnSelectEv @4788
    _ZN23wxsResourceTreeItemData9PopupMenuEP6wxMenu @4789
    _ZN23wxsResourceTreeItemDataC1Ev @4790
    _ZN23wxsResourceTreeItemDataC2Ev @4791
    _ZN23wxsResourceTreeItemDataD0Ev @4792
    _ZN23wxsResourceTreeItemDataD1Ev @4793
    _ZN23wxsResourceTreeItemDataD2Ev @4794
    _ZN23wxsRichTextStyleListBox14OnBuildPreviewEP8wxWindowl @4795
    _ZN23wxsRichTextStyleListBox19OnBuildCreatingCodeEv @4796
    _ZN23wxsRichTextStyleListBox22OnEnumWidgetPropertiesEl @4797
    _ZN23wxsRichTextStyleListBoxC1EP14wxsItemResData @4798
    _ZN23wxsRichTextStyleListBoxC2EP14wxsItemResData @4799
    _ZN23wxsRichTextStyleListBoxD0Ev @4800
    _ZN23wxsRichTextStyleListBoxD1Ev @4801
    _ZN23wxsStdDialogButtonSizer10OnXmlWriteEP12TiXmlElementbb @4802
    _ZN23wxsStdDialogButtonSizer14OnBuildPreviewEP8wxWindowl @4803
    _ZN23wxsStdDialogButtonSizer19OnBuildCreatingCodeEv @4804
    _ZN23wxsStdDialogButtonSizer20OnAddExtraPropertiesEP22wxsPropertyGridManager @4805
    _ZN23wxsStdDialogButtonSizer20OnEnumItemPropertiesEl @4806
    _ZN23wxsStdDialogButtonSizer20OnGetPropertiesFlagsEv @4807
    _ZN23wxsStdDialogButtonSizer22OnExtraPropertyChangedEP22wxsPropertyGridManagerP12wxPGProperty @4808
    _ZN23wxsStdDialogButtonSizer23OnBuildDeclarationsCodeEv @4809
    _ZN23wxsStdDialogButtonSizer9OnXmlReadEP12TiXmlElementbb @4810
    _ZN23wxsStdDialogButtonSizerC1EP14wxsItemResData @4811
    _ZN23wxsStdDialogButtonSizerC2EP14wxsItemResData @4812
    _ZN23wxsStdDialogButtonSizerD0Ev @4813
    _ZN23wxsStdDialogButtonSizerD1Ev @4814
    _ZN24wxItemContainerImmutable6SelectEi @4815
    _ZN24wxItemContainerImmutableC2Ev @4816
    _ZN24wxPGDatePickerCtrlEditor12ms_classInfoE @4817 DATA
    _ZN24wxPGDatePickerCtrlEditor14wxCreateObjectEv @4818
    _ZN24wxPGDatePickerCtrlEditorC1Ev @4819
    _ZN24wxPGDatePickerCtrlEditorD0Ev @4820
    _ZN24wxPGDatePickerCtrlEditorD1Ev @4821
    _ZN24wxPGDatePickerCtrlEditorD2Ev @4822
    _ZN24wxPGDoubleClickProcessor10OnSetFocusER12wxFocusEvent @4823
    _ZN24wxPGDoubleClickProcessor12OnMouseEventER12wxMouseEvent @4824
    _ZN24wxPGDoubleClickProcessor13sm_eventTableE @4825 DATA
    _ZN24wxPGDoubleClickProcessor17sm_eventHashTableE @4826 DATA
    _ZN24wxPGDoubleClickProcessor20sm_eventTableEntriesE @4827 DATA
    _ZN24wxPGDoubleClickProcessorC1EP20wxOwnerDrawnComboBox @4828
    _ZN24wxPGDoubleClickProcessorD0Ev @4829
    _ZN24wxPGDoubleClickProcessorD1Ev @4830
    _ZN24wxPGVariantDataULongLong11GetValuePtrEv @4831
    _ZN24wxPGVariantDataULongLong11GetValueRefEv @4832
    _ZN24wxPGVariantDataULongLong12ms_classInfoE @4833 DATA
    _ZN24wxPGVariantDataULongLong14wxCreateObjectEv @4834
    _ZN24wxPGVariantDataULongLong4ReadER8wxString @4835
    _ZN24wxPGVariantDataULongLong5CloneEv @4836
    _ZN24wxPGVariantDataULongLongC1ERK17wxULongLongNative @4837
    _ZN24wxPGVariantDataULongLongC1Ev @4838
    _ZN24wxPGVariantDataULongLongD0Ev @4839
    _ZN24wxPGVariantDataULongLongD1Ev @4840
    _ZN24wxRichTextStyleComboCtrl4InitEv @4841
    _ZN24wxRichTextStyleComboCtrlC1EP8wxWindowiRK7wxPointRK6wxSizel @4842
    _ZN24wxsAutoResourceTreeImageC1ERK8wxBitmapb @4843
    _ZN24wxsAutoResourceTreeImageC1ERK8wxStringb @4844
    _ZN24wxsAutoResourceTreeImageC2ERK8wxBitmapb @4845
    _ZN24wxsAutoResourceTreeImageC2ERK8wxStringb @4846
    _ZN24wxsAutoResourceTreeImageD1Ev @4847
    _ZN24wxsAutoResourceTreeImageD2Ev @4848
    _ZN24wxsRichTextStyleListCtrl14OnBuildPreviewEP8wxWindowl @4849
    _ZN24wxsRichTextStyleListCtrl19OnBuildCreatingCodeEv @4850
    _ZN24wxsRichTextStyleListCtrl22OnEnumWidgetPropertiesEl @4851
    _ZN24wxsRichTextStyleListCtrlC1EP14wxsItemResData @4852
    _ZN24wxsRichTextStyleListCtrlC2EP14wxsItemResData @4853
    _ZN24wxsRichTextStyleListCtrlD0Ev @4854
    _ZN24wxsRichTextStyleListCtrlD1Ev @4855
    _ZN24wxsSingleInstanceChecker11OnIsPointerEv @4856
    _ZN24wxsSingleInstanceChecker19OnBuildCreatingCodeEv @4857
    _ZN24wxsSingleInstanceChecker20OnEnumToolPropertiesEl @4858
    _ZN24wxsSingleInstanceCheckerC1EP14wxsItemResData @4859
    _ZN24wxsSingleInstanceCheckerC2EP14wxsItemResData @4860
    _ZN24wxsSingleInstanceCheckerD0Ev @4861
    _ZN24wxsSingleInstanceCheckerD1Ev @4862
    _ZN24wxsStoringSplitterWindow11GetSplitterEv @4863
    _ZN24wxsStoringSplitterWindow13SplitterFixupEi @4864
    _ZN24wxsStoringSplitterWindow13sm_eventTableE @4865 DATA
    _ZN24wxsStoringSplitterWindow17OnSplitterChangedER15wxSplitterEvent @4866
    _ZN24wxsStoringSplitterWindow17sm_eventHashTableE @4867 DATA
    _ZN24wxsStoringSplitterWindow18OnSplitterChangingER15wxSplitterEvent @4868
    _ZN24wxsStoringSplitterWindow20sm_eventTableEntriesE @4869 DATA
    _ZN24wxsStoringSplitterWindow5SplitEP8wxWindowS1_i @4870
    _ZN24wxsStoringSplitterWindow6OnSizeER11wxSizeEvent @4871
    _ZN24wxsStoringSplitterWindowC1EP8wxWindow @4872
    _ZN24wxsStoringSplitterWindowC2EP8wxWindow @4873
    _ZN24wxsStoringSplitterWindowD0Ev @4874
    _ZN24wxsStoringSplitterWindowD1Ev @4875
    _ZN25wxPGChoiceAndButtonEditor12ms_classInfoE @4876 DATA
    _ZN25wxPGChoiceAndButtonEditor14wxCreateObjectEv @4877
    _ZN25wxPGChoiceAndButtonEditorC1Ev @4878
    _ZN25wxPGChoiceAndButtonEditorC2Ev @4879
    _ZN25wxPGChoiceAndButtonEditorD0Ev @4880
    _ZN25wxPGChoiceAndButtonEditorD1Ev @4881
    _ZN25wxPGChoiceAndButtonEditorD2Ev @4882
    _ZN25wxPGVIteratorBase_Manager4NextEv @4883
    _ZN25wxPGVIteratorBase_ManagerC1EP21wxPropertyGridManageri @4884
    _ZN25wxPGVIteratorBase_ManagerD0Ev @4885
    _ZN25wxPGVIteratorBase_ManagerD1Ev @4886
    _ZN25wxsRichTextStyleComboCtrl14OnBuildPreviewEP8wxWindowl @4887
    _ZN25wxsRichTextStyleComboCtrl19OnBuildCreatingCodeEv @4888
    _ZN25wxsRichTextStyleComboCtrl22OnEnumWidgetPropertiesEl @4889
    _ZN25wxsRichTextStyleComboCtrlC1EP14wxsItemResData @4890
    _ZN25wxsRichTextStyleComboCtrlC2EP14wxsItemResData @4891
    _ZN25wxsRichTextStyleComboCtrlD0Ev @4892
    _ZN25wxsRichTextStyleComboCtrlD1Ev @4893
    _ZN26wxNumericPropertyValidator8ValidateEP8wxWindow @4894
    _ZN26wxNumericPropertyValidatorC1ENS_11NumericTypeEi @4895
    _ZN26wxNumericPropertyValidatorC2ENS_11NumericTypeEi @4896
    _ZN26wxNumericPropertyValidatorD0Ev @4897
    _ZN26wxNumericPropertyValidatorD1Ev @4898
    _ZN26wxNumericPropertyValidatorD2Ev @4899
    _ZN26wxPGGlobalVarsClassManagerC1Ev @4900
    _ZN26wxPGGlobalVarsClassManagerD1Ev @4901
    _ZN26wxPropertyGridIteratorBase13SetBaseParentEP12wxPGProperty @4902
    _ZN26wxPropertyGridIteratorBase4InitEP19wxPropertyGridStateiP12wxPGPropertyi @4903
    _ZN26wxPropertyGridIteratorBase4InitEP19wxPropertyGridStateiii @4904
    _ZN26wxPropertyGridIteratorBase4NextEb @4905
    _ZN26wxPropertyGridIteratorBase4PrevEv @4906
    _ZN26wxPropertyGridIteratorBase6AssignERKS_ @4907
    _ZN26wxPropertyGridIteratorBaseC1Ev @4908
    _ZN26wxPropertyGridIteratorBaseC2Ev @4909
    _ZN26wxWidgetsGUIAppAdoptingDlg10ID_BUTTON2E @4910 DATA
    _ZN26wxWidgetsGUIAppAdoptingDlg10ID_BUTTON3E @4911 DATA
    _ZN26wxWidgetsGUIAppAdoptingDlg10ID_BUTTON4E @4912 DATA
    _ZN26wxWidgetsGUIAppAdoptingDlg10ID_BUTTON5E @4913 DATA
    _ZN26wxWidgetsGUIAppAdoptingDlg10ID_BUTTON6E @4914 DATA
    _ZN26wxWidgetsGUIAppAdoptingDlg11ID_LISTBOX1E @4915 DATA
    _ZN26wxWidgetsGUIAppAdoptingDlg13sm_eventTableE @4916 DATA
    _ZN26wxWidgetsGUIAppAdoptingDlg14ID_STATICLINE1E @4917 DATA
    _ZN26wxWidgetsGUIAppAdoptingDlg14ID_STATICLINE2E @4918 DATA
    _ZN26wxWidgetsGUIAppAdoptingDlg14ID_STATICTEXT1E @4919 DATA
    _ZN26wxWidgetsGUIAppAdoptingDlg14ID_STATICTEXT2E @4920 DATA
    _ZN26wxWidgetsGUIAppAdoptingDlg14OnButton4ClickER14wxCommandEvent @4921
    _ZN26wxWidgetsGUIAppAdoptingDlg14OnButton6ClickER14wxCommandEvent @4922
    _ZN26wxWidgetsGUIAppAdoptingDlg16OnCreateBtnClickER14wxCommandEvent @4923
    _ZN26wxWidgetsGUIAppAdoptingDlg16OnSelectBtnClickER14wxCommandEvent @4924
    _ZN26wxWidgetsGUIAppAdoptingDlg17OnUseFileBtnClickER14wxCommandEvent @4925
    _ZN26wxWidgetsGUIAppAdoptingDlg17sm_eventHashTableE @4926 DATA
    _ZN26wxWidgetsGUIAppAdoptingDlg20sm_eventTableEntriesE @4927 DATA
    _ZN26wxWidgetsGUIAppAdoptingDlg3RunEv @4928
    _ZN26wxWidgetsGUIAppAdoptingDlg7OnCloseER12wxCloseEvent @4929
    _ZN26wxWidgetsGUIAppAdoptingDlg7OnTimerER12wxTimerEvent @4930
    _ZN26wxWidgetsGUIAppAdoptingDlg8AddSmithE8wxString @4931
    _ZN26wxWidgetsGUIAppAdoptingDlg8ScanFileEP11ProjectFile @4932
    _ZN26wxWidgetsGUIAppAdoptingDlg9ID_GAUGE1E @4933 DATA
    _ZN26wxWidgetsGUIAppAdoptingDlgC1EP8wxWindowP12wxWidgetsGUIi @4934
    _ZN26wxWidgetsGUIAppAdoptingDlgC2EP8wxWindowP12wxWidgetsGUIi @4935
    _ZN26wxWidgetsGUIAppAdoptingDlgD0Ev @4936
    _ZN26wxWidgetsGUIAppAdoptingDlgD1Ev @4937
    _ZN26wxWidgetsGUIAppAdoptingDlgD2Ev @4938
    _ZN27wxPGArrayStringEditorDialog11ArrayInsertERK8wxStringi @4939
    _ZN27wxPGArrayStringEditorDialog12ms_classInfoE @4940 DATA
    _ZN27wxPGArrayStringEditorDialog13ArrayGetCountEv @4941
    _ZN27wxPGArrayStringEditorDialog13ArrayRemoveAtEi @4942
    _ZN27wxPGArrayStringEditorDialog13sm_eventTableE @4943 DATA
    _ZN27wxPGArrayStringEditorDialog14SetDialogValueERK9wxVariant @4944
    _ZN27wxPGArrayStringEditorDialog14wxCreateObjectEv @4945
    _ZN27wxPGArrayStringEditorDialog15SetCustomButtonEPKwP21wxArrayStringProperty @4946
    _ZN27wxPGArrayStringEditorDialog17OnCustomEditClickER14wxCommandEvent @4947
    _ZN27wxPGArrayStringEditorDialog17sm_eventHashTableE @4948 DATA
    _ZN27wxPGArrayStringEditorDialog20sm_eventTableEntriesE @4949 DATA
    _ZN27wxPGArrayStringEditorDialog4InitEv @4950
    _ZN27wxPGArrayStringEditorDialog8ArrayGetEj @4951
    _ZN27wxPGArrayStringEditorDialog8ArraySetEjRK8wxString @4952
    _ZN27wxPGArrayStringEditorDialog9ArraySwapEjj @4953
    _ZN27wxPGArrayStringEditorDialogC1Ev @4954
    _ZN27wxPGArrayStringEditorDialogC2Ev @4955
    _ZN27wxPGArrayStringEditorDialogD0Ev @4956
    _ZN27wxPGArrayStringEditorDialogD1Ev @4957
    _ZN27wxPGArrayStringEditorDialogD2Ev @4958
    _ZN27wxPGLongStringDialogAdapter12DoShowDialogEP14wxPropertyGridP12wxPGProperty @4959
    _ZN27wxPGLongStringDialogAdapterD0Ev @4960
    _ZN27wxPGLongStringDialogAdapterD1Ev @4961
    _ZN27wxPGTextCtrlAndButtonEditor12ms_classInfoE @4962 DATA
    _ZN27wxPGTextCtrlAndButtonEditor14wxCreateObjectEv @4963
    _ZN27wxPGTextCtrlAndButtonEditorC1Ev @4964
    _ZN27wxPGTextCtrlAndButtonEditorC2Ev @4965
    _ZN27wxPGTextCtrlAndButtonEditorD0Ev @4966
    _ZN27wxPGTextCtrlAndButtonEditorD1Ev @4967
    _ZN27wxPGTextCtrlAndButtonEditorD2Ev @4968
    _ZN27wxPropertyGridConstIterator7OneStepEPK19wxPropertyGridStateiPK12wxPGPropertyi @4969
    _ZN27wxPropertyGridConstIteratorC1EPK19wxPropertyGridStateiPK12wxPGPropertyi @4970
    _ZN27wxPropertyGridConstIteratorC1EPK19wxPropertyGridStateiii @4971
    _ZN27wxPropertyGridConstIteratorC1ERK22wxPropertyGridIterator @4972
    _ZN27wxPropertyGridConstIteratorC1ERKS_ @4973
    _ZN27wxPropertyGridConstIteratorC1Ev @4974
    _ZN27wxPropertyGridConstIteratorC2EPK19wxPropertyGridStateiPK12wxPGPropertyi @4975
    _ZN27wxPropertyGridConstIteratorC2EPK19wxPropertyGridStateiii @4976
    _ZN27wxPropertyGridConstIteratorC2ERK22wxPropertyGridIterator @4977
    _ZN27wxPropertyGridConstIteratorC2ERKS_ @4978
    _ZN27wxPropertyGridConstIteratorC2Ev @4979
    _ZN27wxPropertyGridConstIteratorD1Ev @4980
    _ZN27wxPropertyGridConstIteratorD2Ev @4981
    _ZN27wxPropertyGridConstIteratoraSERK22wxPropertyGridIterator @4982
    _ZN27wxPropertyGridConstIteratoraSERKS_ @4983
    _ZN27wxPropertyGridConstIteratormmEi @4984
    _ZN27wxPropertyGridConstIteratormmEv @4985
    _ZN27wxPropertyGridConstIteratorppEi @4986
    _ZN27wxPropertyGridConstIteratorppEv @4987
    _ZN27wxPropertyGridHitTestResultC1Ev @4988
    _ZN27wxPropertyGridHitTestResultC2Ev @4989
    _ZN27wxPropertyGridHitTestResultD1Ev @4990
    _ZN27wxPropertyGridHitTestResultD2Ev @4991
    _ZN27wxsArrayStringCheckProperty10ShowEditorEP20wxsPropertyContainer @4992
    _ZN27wxsArrayStringCheckProperty11GetTypeNameEv @4993
    _ZN27wxsArrayStringCheckProperty14PropStreamReadEP20wxsPropertyContainerP17wxsPropertyStream @4994
    _ZN27wxsArrayStringCheckProperty15PropStreamWriteEP20wxsPropertyContainerP17wxsPropertyStream @4995
    _ZN27wxsArrayStringCheckProperty6GetStrEP20wxsPropertyContainer @4996
    _ZN27wxsArrayStringCheckProperty7XmlReadEP20wxsPropertyContainerP12TiXmlElement @4997
    _ZN27wxsArrayStringCheckProperty8XmlWriteEP20wxsPropertyContainerP12TiXmlElement @4998
    _ZN27wxsArrayStringCheckPropertyC1ERK8wxStringS2_S2_lli @4999
    _ZN27wxsArrayStringCheckPropertyC2ERK8wxStringS2_S2_lli @5000
    _ZN27wxsArrayStringCheckPropertyD0Ev @5001
    _ZN27wxsArrayStringCheckPropertyD1Ev @5002
    _ZN27wxsRichTextFormattingDialog19OnBuildCreatingCodeEv @5003
    _ZN27wxsRichTextFormattingDialog20OnEnumToolPropertiesEl @5004
    _ZN27wxsRichTextFormattingDialogC1EP14wxsItemResData @5005
    _ZN27wxsRichTextFormattingDialogC2EP14wxsItemResData @5006
    _ZN27wxsRichTextFormattingDialogD0Ev @5007
    _ZN27wxsRichTextFormattingDialogD1Ev @5008
    _ZN28wxsArrayStringCheckEditorDlg10ID_BUTTON1E @5009 DATA
    _ZN28wxsArrayStringCheckEditorDlg10ID_BUTTON2E @5010 DATA
    _ZN28wxsArrayStringCheckEditorDlg10ID_BUTTON3E @5011 DATA
    _ZN28wxsArrayStringCheckEditorDlg10ID_BUTTON4E @5012 DATA
    _ZN28wxsArrayStringCheckEditorDlg10ID_BUTTON5E @5013 DATA
    _ZN28wxsArrayStringCheckEditorDlg10ID_BUTTON6E @5014 DATA
    _ZN28wxsArrayStringCheckEditorDlg10ID_BUTTON7E @5015 DATA
    _ZN28wxsArrayStringCheckEditorDlg12ID_TEXTCTRL1E @5016 DATA
    _ZN28wxsArrayStringCheckEditorDlg13sm_eventTableE @5017 DATA
    _ZN28wxsArrayStringCheckEditorDlg14ID_STATICLINE1E @5018 DATA
    _ZN28wxsArrayStringCheckEditorDlg14ID_STATICLINE2E @5019 DATA
    _ZN28wxsArrayStringCheckEditorDlg14OnButton1ClickER14wxCommandEvent @5020
    _ZN28wxsArrayStringCheckEditorDlg14OnButton2ClickER14wxCommandEvent @5021
    _ZN28wxsArrayStringCheckEditorDlg14OnButton3ClickER14wxCommandEvent @5022
    _ZN28wxsArrayStringCheckEditorDlg14OnButton4ClickER14wxCommandEvent @5023
    _ZN28wxsArrayStringCheckEditorDlg14OnButton5ClickER14wxCommandEvent @5024
    _ZN28wxsArrayStringCheckEditorDlg14OnButton6ClickER14wxCommandEvent @5025
    _ZN28wxsArrayStringCheckEditorDlg14OnButton7ClickER14wxCommandEvent @5026
    _ZN28wxsArrayStringCheckEditorDlg16ID_CHECKLISTBOX1E @5027 DATA
    _ZN28wxsArrayStringCheckEditorDlg17sm_eventHashTableE @5028 DATA
    _ZN28wxsArrayStringCheckEditorDlg19OnStringListToggledER14wxCommandEvent @5029
    _ZN28wxsArrayStringCheckEditorDlg20sm_eventTableEntriesE @5030 DATA
    _ZN28wxsArrayStringCheckEditorDlgC1EP8wxWindowR13wxArrayStringR11wxArrayBooli @5031
    _ZN28wxsArrayStringCheckEditorDlgC2EP8wxWindowR13wxArrayStringR11wxArrayBooli @5032
    _ZN28wxsArrayStringCheckEditorDlgD0Ev @5033
    _ZN28wxsArrayStringCheckEditorDlgD1Ev @5034
    _ZN28wxsArrayStringCheckEditorDlgD2Ev @5035
    _ZN31wxsRichTextStyleOrganiserDialog19OnBuildCreatingCodeEv @5036
    _ZN31wxsRichTextStyleOrganiserDialog20OnEnumToolPropertiesEl @5037
    _ZN31wxsRichTextStyleOrganiserDialogC1EP14wxsItemResData @5038
    _ZN31wxsRichTextStyleOrganiserDialogC2EP14wxsItemResData @5039
    _ZN31wxsRichTextStyleOrganiserDialogD0Ev @5040
    _ZN31wxsRichTextStyleOrganiserDialogD1Ev @5041
    _ZN32StringHash_wxImplementation_PairC1ERKS_ @5042
    _ZN32StringHash_wxImplementation_PairD1Ev @5043
    _ZN33StringHash_wxImplementation_KeyExaSERKS_ @5044
    _ZN34ProjectFiles_wxImplementation_PairC1ERKS_ @5045
    _ZN34ProjectFiles_wxImplementation_PairD1Ev @5046
    _ZN34wxPGVariantDataColourPropertyValue11GetValuePtrEv @5047
    _ZN34wxPGVariantDataColourPropertyValue11GetValueRefEv @5048
    _ZN34wxPGVariantDataColourPropertyValue12ms_classInfoE @5049 DATA
    _ZN34wxPGVariantDataColourPropertyValue14wxCreateObjectEv @5050
    _ZN34wxPGVariantDataColourPropertyValue17GetValueClassInfoEv @5051
    _ZN34wxPGVariantDataColourPropertyValue4ReadER8wxString @5052
    _ZN34wxPGVariantDataColourPropertyValue5CloneEv @5053
    _ZN34wxPGVariantDataColourPropertyValueC1ERK21wxColourPropertyValue @5054
    _ZN34wxPGVariantDataColourPropertyValueC1Ev @5055
    _ZN34wxPGVariantDataColourPropertyValueD0Ev @5056
    _ZN34wxPGVariantDataColourPropertyValueD1Ev @5057
    _ZN35ProjectFiles_wxImplementation_KeyExaSERKS_ @5058
    _ZN36wxMapTreeAttr_wxImplementation_KeyExC1Ev @5059
    _ZN36wxPGHashMapI2I_wxImplementation_PairC1ERKiS1_ @5060
    _ZN36wxPGHashMapI2I_wxImplementation_PairC2ERKiS1_ @5061
    _ZN36wxPGHashMapP2P_wxImplementation_PairC1ERKPKvS3_ @5062
    _ZN36wxPGHashMapP2P_wxImplementation_PairC2ERKPKvS3_ @5063
    _ZN36wxPGHashMapS2P_wxImplementation_PairC1ERK8wxStringRKPKv @5064
    _ZN36wxPGHashMapS2P_wxImplementation_PairC1ERKS_ @5065
    _ZN36wxPGHashMapS2P_wxImplementation_PairC2ERK8wxStringRKPKv @5066
    _ZN36wxPGHashMapS2P_wxImplementation_PairD1Ev @5067
    _ZN37StringHash_wxImplementation_HashTable10DeleteNodeEP21_wxHashTable_NodeBase @5068
    _ZN37StringHash_wxImplementation_HashTable11ResizeTableEj @5069
    _ZN37StringHash_wxImplementation_HashTable16GetBucketForNodeEPS_PNS_4NodeE @5070
    _ZN37StringHash_wxImplementation_HashTable4NodeC1ERKS0_ @5071
    _ZN37StringHash_wxImplementation_HashTable4NodeD1Ev @5072
    _ZN37StringHash_wxImplementation_HashTable5clearEv @5073
    _ZN37StringHash_wxImplementation_HashTable8CopyNodeEPNS_4NodeE @5074
    _ZN37StringHash_wxImplementation_HashTable8HashCopyERKS_ @5075
    _ZN37StringHash_wxImplementation_HashTableaSERKS_ @5076
    _ZN37wxPGHashMapI2I_wxImplementation_KeyExC1Ev @5077
    _ZN37wxPGHashMapI2I_wxImplementation_KeyExC2Ev @5078
    _ZN37wxPGHashMapI2I_wxImplementation_KeyExaSERKS_ @5079
    _ZN37wxPGHashMapP2P_wxImplementation_KeyExC1Ev @5080
    _ZN37wxPGHashMapP2P_wxImplementation_KeyExC2Ev @5081
    _ZN37wxPGHashMapP2P_wxImplementation_KeyExaSERKS_ @5082
    _ZN37wxPGHashMapS2P_wxImplementation_KeyExC1Ev @5083
    _ZN37wxPGHashMapS2P_wxImplementation_KeyExC2Ev @5084
    _ZN37wxPGHashMapS2P_wxImplementation_KeyExaSERKS_ @5085
    _ZN39ProjectFiles_wxImplementation_HashTable10DeleteNodeEP21_wxHashTable_NodeBase @5086
    _ZN39ProjectFiles_wxImplementation_HashTable11ResizeTableEj @5087
    _ZN39ProjectFiles_wxImplementation_HashTable16GetBucketForNodeEPS_PNS_4NodeE @5088
    _ZN39ProjectFiles_wxImplementation_HashTable4NodeC1ERKS0_ @5089
    _ZN39ProjectFiles_wxImplementation_HashTable4NodeD1Ev @5090
    _ZN39ProjectFiles_wxImplementation_HashTable5clearEv @5091
    _ZN39ProjectFiles_wxImplementation_HashTable8CopyNodeEPNS_4NodeE @5092
    _ZN39ProjectFiles_wxImplementation_HashTable8HashCopyERKS_ @5093
    _ZN39ProjectFiles_wxImplementation_HashTableaSERKS_ @5094
    _ZN3MgrI14ProjectManagerE3GetEv @5095
    _ZN40wxMapTreeAttr_wxImplementation_HashTable10DeleteNodeEP21_wxHashTable_NodeBase @5096
    _ZN40wxMapTreeAttr_wxImplementation_HashTable5clearEv @5097
    _ZN40wxMapTreeAttr_wxImplementation_HashTableC2EjRK13wxPointerHashRK14wxPointerEqualRK36wxMapTreeAttr_wxImplementation_KeyEx @5098
    _ZN40wxMapTreeAttr_wxImplementation_HashTableD2Ev @5099
    _ZN41wxPGHashMapI2I_wxImplementation_HashTable10CreateNodeERK36wxPGHashMapI2I_wxImplementation_Pair @5100
    _ZN41wxPGHashMapI2I_wxImplementation_HashTable10CreateNodeERK36wxPGHashMapI2I_wxImplementation_Pairj @5101
    _ZN41wxPGHashMapI2I_wxImplementation_HashTable10DeleteNodeEP21_wxHashTable_NodeBase @5102
    _ZN41wxPGHashMapI2I_wxImplementation_HashTable10hash_functEv @5103
    _ZN41wxPGHashMapI2I_wxImplementation_HashTable11ResizeTableEj @5104
    _ZN41wxPGHashMapI2I_wxImplementation_HashTable14const_iteratorC1ENS_8iteratorE @5105
    _ZN41wxPGHashMapI2I_wxImplementation_HashTable14const_iteratorC1EPNS_4NodeEPKS_ @5106
    _ZN41wxPGHashMapI2I_wxImplementation_HashTable14const_iteratorC1Ev @5107
    _ZN41wxPGHashMapI2I_wxImplementation_HashTable14const_iteratorC2ENS_8iteratorE @5108
    _ZN41wxPGHashMapI2I_wxImplementation_HashTable14const_iteratorC2EPNS_4NodeEPKS_ @5109
    _ZN41wxPGHashMapI2I_wxImplementation_HashTable14const_iteratorC2Ev @5110
    _ZN41wxPGHashMapI2I_wxImplementation_HashTable14const_iteratorppEi @5111
    _ZN41wxPGHashMapI2I_wxImplementation_HashTable14const_iteratorppEv @5112
    _ZN41wxPGHashMapI2I_wxImplementation_HashTable15GetOrCreateNodeERK36wxPGHashMapI2I_wxImplementation_PairRb @5113
    _ZN41wxPGHashMapI2I_wxImplementation_HashTable16GetBucketForNodeEPS_PNS_4NodeE @5114
    _ZN41wxPGHashMapI2I_wxImplementation_HashTable3endEv @5115
    _ZN41wxPGHashMapI2I_wxImplementation_HashTable4Node6m_nextEv @5116
    _ZN41wxPGHashMapI2I_wxImplementation_HashTable4NodeC1ERK36wxPGHashMapI2I_wxImplementation_Pair @5117
    _ZN41wxPGHashMapI2I_wxImplementation_HashTable5beginEv @5118
    _ZN41wxPGHashMapI2I_wxImplementation_HashTable5clearEv @5119
    _ZN41wxPGHashMapI2I_wxImplementation_HashTable5eraseERKi @5120
    _ZN41wxPGHashMapI2I_wxImplementation_HashTable6key_eqEv @5121
    _ZN41wxPGHashMapI2I_wxImplementation_HashTable8CopyNodeEPNS_4NodeE @5122
    _ZN41wxPGHashMapI2I_wxImplementation_HashTable8HashCopyERKS_ @5123
    _ZN41wxPGHashMapI2I_wxImplementation_HashTable8Iterator11GetNextNodeEv @5124
    _ZN41wxPGHashMapI2I_wxImplementation_HashTable8Iterator8PlusPlusEv @5125
    _ZN41wxPGHashMapI2I_wxImplementation_HashTable8IteratorC1EPNS_4NodeEPKS_ @5126
    _ZN41wxPGHashMapI2I_wxImplementation_HashTable8IteratorC1Ev @5127
    _ZN41wxPGHashMapI2I_wxImplementation_HashTable8IteratorC2EPNS_4NodeEPKS_ @5128
    _ZN41wxPGHashMapI2I_wxImplementation_HashTable8IteratorC2Ev @5129
    _ZN41wxPGHashMapI2I_wxImplementation_HashTable8iteratorC1EPNS_4NodeEPS_ @5130
    _ZN41wxPGHashMapI2I_wxImplementation_HashTable8iteratorC1Ev @5131
    _ZN41wxPGHashMapI2I_wxImplementation_HashTable8iteratorC2EPNS_4NodeEPS_ @5132
    _ZN41wxPGHashMapI2I_wxImplementation_HashTable8iteratorC2Ev @5133
    _ZN41wxPGHashMapI2I_wxImplementation_HashTable8iteratorppEi @5134
    _ZN41wxPGHashMapI2I_wxImplementation_HashTable8iteratorppEv @5135
    _ZN41wxPGHashMapI2I_wxImplementation_HashTableC1ERKS_ @5136
    _ZN41wxPGHashMapI2I_wxImplementation_HashTableC1EjRK13wxIntegerHashRK14wxIntegerEqualRK37wxPGHashMapI2I_wxImplementation_KeyEx @5137
    _ZN41wxPGHashMapI2I_wxImplementation_HashTableC2ERKS_ @5138
    _ZN41wxPGHashMapI2I_wxImplementation_HashTableC2EjRK13wxIntegerHashRK14wxIntegerEqualRK37wxPGHashMapI2I_wxImplementation_KeyEx @5139
    _ZN41wxPGHashMapI2I_wxImplementation_HashTableD1Ev @5140
    _ZN41wxPGHashMapI2I_wxImplementation_HashTableD2Ev @5141
    _ZN41wxPGHashMapI2I_wxImplementation_HashTableaSERKS_ @5142
    _ZN41wxPGHashMapP2P_wxImplementation_HashTable10CreateNodeERK36wxPGHashMapP2P_wxImplementation_Pair @5143
    _ZN41wxPGHashMapP2P_wxImplementation_HashTable10CreateNodeERK36wxPGHashMapP2P_wxImplementation_Pairj @5144
    _ZN41wxPGHashMapP2P_wxImplementation_HashTable10DeleteNodeEP21_wxHashTable_NodeBase @5145
    _ZN41wxPGHashMapP2P_wxImplementation_HashTable10hash_functEv @5146
    _ZN41wxPGHashMapP2P_wxImplementation_HashTable11ResizeTableEj @5147
    _ZN41wxPGHashMapP2P_wxImplementation_HashTable14const_iteratorC1ENS_8iteratorE @5148
    _ZN41wxPGHashMapP2P_wxImplementation_HashTable14const_iteratorC1EPNS_4NodeEPKS_ @5149
    _ZN41wxPGHashMapP2P_wxImplementation_HashTable14const_iteratorC1Ev @5150
    _ZN41wxPGHashMapP2P_wxImplementation_HashTable14const_iteratorC2ENS_8iteratorE @5151
    _ZN41wxPGHashMapP2P_wxImplementation_HashTable14const_iteratorC2EPNS_4NodeEPKS_ @5152
    _ZN41wxPGHashMapP2P_wxImplementation_HashTable14const_iteratorC2Ev @5153
    _ZN41wxPGHashMapP2P_wxImplementation_HashTable14const_iteratorppEi @5154
    _ZN41wxPGHashMapP2P_wxImplementation_HashTable14const_iteratorppEv @5155
    _ZN41wxPGHashMapP2P_wxImplementation_HashTable15GetOrCreateNodeERK36wxPGHashMapP2P_wxImplementation_PairRb @5156
    _ZN41wxPGHashMapP2P_wxImplementation_HashTable16GetBucketForNodeEPS_PNS_4NodeE @5157
    _ZN41wxPGHashMapP2P_wxImplementation_HashTable3endEv @5158
    _ZN41wxPGHashMapP2P_wxImplementation_HashTable4Node6m_nextEv @5159
    _ZN41wxPGHashMapP2P_wxImplementation_HashTable4NodeC1ERK36wxPGHashMapP2P_wxImplementation_Pair @5160
    _ZN41wxPGHashMapP2P_wxImplementation_HashTable5beginEv @5161
    _ZN41wxPGHashMapP2P_wxImplementation_HashTable5clearEv @5162
    _ZN41wxPGHashMapP2P_wxImplementation_HashTable5eraseERKPKv @5163
    _ZN41wxPGHashMapP2P_wxImplementation_HashTable6key_eqEv @5164
    _ZN41wxPGHashMapP2P_wxImplementation_HashTable8CopyNodeEPNS_4NodeE @5165
    _ZN41wxPGHashMapP2P_wxImplementation_HashTable8HashCopyERKS_ @5166
    _ZN41wxPGHashMapP2P_wxImplementation_HashTable8Iterator11GetNextNodeEv @5167
    _ZN41wxPGHashMapP2P_wxImplementation_HashTable8Iterator8PlusPlusEv @5168
    _ZN41wxPGHashMapP2P_wxImplementation_HashTable8IteratorC1EPNS_4NodeEPKS_ @5169
    _ZN41wxPGHashMapP2P_wxImplementation_HashTable8IteratorC1Ev @5170
    _ZN41wxPGHashMapP2P_wxImplementation_HashTable8IteratorC2EPNS_4NodeEPKS_ @5171
    _ZN41wxPGHashMapP2P_wxImplementation_HashTable8IteratorC2Ev @5172
    _ZN41wxPGHashMapP2P_wxImplementation_HashTable8iteratorC1EPNS_4NodeEPS_ @5173
    _ZN41wxPGHashMapP2P_wxImplementation_HashTable8iteratorC1Ev @5174
    _ZN41wxPGHashMapP2P_wxImplementation_HashTable8iteratorC2EPNS_4NodeEPS_ @5175
    _ZN41wxPGHashMapP2P_wxImplementation_HashTable8iteratorC2Ev @5176
    _ZN41wxPGHashMapP2P_wxImplementation_HashTable8iteratorppEi @5177
    _ZN41wxPGHashMapP2P_wxImplementation_HashTable8iteratorppEv @5178
    _ZN41wxPGHashMapP2P_wxImplementation_HashTableC1ERKS_ @5179
    _ZN41wxPGHashMapP2P_wxImplementation_HashTableC1EjRK13wxPointerHashRK14wxPointerEqualRK37wxPGHashMapP2P_wxImplementation_KeyEx @5180
    _ZN41wxPGHashMapP2P_wxImplementation_HashTableC2ERKS_ @5181
    _ZN41wxPGHashMapP2P_wxImplementation_HashTableC2EjRK13wxPointerHashRK14wxPointerEqualRK37wxPGHashMapP2P_wxImplementation_KeyEx @5182
    _ZN41wxPGHashMapP2P_wxImplementation_HashTableD1Ev @5183
    _ZN41wxPGHashMapP2P_wxImplementation_HashTableD2Ev @5184
    _ZN41wxPGHashMapP2P_wxImplementation_HashTableaSERKS_ @5185
    _ZN41wxPGHashMapS2P_wxImplementation_HashTable10CreateNodeERK36wxPGHashMapS2P_wxImplementation_Pair @5186
    _ZN41wxPGHashMapS2P_wxImplementation_HashTable10CreateNodeERK36wxPGHashMapS2P_wxImplementation_Pairj @5187
    _ZN41wxPGHashMapS2P_wxImplementation_HashTable10DeleteNodeEP21_wxHashTable_NodeBase @5188
    _ZN41wxPGHashMapS2P_wxImplementation_HashTable10hash_functEv @5189
    _ZN41wxPGHashMapS2P_wxImplementation_HashTable11ResizeTableEj @5190
    _ZN41wxPGHashMapS2P_wxImplementation_HashTable14const_iteratorC1ENS_8iteratorE @5191
    _ZN41wxPGHashMapS2P_wxImplementation_HashTable14const_iteratorC1EPNS_4NodeEPKS_ @5192
    _ZN41wxPGHashMapS2P_wxImplementation_HashTable14const_iteratorC1Ev @5193
    _ZN41wxPGHashMapS2P_wxImplementation_HashTable14const_iteratorC2ENS_8iteratorE @5194
    _ZN41wxPGHashMapS2P_wxImplementation_HashTable14const_iteratorC2EPNS_4NodeEPKS_ @5195
    _ZN41wxPGHashMapS2P_wxImplementation_HashTable14const_iteratorC2Ev @5196
    _ZN41wxPGHashMapS2P_wxImplementation_HashTable14const_iteratorppEi @5197
    _ZN41wxPGHashMapS2P_wxImplementation_HashTable14const_iteratorppEv @5198
    _ZN41wxPGHashMapS2P_wxImplementation_HashTable15GetOrCreateNodeERK36wxPGHashMapS2P_wxImplementation_PairRb @5199
    _ZN41wxPGHashMapS2P_wxImplementation_HashTable16GetBucketForNodeEPS_PNS_4NodeE @5200
    _ZN41wxPGHashMapS2P_wxImplementation_HashTable3endEv @5201
    _ZN41wxPGHashMapS2P_wxImplementation_HashTable4Node6m_nextEv @5202
    _ZN41wxPGHashMapS2P_wxImplementation_HashTable4NodeC1ERK36wxPGHashMapS2P_wxImplementation_Pair @5203
    _ZN41wxPGHashMapS2P_wxImplementation_HashTable4NodeC1ERKS0_ @5204
    _ZN41wxPGHashMapS2P_wxImplementation_HashTable4NodeD1Ev @5205
    _ZN41wxPGHashMapS2P_wxImplementation_HashTable5beginEv @5206
    _ZN41wxPGHashMapS2P_wxImplementation_HashTable5clearEv @5207
    _ZN41wxPGHashMapS2P_wxImplementation_HashTable5eraseERK8wxString @5208
    _ZN41wxPGHashMapS2P_wxImplementation_HashTable6key_eqEv @5209
    _ZN41wxPGHashMapS2P_wxImplementation_HashTable8CopyNodeEPNS_4NodeE @5210
    _ZN41wxPGHashMapS2P_wxImplementation_HashTable8HashCopyERKS_ @5211
    _ZN41wxPGHashMapS2P_wxImplementation_HashTable8Iterator11GetNextNodeEv @5212
    _ZN41wxPGHashMapS2P_wxImplementation_HashTable8Iterator8PlusPlusEv @5213
    _ZN41wxPGHashMapS2P_wxImplementation_HashTable8IteratorC1EPNS_4NodeEPKS_ @5214
    _ZN41wxPGHashMapS2P_wxImplementation_HashTable8IteratorC1Ev @5215
    _ZN41wxPGHashMapS2P_wxImplementation_HashTable8IteratorC2EPNS_4NodeEPKS_ @5216
    _ZN41wxPGHashMapS2P_wxImplementation_HashTable8IteratorC2Ev @5217
    _ZN41wxPGHashMapS2P_wxImplementation_HashTable8iteratorC1EPNS_4NodeEPS_ @5218
    _ZN41wxPGHashMapS2P_wxImplementation_HashTable8iteratorC1Ev @5219
    _ZN41wxPGHashMapS2P_wxImplementation_HashTable8iteratorC2EPNS_4NodeEPS_ @5220
    _ZN41wxPGHashMapS2P_wxImplementation_HashTable8iteratorC2Ev @5221
    _ZN41wxPGHashMapS2P_wxImplementation_HashTable8iteratorppEi @5222
    _ZN41wxPGHashMapS2P_wxImplementation_HashTable8iteratorppEv @5223
    _ZN41wxPGHashMapS2P_wxImplementation_HashTableC1ERKS_ @5224
    _ZN41wxPGHashMapS2P_wxImplementation_HashTableC1EjRK12wxStringHashRK13wxStringEqualRK37wxPGHashMapS2P_wxImplementation_KeyEx @5225
    _ZN41wxPGHashMapS2P_wxImplementation_HashTableC2ERKS_ @5226
    _ZN41wxPGHashMapS2P_wxImplementation_HashTableC2EjRK12wxStringHashRK13wxStringEqualRK37wxPGHashMapS2P_wxImplementation_KeyEx @5227
    _ZN41wxPGHashMapS2P_wxImplementation_HashTableD1Ev @5228
    _ZN41wxPGHashMapS2P_wxImplementation_HashTableD2Ev @5229
    _ZN41wxPGHashMapS2P_wxImplementation_HashTableaSERKS_ @5230
    _ZN42wxImageHistogramBase_wxImplementation_PairC1ERKmRK21wxImageHistogramEntry @5231
    _ZN43wxImageHistogramBase_wxImplementation_KeyExC1Ev @5232
    _ZN47wxImageHistogramBase_wxImplementation_HashTable10CreateNodeERK42wxImageHistogramBase_wxImplementation_Pairj @5233
    _ZN47wxImageHistogramBase_wxImplementation_HashTable10DeleteNodeEP21_wxHashTable_NodeBase @5234
    _ZN47wxImageHistogramBase_wxImplementation_HashTable11ResizeTableEj @5235
    _ZN47wxImageHistogramBase_wxImplementation_HashTable15GetOrCreateNodeERK42wxImageHistogramBase_wxImplementation_PairRb @5236
    _ZN47wxImageHistogramBase_wxImplementation_HashTable16GetBucketForNodeEPS_PNS_4NodeE @5237
    _ZN47wxImageHistogramBase_wxImplementation_HashTable3endEv @5238
    _ZN47wxImageHistogramBase_wxImplementation_HashTable4Node6m_nextEv @5239
    _ZN47wxImageHistogramBase_wxImplementation_HashTable4NodeC1ERK42wxImageHistogramBase_wxImplementation_Pair @5240
    _ZN47wxImageHistogramBase_wxImplementation_HashTable5beginEv @5241
    _ZN47wxImageHistogramBase_wxImplementation_HashTable5clearEv @5242
    _ZN47wxImageHistogramBase_wxImplementation_HashTable8Iterator11GetNextNodeEv @5243
    _ZN47wxImageHistogramBase_wxImplementation_HashTable8Iterator8PlusPlusEv @5244
    _ZN47wxImageHistogramBase_wxImplementation_HashTable8IteratorC2EPNS_4NodeEPKS_ @5245
    _ZN47wxImageHistogramBase_wxImplementation_HashTable8iteratorC1EPNS_4NodeEPS_ @5246
    _ZN47wxImageHistogramBase_wxImplementation_HashTable8iteratorppEv @5247
    _ZN47wxImageHistogramBase_wxImplementation_HashTableC2EjRK13wxIntegerHashRK14wxIntegerEqualRK43wxImageHistogramBase_wxImplementation_KeyEx @5248
    _ZN47wxImageHistogramBase_wxImplementation_HashTableD2Ev @5249
    _ZN4wxDC4InitEv @5250
    _ZN4wxDCC2Ev @5251
    _ZN6Logger13CreateControlEP8wxWindow @5252
    _ZN6Logger14UpdateSettingsEv @5253
    _ZN6Logger23CopyContentsToClipboardEb @5254
    _ZN6Logger5ClearEv @5255
    _ZN6LoggerC2Ev @5256
    _ZN6LoggerD0Ev @5257
    _ZN6LoggerD1Ev @5258
    _ZN6LoggerD2Ev @5259
    _ZN6SqPlus11GetInstanceI8wxStringLb0EEEPT_P4SQVMi @5260
    _ZN6SqPlus11GetInstanceI8wxStringLb1EEEPT_P4SQVMi @5261
    _ZN6SqPlus11GetInstanceI9cbProjectLb0EEEPT_P4SQVMi @5262
    _ZN6SqPlus11GetInstanceI9cbProjectLb1EEEPT_P4SQVMi @5263
    _ZN6SqPlus14RegisterGlobalIPFbRK8wxStringEEEvP4SQVMT_PKc @5264
    _ZN6SqPlus14RegisterGlobalIPFbRK8wxStringEEEvT_PKc @5265
    _ZN6SqPlus14RegisterGlobalIPFvP9cbProjectRK8wxStringS5_S5_S5_EEEvP4SQVMT_PKc @5266
    _ZN6SqPlus14RegisterGlobalIPFvP9cbProjectRK8wxStringS5_S5_S5_EEEvT_PKc @5267
    _ZN6SqPlus18DirectCallFunctionIPFbRK8wxStringEE8DispatchEP4SQVM @5268
    _ZN6SqPlus18DirectCallFunctionIPFvP9cbProjectRK8wxStringS5_S5_S5_EE8DispatchEP4SQVM @5269
    _ZN6SqPlus20ReturnSpecializationIbE4CallIRK8wxStringEEiPFbT_EP4SQVMi @5270
    _ZN6SqPlus20ReturnSpecializationIvE4CallIP9cbProjectRK8wxStringS7_S7_S7_EEiPFvT_T0_T1_T2_T3_EP4SQVMi @5271
    _ZN6SqPlus20sq_pushdirectclosureIPFbRK8wxStringEEEvP4SQVMT_j @5272
    _ZN6SqPlus20sq_pushdirectclosureIPFvP9cbProjectRK8wxStringS5_S5_S5_EEEvP4SQVMT_j @5273
    _ZN6SqPlus3GetENS_11TypeWrapperIP9cbProjectEEP4SQVMi @5274
    _ZN6SqPlus3GetENS_11TypeWrapperIRK8wxStringEEP4SQVMi @5275
    _ZN6SqPlus4CallIbRK8wxStringEEiPFT_T0_EP4SQVMi @5276
    _ZN6SqPlus4CallIvP9cbProjectRK8wxStringS5_S5_S5_EEiPFT_T0_T1_T2_T3_T4_EP4SQVMi @5277
    _ZN6SqPlus4PushEP4SQVMb @5278
    _ZN6SqPlus5MatchENS_11TypeWrapperIP9cbProjectEEP4SQVMi @5279
    _ZN6SqPlus5MatchENS_11TypeWrapperIRK8wxStringEEP4SQVMi @5280
    _ZN6SqPlus8RegisterIPFbRK8wxStringEEEvP4SQVMT_PKc @5281
    _ZN6SqPlus8RegisterIPFvP9cbProjectRK8wxStringS5_S5_S5_EEEvP4SQVMT_PKc @5282
    _ZN6SqPlus9ClassTypeI8wxStringE4copyEPS1_S3_ @5283
    _ZN6SqPlus9ClassTypeI8wxStringE4typeEv @5284
    _ZN6SqPlus9ClassTypeI9cbProjectE4copyEPS1_S3_ @5285
    _ZN6SqPlus9ClassTypeI9cbProjectE4typeEv @5286
    _ZN6wxFile5WriteERK8wxStringRK8wxMBConv @5287
    _ZN6wxFileC1Ev @5288
    _ZN6wxFileD1Ev @5289
    _ZN6wxFont6CreateEiiiibRK8wxString14wxFontEncoding @5290
    _ZN6wxFontC1ERKS_ @5291
    _ZN6wxFontC1EiiiibRK8wxString14wxFontEncoding @5292
    _ZN6wxFontC1Ev @5293
    _ZN6wxFontaSERKS_ @5294
    _ZN6wxIconC1Ev @5295
    _ZN6wxListD1Ev @5296
    _ZN6wxMenuC1El @5297
    _ZN6wxRect7InflateEi @5298
    _ZN6wxRectC1Eiiii @5299
    _ZN6wxRectC1Ev @5300
    _ZN6wxSize11SetDefaultsERKS_ @5301
    _ZN6wxSize3SetEii @5302
    _ZN6wxSizeC1Eii @5303
    _ZN6wxSizeC1Ev @5304
    _ZN6wxsGUI10ReadConfigEP12TiXmlElement @5305
    _ZN6wxsGUI11WriteConfigEP12TiXmlElement @5306
    _ZN6wxsGUI12NotifyChangeEv @5307
    _ZN6wxsGUI12ms_classInfoE @5308 DATA
    _ZN6wxsGUI14GetProjectPathEv @5309
    _ZN6wxsGUI22RebuildApplicationCodeEv @5310
    _ZN6wxsGUI23BuildConfigurationPanelEP8wxWindow @5311
    _ZN6wxsGUI24CreateApplicationBindingEv @5312
    _ZN6wxsGUI25CheckIfApplicationManagedEv @5313
    _ZN6wxsGUIC1ERK8wxStringP10wxsProject @5314
    _ZN6wxsGUIC2ERK8wxStringP10wxsProject @5315
    _ZN6wxsGUID0Ev @5316
    _ZN6wxsGUID1Ev @5317
    _ZN6wxsGUID2Ev @5318
    _ZN7wxBrushC1ERKS_ @5319
    _ZN7wxBrushaSERKS_ @5320
    _ZN7wxEvent12SetEventTypeEi @5321
    _ZN7wxEvent14SetEventObjectEP8wxObject @5322
    _ZN7wxEvent15StopPropagationEv @5323
    _ZN7wxEvent4SkipEb @5324
    _ZN7wxEvent5SetIdEi @5325
    _ZN7wxEventD2Ev @5326
    _ZN7wxFrame19MSWTranslateMessageEP6tagMSG @5327
    _ZN7wxFrameC2Ev @5328
    _ZN7wxImage11GetHandlersEv @5329
    _ZN7wxImage7RescaleEiii @5330
    _ZN7wxImageC1ERKS_ @5331
    _ZN7wxImageC1Ev @5332
    _ZN7wxImageD1Ev @5333
    _ZN7wxImageaSERKS_ @5334
    _ZN7wxPanelC1EP8wxWindowiRK7wxPointRK6wxSizelRK8wxString @5335
    _ZN7wxPanelC2EP8wxWindowiRK7wxPointRK6wxSizelRK8wxString @5336
    _ZN7wxPanelC2Ev @5337
    _ZN7wxPointC1Eii @5338
    _ZN7wxPointC1Ev @5339
    _ZN7wxSizer3AddEP11wxSizerItem @5340
    _ZN7wxSizer3AddEP8wxWindowiiiP8wxObject @5341
    _ZN7wxSizer3AddEPS_iiiP8wxObject @5342
    _ZN7wxSizer3AddEiiiiiP8wxObject @5343
    _ZN7wxSizer4HideEPS_b @5344
    _ZN7wxSmith10OnUpdateUIER15wxUpdateUIEvent @5345
    _ZN7wxSmith11OnConfigureER14wxCommandEvent @5346
    _ZN7wxSmith11ProjectMapT4findERKPK9cbProject @5347
    _ZN7wxSmith11ProjectMapT5eraseERKNS_38ProjectMapT_wxImplementation_HashTable8iteratorE @5348
    _ZN7wxSmith11ProjectMapT5eraseERKP9cbProject @5349
    _ZN7wxSmith11ProjectMapTC1Ej13wxPointerHash14wxPointerEqual @5350
    _ZN7wxSmith11ProjectMapTD1Ev @5351
    _ZN7wxSmith11ProjectMapTixERKPK9cbProject @5352
    _ZN7wxSmith11m_SingletonE @5353 DATA
    _ZN7wxSmith12BuildToolBarEP12wxAuiToolBar @5354
    _ZN7wxSmith12GetCBProjectEP10wxsProject @5355
    _ZN7wxSmith13BuildBrowsersEv @5356
    _ZN7wxSmith13OnProjectHookEP9cbProjectP12TiXmlElementb @5357
    _ZN7wxSmith13sm_eventTableE @5358 DATA
    _ZN7wxSmith14OnProjectCloseER15CodeBlocksEvent @5359
    _ZN7wxSmith14OnViewBrowsersER14wxCommandEvent @5360
    _ZN7wxSmith14RecoverWxsFileERK8wxString @5361
    _ZN7wxSmith15BuildModuleMenuE10ModuleTypeP6wxMenuPK12FileTreeData @5362
    _ZN7wxSmith15GetSmithProjectEP9cbProject @5363
    _ZN7wxSmith15OnProjectOpenedER15CodeBlocksEvent @5364
    _ZN7wxSmith16OnProjectRenamedER15CodeBlocksEvent @5365
    _ZN7wxSmith16ShowResourcesTabEv @5366
    _ZN7wxSmith17RegisterScriptingEv @5367
    _ZN7wxSmith17sm_eventHashTableE @5368 DATA
    _ZN7wxSmith19BuildBrowserParentsEv @5369
    _ZN7wxSmith19UnregisterScriptingEv @5370
    _ZN7wxSmith20sm_eventTableEntriesE @5371 DATA
    _ZN7wxSmith21GetConfigurationPanelEP8wxWindow @5372
    _ZN7wxSmith21OnViewPropertyBrowserER14wxCommandEvent @5373
    _ZN7wxSmith21OnViewResourceBrowserER14wxCommandEvent @5374
    _ZN7wxSmith28GetProjectConfigurationPanelEP8wxWindowP9cbProject @5375
    _ZN7wxSmith33ProjectMapT_wxImplementation_PairC1ERKPK9cbProjectRKPK10wxsProject @5376
    _ZN7wxSmith34ProjectMapT_wxImplementation_KeyExC1Ev @5377
    _ZN7wxSmith38ProjectMapT_wxImplementation_HashTable10CreateNodeERKNS_33ProjectMapT_wxImplementation_PairEj @5378
    _ZN7wxSmith38ProjectMapT_wxImplementation_HashTable10DeleteNodeEP21_wxHashTable_NodeBase @5379
    _ZN7wxSmith38ProjectMapT_wxImplementation_HashTable11ResizeTableEj @5380
    _ZN7wxSmith38ProjectMapT_wxImplementation_HashTable15GetOrCreateNodeERKNS_33ProjectMapT_wxImplementation_PairERb @5381
    _ZN7wxSmith38ProjectMapT_wxImplementation_HashTable16GetBucketForNodeEPS0_PNS0_4NodeE @5382
    _ZN7wxSmith38ProjectMapT_wxImplementation_HashTable3endEv @5383
    _ZN7wxSmith38ProjectMapT_wxImplementation_HashTable4Node6m_nextEv @5384
    _ZN7wxSmith38ProjectMapT_wxImplementation_HashTable4NodeC1ERKNS_33ProjectMapT_wxImplementation_PairE @5385
    _ZN7wxSmith38ProjectMapT_wxImplementation_HashTable5beginEv @5386
    _ZN7wxSmith38ProjectMapT_wxImplementation_HashTable5clearEv @5387
    _ZN7wxSmith38ProjectMapT_wxImplementation_HashTable5eraseERKPK9cbProject @5388
    _ZN7wxSmith38ProjectMapT_wxImplementation_HashTable8Iterator11GetNextNodeEv @5389
    _ZN7wxSmith38ProjectMapT_wxImplementation_HashTable8Iterator8PlusPlusEv @5390
    _ZN7wxSmith38ProjectMapT_wxImplementation_HashTable8IteratorC2EPNS0_4NodeEPKS0_ @5391
    _ZN7wxSmith38ProjectMapT_wxImplementation_HashTable8iteratorC1EPNS0_4NodeEPS0_ @5392
    _ZN7wxSmith38ProjectMapT_wxImplementation_HashTable8iteratorppEv @5393
    _ZN7wxSmith38ProjectMapT_wxImplementation_HashTableC2EjRK13wxPointerHashRK14wxPointerEqualRKNS_34ProjectMapT_wxImplementation_KeyExE @5394
    _ZN7wxSmith38ProjectMapT_wxImplementation_HashTableD2Ev @5395
    _ZN7wxSmith3GetEv @5396
    _ZN7wxSmith6OnMenuER14wxCommandEvent @5397
    _ZN7wxSmith8OnAttachEv @5398
    _ZN7wxSmith9BuildMenuEP9wxMenuBar @5399
    _ZN7wxSmith9OnReleaseEb @5400
    _ZN7wxSmithC1Ev @5401
    _ZN7wxSmithC2Ev @5402
    _ZN7wxSmithD0Ev @5403
    _ZN7wxSmithD1Ev @5404
    _ZN7wxSmithD2Ev @5405
    _ZN7wxTimerC1EP12wxEvtHandleri @5406
    _ZN7wxTimerC1Ev @5407
    _ZN7wxsGrid14OnBuildPreviewEP8wxWindowl @5408
    _ZN7wxsGrid19OnBuildCreatingCodeEv @5409
    _ZN7wxsGrid22OnEnumWidgetPropertiesEl @5410
    _ZN7wxsGridC1EP14wxsItemResData @5411
    _ZN7wxsGridC2EP14wxsItemResData @5412
    _ZN7wxsGridD0Ev @5413
    _ZN7wxsGridD1Ev @5414
    _ZN7wxsItem10GetVarNameEv @5415
    _ZN7wxsItem10IsRootItemEv @5416
    _ZN7wxsItem10MouseClickEP8wxWindowii @5417
    _ZN7wxsItem10OnXmlWriteEP12TiXmlElementbb @5418
    _ZN7wxsItem10SetVarNameERK8wxString @5419
    _ZN7wxsItem11GetIsMemberEv @5420
    _ZN7wxsItem11MouseDClickEP8wxWindowii @5421
    _ZN7wxsItem11OnIsPointerEv @5422
    _ZN7wxsItem11SetIsMemberEb @5423
    _ZN7wxsItem11SetupWindowEP8wxWindowl @5424
    _ZN7wxsItem12BuildPreviewEP8wxWindowl @5425
    _ZN7wxsItem12GetBasePropsEv @5426
    _ZN7wxsItem12GetClassNameEv @5427
    _ZN7wxsItem12GetUserClassEv @5428
    _ZN7wxsItem12OnAddItemQPPEP9wxsAdvQPP @5429
    _ZN7wxsItem12OnMouseClickEP8wxWindowii @5430
    _ZN7wxsItem12SetUserClassERK8wxString @5431
    _ZN7wxsItem13BuildItemTreeEP15wxsResourceTree12wxTreeItemIdi @5432
    _ZN7wxsItem13ConvertToToolEv @5433
    _ZN7wxsItem13GetIsExpandedEv @5434
    _ZN7wxsItem13GetIsSelectedEv @5435
    _ZN7wxsItem13OnBuildIdCodeEv @5436
    _ZN7wxsItem13OnMouseDClickEP8wxWindowii @5437
    _ZN7wxsItem13OnUpdateFlagsERl @5438
    _ZN7wxsItem13SetIsExpandedEb @5439
    _ZN7wxsItem13SetIsSelectedEb @5440
    _ZN7wxsItem14CanAddToParentEP9wxsParentb @5441
    _ZN7wxsItem14ClearSelectionEv @5442
    _ZN7wxsItem14GetLastPreviewEv @5443
    _ZN7wxsItem14OnGetTreeLabelERi @5444
    _ZN7wxsItem14OnPreparePopupEP6wxMenu @5445
    _ZN7wxsItem15ConvertToParentEv @5446
    _ZN7wxsItem15GetAccessPrefixE13wxsCodingLang @5447
    _ZN7wxsItem15GetCreatePrefixE13wxsCodingLang @5448
    _ZN7wxsItem15GetResourceDataEv @5449
    _ZN7wxsItem15MouseRightClickEP8wxWindowii @5450
    _ZN7wxsItem15UpdateTreeLabelEv @5451
    _ZN7wxsItem16OnCanAddToParentEP9wxsParentb @5452
    _ZN7wxsItem16OnCodefExtensionE13wxsCodingLangR8wxStringRPKwPc @5453
    _ZN7wxsItem16OnEnumPropertiesEl @5454
    _ZN7wxsItem17GetLastTreeItemIdEv @5455
    _ZN7wxsItem17OnMouseRightClickEP8wxWindowii @5456
    _ZN7wxsItem17OnPropertyChangedEv @5457
    _ZN7wxsItem18EnumItemPropertiesEl @5458
    _ZN7wxsItem20BuildSetupWindowCodeEv @5459
    _ZN7wxsItem20OnAddExtraPropertiesEP22wxsPropertyGridManager @5460
    _ZN7wxsItem20OnGetPropertiesFlagsEv @5461
    _ZN7wxsItem20OnSubPropertyChangedEP20wxsPropertyContainer @5462
    _ZN7wxsItem22OnBuildXRCFetchingCodeEv @5463
    _ZN7wxsItem22OnExtraPropertyChangedEP22wxsPropertyGridManagerP12wxPGProperty @5464
    _ZN7wxsItem23OnBuildDeclarationsCodeEv @5465
    _ZN7wxsItem23OnCreateQuickPropertiesEP8wxWindow @5466
    _ZN7wxsItem27OnBuildEventsConnectingCodeEv @5467
    _ZN7wxsItem3PosEP8wxWindow @5468
    _ZN7wxsItem4SizeEP8wxWindow @5469
    _ZN7wxsItem5CodefEP15wxsCoderContextPKwR8wxStringPc @5470
    _ZN7wxsItem5CodefEP15wxsCoderContextPKwz @5471
    _ZN7wxsItem5CodefEPKwz @5472
    _ZN7wxsItem5GetIdEv @5473
    _ZN7wxsItem5StyleEv @5474
    _ZN7wxsItem7GetInfoEv @5475
    _ZN7wxsItem7GetTypeEv @5476
    _ZN7wxsItem7OnPopupEl @5477
    _ZN7wxsItem7XmlReadEP12TiXmlElementbb @5478
    _ZN7wxsItem8XmlWriteEP12TiXmlElementbb @5479
    _ZN7wxsItem9GetEventsEv @5480
    _ZN7wxsItem9GetIdNameEv @5481
    _ZN7wxsItem9GetParentEv @5482
    _ZN7wxsItem9IsPointerEv @5483
    _ZN7wxsItem9OnXmlReadEP12TiXmlElementbb @5484
    _ZN7wxsItem9PopupMenuEl @5485
    _ZN7wxsItem9SetIdNameERK8wxString @5486
    _ZN7wxsItem9ShowPopupEP6wxMenu @5487
    _ZN7wxsItemC1EP14wxsItemResDataPK11wxsItemInfolPK12wxsEventDescPK11wxsStyleSet @5488
    _ZN7wxsItemC2EP14wxsItemResDataPK11wxsItemInfolPK12wxsEventDescPK11wxsStyleSet @5489
    _ZN7wxsItemD0Ev @5490
    _ZN7wxsItemD1Ev @5491
    _ZN7wxsItemD2Ev @5492
    _ZN7wxsMenu11OnIsPointerEv @5493
    _ZN7wxsMenu13OnCanAddChildEP7wxsItemb @5494
    _ZN7wxsMenu13OnMouseDClickEP8wxWindowii @5495
    _ZN7wxsMenu14OnGetTreeLabelERi @5496
    _ZN7wxsMenu14OnXmlReadChildEP12TiXmlElementbb @5497
    _ZN7wxsMenu16OnCanAddToParentEP9wxsParentb @5498
    _ZN7wxsMenu18OnCanAddToResourceEP14wxsItemResDatab @5499
    _ZN7wxsMenu19OnBuildCreatingCodeEv @5500
    _ZN7wxsMenu20OnEnumToolPropertiesEl @5501
    _ZN7wxsMenuC1EP14wxsItemResData @5502
    _ZN7wxsMenuC2EP14wxsItemResData @5503
    _ZN7wxsMenuD0Ev @5504
    _ZN7wxsMenuD1Ev @5505
    _ZN7wxsTool12OnAddItemQPPEP9wxsAdvQPP @5506
    _ZN7wxsTool12OnAddToolQPPEP9wxsAdvQPP @5507
    _ZN7wxsTool13ConvertToToolEv @5508
    _ZN7wxsTool14OnBuildPreviewEP8wxWindowl @5509
    _ZN7wxsTool16CanAddToResourceEP14wxsItemResDatab @5510
    _ZN7wxsTool18OnCanAddToResourceEP14wxsItemResDatab @5511
    _ZN7wxsTool20OnEnumItemPropertiesEl @5512
    _ZN7wxsToolC1EP14wxsItemResDataPK11wxsItemInfoPK12wxsEventDescPK11wxsStyleSetl @5513
    _ZN7wxsToolC2EP14wxsItemResDataPK11wxsItemInfoPK12wxsEventDescPK11wxsStyleSetl @5514
    _ZN7wxsToolD0Ev @5515
    _ZN7wxsToolD1Ev @5516
    _ZN7wxsToolD2Ev @5517
    _ZN8cbPlugin17CreateStatusFieldEP11cbStatusBar @5518
    _ZN8cbPlugin21GetConfigurationPanelEP8wxWindow @5519
    _ZN8cbPlugin28GetProjectConfigurationPanelEP8wxWindowP9cbProject @5520
    _ZN8cbPlugin8OnAttachEv @5521
    _ZN8cbPlugin9ConfigureEv @5522
    _ZN8cbPlugin9OnReleaseEb @5523
    _ZN8wxBitmapC1ERK7wxImagei @5524
    _ZN8wxBitmapC1ERKS_ @5525
    _ZN8wxBitmapC1Ev @5526
    _ZN8wxBitmapaSERKS_ @5527
    _ZN8wxButtonC1EP8wxWindowiRK8wxStringRK7wxPointRK6wxSizelRK11wxValidatorS4_ @5528
    _ZN8wxButtonC1Ev @5529
    _ZN8wxButtonC2Ev @5530
    _ZN8wxChoice4InitEv @5531
    _ZN8wxChoiceC1EP8wxWindowiRK7wxPointRK6wxSizeiPK8wxStringlRK11wxValidatorRS9_ @5532
    _ZN8wxChoiceC2Ev @5533
    _ZN8wxColourC1ERKS_ @5534
    _ZN8wxColourC1Ehhhh @5535
    _ZN8wxColourC1Em @5536
    _ZN8wxColourC1Ev @5537
    _ZN8wxColourC2ERKS_ @5538
    _ZN8wxColourC2Ev @5539
    _ZN8wxColouraSERKS_ @5540
    _ZN8wxCursoraSERKS_ @5541
    _ZN8wxDCBase10DrawBitmapERK8wxBitmapiib @5542
    _ZN8wxDCBase13DrawCheckMarkERK6wxRect @5543
    _ZN8wxDCBase13DrawRectangleERK6wxRect @5544
    _ZN8wxDCBase13DrawRectangleEiiii @5545
    _ZN8wxDCBase13ResetClippingEv @5546
    _ZN8wxDCBase16ResetBoundingBoxEv @5547
    _ZN8wxDCBase17SetClippingRegionERK6wxRect @5548
    _ZN8wxDCBase17SetClippingRegionERK8wxRegion @5549
    _ZN8wxDCBase17SetTextForegroundERK8wxColour @5550
    _ZN8wxDCBase4BlitEiiiiP4wxDCiiibii @5551
    _ZN8wxDCBase8DrawLineEiiii @5552
    _ZN8wxDCBase8DrawTextERK8wxStringii @5553
    _ZN8wxDCBase9DrawPointEii @5554
    _ZN8wxDCBaseC2Ev @5555
    _ZN8wxDCBaseD2Ev @5556
    _ZN8wxDialogC1EP8wxWindowiRK8wxStringRK7wxPointRK6wxSizelS4_ @5557
    _ZN8wxDialogC2Ev @5558
    _ZN8wxMBConvC2Ev @5559
    _ZN8wxObject7UnShareEv @5560
    _ZN8wxObjectC2ERKS_ @5561
    _ZN8wxObjectC2Ev @5562
    _ZN8wxObjectD2Ev @5563
    _ZN8wxObjectaSERKS_ @5564
    _ZN8wxPGCell6AssignERKS_ @5565
    _ZN8wxPGCell7SetFontERK6wxFont @5566
    _ZN8wxPGCell7SetTextERK8wxString @5567
    _ZN8wxPGCell8SetBgColERK8wxColour @5568
    _ZN8wxPGCell8SetFgColERK8wxColour @5569
    _ZN8wxPGCell9SetBitmapERK8wxBitmap @5570
    _ZN8wxPGCellC1ERK8wxStringRK8wxBitmapRK8wxColourS8_ @5571
    _ZN8wxPGCellC1Ev @5572
    _ZN8wxPGCellC2ERK8wxStringRK8wxBitmapRK8wxColourS8_ @5573
    _ZN8wxPGCellC2Ev @5574
    _ZN8wxPGCellD0Ev @5575
    _ZN8wxPGCellD1Ev @5576
    _ZN8wxPGCellD2Ev @5577
    _ZN8wxPGCellaSERKS_ @5578
    _ZN8wxSliderC1EP8wxWindowiiiiRK7wxPointRK6wxSizelRK11wxValidatorRK8wxString @5579
    _ZN8wxString10RemoveLastEj @5580
    _ZN8wxString4LastEv @5581
    _ZN8wxString5AllocEj @5582
    _ZN8wxString5ClearEv @5583
    _ZN8wxString5EmptyEv @5584
    _ZN8wxString5eraseEjj @5585
    _ZN8wxString6AppendEPKw @5586
    _ZN8wxString6AppendERKS_ @5587
    _ZN8wxString6AppendEwj @5588
    _ZN8wxString6RemoveEj @5589
    _ZN8wxString6RemoveEjj @5590
    _ZN8wxString6appendEPKw @5591
    _ZN8wxString6appendERKS_ @5592
    _ZN8wxString6appendEjw @5593
    _ZN8wxString6insertEjRKS_ @5594
    _ZN8wxString7PrependERKS_ @5595
    _ZN8wxString7SetCharEjw @5596
    _ZN8wxStringC1EPKw @5597
    _ZN8wxStringC1ERK12wxStringBase @5598
    _ZN8wxStringC1ERKS_ @5599
    _ZN8wxStringC1Ev @5600
    _ZN8wxStringC1Ewj @5601
    _ZN8wxStringD1Ev @5602
    _ZN8wxStringaSEPKw @5603
    _ZN8wxStringaSERK12wxStringBase @5604
    _ZN8wxStringaSERKS_ @5605
    _ZN8wxStringaSEw @5606
    _ZN8wxStringixEi @5607
    _ZN8wxStringixEj @5608
    _ZN8wxStringlsEPKw @5609
    _ZN8wxStringlsERKS_ @5610
    _ZN8wxStringlsEw @5611
    _ZN8wxStringpLEPKw @5612
    _ZN8wxStringpLERKS_ @5613
    _ZN8wxStringpLEw @5614
    _ZN8wxWindow13MSWPrintChildEPvPS_ @5615
    _ZN8wxWindow28MSWShouldPropagatePrintChildEv @5616
    _ZN8wxWindowC2EPS_iRK7wxPointRK6wxSizelRK8wxString @5617
    _ZN8wxWindowC2Ev @5618
    _ZN8wxsCoder10CodeChangeC1Ev @5619
    _ZN8wxsCoder10CodeChangeD1Ev @5620
    _ZN8wxsCoder11GetFullCodeERK8wxStringR14wxFontEncodingRb @5621
    _ZN8wxsCoder11PutFullCodeERK8wxStringS2_14wxFontEncodingb @5622
    _ZN8wxsCoder11RebuildCodeER8wxStringPKwiS1_ @5623
    _ZN8wxsCoder15CodeChangeArray3AddEPNS_10CodeChangeEj @5624
    _ZN8wxsCoder15CodeChangeArrayC1Ev @5625
    _ZN8wxsCoder15CodeChangeArrayD1Ev @5626
    _ZN8wxsCoder15FlushTimerEventER12wxTimerEvent @5627
    _ZN8wxsCoder17NormalizeFileNameERK8wxString @5628
    _ZN8wxsCoder18ApplyChangesEditorEP8cbEditorRK8wxStringS4_RS2_bbS5_ @5629
    _ZN8wxsCoder18ApplyChangesStringER8wxStringRKS0_S3_S1_bbRbS1_ @5630
    _ZN8wxsCoder3GetEv @5631
    _ZN8wxsCoder5FlushEi @5632
    _ZN8wxsCoder7AddCodeERK8wxStringS2_S2_S2_bbb @5633
    _ZN8wxsCoder7GetCodeERK8wxStringS2_S2_bb @5634
    _ZN8wxsCoder8FlushAllEv @5635
    _ZN8wxsCoder9CutSpacesE8wxStringi @5636
    _ZN8wxsCoder9FlushFileERK8wxString @5637
    _ZN8wxsCoder9SingletonE @5638 DATA
    _ZN8wxsCoderC1Ev @5639
    _ZN8wxsCoderC2Ev @5640
    _ZN8wxsCoderD0Ev @5641
    _ZN8wxsCoderD1Ev @5642
    _ZN8wxsCoderD2Ev @5643
    _ZN8wxsFrame14OnBuildPreviewEP8wxWindowl @5644
    _ZN8wxsFrame19OnBuildCreatingCodeEv @5645
    _ZN8wxsFrame25OnEnumContainerPropertiesEl @5646
    _ZN8wxsFrameC1EP14wxsItemResData @5647
    _ZN8wxsFrameC2EP14wxsItemResData @5648
    _ZN8wxsFrameD0Ev @5649
    _ZN8wxsFrameD1Ev @5650
    _ZN8wxsGauge14OnBuildPreviewEP8wxWindowl @5651
    _ZN8wxsGauge19OnBuildCreatingCodeEv @5652
    _ZN8wxsGauge22OnEnumWidgetPropertiesEl @5653
    _ZN8wxsGaugeC1EP14wxsItemResData @5654
    _ZN8wxsGaugeC2EP14wxsItemResData @5655
    _ZN8wxsGaugeD0Ev @5656
    _ZN8wxsGaugeD1Ev @5657
    _ZN8wxsImage10GetPreviewEv @5658
    _ZN8wxsImage12StoreXpmDataEv @5659
    _ZN8wxsImage19OnBuildCreatingCodeEv @5660
    _ZN8wxsImage20OnEnumToolPropertiesEl @5661
    _ZN8wxsImage23OnBuildDeclarationsCodeEv @5662
    _ZN8wxsImage7DoBuildEv @5663
    _ZN8wxsImageC1EP14wxsItemResData @5664
    _ZN8wxsImageC2EP14wxsItemResData @5665
    _ZN8wxsImageD0Ev @5666
    _ZN8wxsImageD1Ev @5667
    _ZN8wxsPanel14OnBuildPreviewEP8wxWindowl @5668
    _ZN8wxsPanel19OnBuildCreatingCodeEv @5669
    _ZN8wxsPanel25OnEnumContainerPropertiesEl @5670
    _ZN8wxsPanelC1EP14wxsItemResData @5671
    _ZN8wxsPanelC2EP14wxsItemResData @5672
    _ZN8wxsPanelD0Ev @5673
    _ZN8wxsPanelD1Ev @5674
    _ZN8wxsSizer12OnAddItemQPPEP9wxsAdvQPP @5675
    _ZN8wxsSizer12OnBuildExtraEv @5676
    _ZN8wxsSizer13OnAddChildQPPEP7wxsItemP9wxsAdvQPP @5677
    _ZN8wxsSizer13OnAddSizerQPPEP9wxsAdvQPP @5678
    _ZN8wxsSizer14OnBuildPreviewEP8wxWindowl @5679
    _ZN8wxsSizer14OnXmlReadChildEP12TiXmlElementbb @5680
    _ZN8wxsSizer15OnXmlWriteChildEiP12TiXmlElementbb @5681
    _ZN8wxsSizer19OnBuildCreatingCodeEv @5682
    _ZN8wxsSizer20OnEnumItemPropertiesEl @5683
    _ZN8wxsSizer20OnGetPropertiesFlagsEv @5684
    _ZN8wxsSizer23OnBuildDeclarationsCodeEv @5685
    _ZN8wxsSizer24OnXmlGetExtraObjectClassEv @5686
    _ZN8wxsSizerC1EP14wxsItemResDataPK11wxsItemInfo @5687
    _ZN8wxsSizerC2EP14wxsItemResDataPK11wxsItemInfo @5688
    _ZN8wxsSizerD0Ev @5689
    _ZN8wxsSizerD1Ev @5690
    _ZN8wxsSizerD2Ev @5691
    _ZN8wxsTimer11OnIsPointerEv @5692
    _ZN8wxsTimer19OnBuildCreatingCodeEv @5693
    _ZN8wxsTimer20OnEnumToolPropertiesEl @5694
    _ZN8wxsTimerC1EP14wxsItemResData @5695
    _ZN8wxsTimerC2EP14wxsItemResData @5696
    _ZN8wxsTimerD0Ev @5697
    _ZN8wxsTimerD1Ev @5698
    _ZN9FilesListaSERKS_ @5699
    _ZN9TiXmlBase21SetCondenseWhiteSpaceEb @5700
    _ZN9TiXmlNode10FirstChildEv @5701
    _ZN9TiXmlNode11NextSiblingEv @5702
    _ZN9TiXmlNode17FirstChildElementEPKc @5703
    _ZN9TiXmlNode17FirstChildElementEv @5704
    _ZN9TiXmlNode18NextSiblingElementEPKc @5705
    _ZN9TiXmlNode18NextSiblingElementEv @5706
    _ZN9TiXmlNode8SetValueEPKc @5707
    _ZN9TiXmlTextC1EPKc @5708
    _ZN9TiXmlTextD1Ev @5709
    _ZN9__gnu_cxx13new_allocatorISt13_Rb_tree_nodeISt4pairIK8wxString13wxArrayStringEEE10deallocateEPS7_j @5710
    _ZN9__gnu_cxx13new_allocatorISt13_Rb_tree_nodeISt4pairIK8wxString13wxArrayStringEEE8allocateEjPKv @5711
    _ZN9__gnu_cxx13new_allocatorISt4pairIK8wxString13wxArrayStringEE7destroyEPS5_ @5712
    _ZN9__gnu_cxx13new_allocatorISt4pairIK8wxString13wxArrayStringEE9constructEPS5_RKS5_ @5713
    _ZN9__gnu_cxx13new_allocatorISt4pairIK8wxString13wxArrayStringEEC2Ev @5714
    _ZN9__gnu_cxx13new_allocatorISt4pairIK8wxString13wxArrayStringEED2Ev @5715
    _ZN9cbProject13GetFilesCountEv @5716
    _ZN9cbProjectaSERKS_ @5717
    _ZN9nullptr_tC1Ev @5718
    _ZN9wxControl12MSWOnMeasureEPPv @5719
    _ZN9wxControl7CommandER14wxCommandEvent @5720
    _ZN9wxControl9MSWOnDrawEPPv @5721
    _ZN9wxControlC2EP8wxWindowiRK7wxPointRK6wxSizelRK11wxValidatorRK8wxString @5722
    _ZN9wxControlC2Ev @5723
    _ZN9wxGauge95C1EP8wxWindowiiRK7wxPointRK6wxSizelRK11wxValidatorRK8wxString @5724
    _ZN9wxListBoxC1EP8wxWindowiRK7wxPointRK6wxSizeiPK8wxStringlRK11wxValidatorRS9_ @5725
    _ZN9wxPGBrush10SetColour2ERK8wxColour @5726
    _ZN9wxPGBrushC1ERK8wxColour @5727
    _ZN9wxPGBrushC1Ev @5728
    _ZN9wxPGBrushC2ERK8wxColour @5729
    _ZN9wxPGBrushC2Ev @5730
    _ZN9wxPGBrushD0Ev @5731
    _ZN9wxPGBrushD1Ev @5732
    _ZN9wxVariant7SetNameERK8wxString @5733
    _ZN9wxsAdvQPP12NotifyChangeEv @5734
    _ZN9wxsAdvQPP13sm_eventTableE @5735 DATA
    _ZN9wxsAdvQPP13wxArrayButton3AddEP8wxButtonj @5736
    _ZN9wxsAdvQPP13wxArrayButtonC1Ev @5737
    _ZN9wxsAdvQPP13wxArrayButtonD1Ev @5738
    _ZN9wxsAdvQPP14OnToggleButtonER14wxCommandEvent @5739
    _ZN9wxsAdvQPP17sm_eventHashTableE @5740 DATA
    _ZN9wxsAdvQPP18wxArrayAdvQPPChild3AddEP14wxsAdvQPPChildj @5741
    _ZN9wxsAdvQPP18wxArrayAdvQPPChildC1Ev @5742
    _ZN9wxsAdvQPP18wxArrayAdvQPPChildD1Ev @5743
    _ZN9wxsAdvQPP20sm_eventTableEntriesE @5744 DATA
    _ZN9wxsAdvQPP6UpdateEv @5745
    _ZN9wxsAdvQPP8RegisterEP14wxsAdvQPPChildRK8wxString @5746
    _ZN9wxsAdvQPPC1EP8wxWindowP20wxsPropertyContainer @5747
    _ZN9wxsAdvQPPC2EP8wxWindowP20wxsPropertyContainer @5748
    _ZN9wxsAdvQPPD0Ev @5749
    _ZN9wxsAdvQPPD1Ev @5750
    _ZN9wxsAdvQPPD2Ev @5751
    _ZN9wxsButton14OnBuildPreviewEP8wxWindowl @5752
    _ZN9wxsButton19OnBuildCreatingCodeEv @5753
    _ZN9wxsButton22OnEnumWidgetPropertiesEl @5754
    _ZN9wxsButtonC1EP14wxsItemResData @5755
    _ZN9wxsButtonC2EP14wxsItemResData @5756
    _ZN9wxsButtonD0Ev @5757
    _ZN9wxsButtonD1Ev @5758
    _ZN9wxsChoice14OnBuildPreviewEP8wxWindowl @5759
    _ZN9wxsChoice19OnBuildCreatingCodeEv @5760
    _ZN9wxsChoice22OnEnumWidgetPropertiesEl @5761
    _ZN9wxsChoiceC1EP14wxsItemResData @5762
    _ZN9wxsChoiceC2EP14wxsItemResData @5763
    _ZN9wxsChoiceD0Ev @5764
    _ZN9wxsChoiceD1Ev @5765
    _ZN9wxsDialog14OnBuildPreviewEP8wxWindowl @5766
    _ZN9wxsDialog19OnBuildCreatingCodeEv @5767
    _ZN9wxsDialog25OnEnumContainerPropertiesEl @5768
    _ZN9wxsDialogC1EP14wxsItemResData @5769
    _ZN9wxsDialogC2EP14wxsItemResData @5770
    _ZN9wxsDialogD0Ev @5771
    _ZN9wxsDialogD1Ev @5772
    _ZN9wxsEditor11GetResourceEv @5773
    _ZN9wxsEditorC1EP8wxWindowRK8wxStringP11wxsResource @5774
    _ZN9wxsEditorC2EP8wxWindowRK8wxStringP11wxsResource @5775
    _ZN9wxsEditorD0Ev @5776
    _ZN9wxsEditorD1Ev @5777
    _ZN9wxsEditorD2Ev @5778
    _ZN9wxsEvents10GetHandlerEi @5779
    _ZN9wxsEvents10SetHandlerEiRK8wxString @5780
    _ZN9wxsEvents16XmlLoadFunctionsEP12TiXmlElement @5781
    _ZN9wxsEvents16XmlSaveFunctionsEP12TiXmlElement @5782
    _ZN9wxsEvents19GenerateBindingCodeEP15wxsCoderContextRK8wxStringS4_ @5783
    _ZN9wxsEvents7GetDescEi @5784
    _ZN9wxsEvents8GetCountEv @5785
    _ZN9wxsEventsC1EPK12wxsEventDescP7wxsItem @5786
    _ZN9wxsEventsC2EPK12wxsEventDescP7wxsItem @5787
    _ZN9wxsEventsD1Ev @5788
    _ZN9wxsParent10OnXmlWriteEP12TiXmlElementbb @5789
    _ZN9wxsParent11CanAddChildEP7wxsItemb @5790
    _ZN9wxsParent11UnbindChildEP7wxsItem @5791
    _ZN9wxsParent11UnbindChildEi @5792
    _ZN9wxsParent11wxArrayItem3AddEP7wxsItemj @5793
    _ZN9wxsParent11wxArrayItem6InsertEP7wxsItemjj @5794
    _ZN9wxsParent11wxArrayItem8RemoveAtEjj @5795
    _ZN9wxsParent11wxArrayItemC1Ev @5796
    _ZN9wxsParent11wxArrayItemD1Ev @5797
    _ZN9wxsParent12IsGrandChildEP7wxsItemb @5798
    _ZN9wxsParent12OnBuildExtraEv @5799
    _ZN9wxsParent12wxArrayExtra3AddEP20wxsPropertyContainerj @5800
    _ZN9wxsParent12wxArrayExtra6InsertEP20wxsPropertyContainerjj @5801
    _ZN9wxsParent12wxArrayExtra8RemoveAtEjj @5802
    _ZN9wxsParent12wxArrayExtraC1Ev @5803
    _ZN9wxsParent12wxArrayExtraD1Ev @5804
    _ZN9wxsParent13GetChildCountEv @5805
    _ZN9wxsParent13GetChildExtraEi @5806
    _ZN9wxsParent13GetChildIndexEP7wxsItem @5807
    _ZN9wxsParent13OnAddChildQPPEP7wxsItemP9wxsAdvQPP @5808
    _ZN9wxsParent13OnCanAddChildEP7wxsItemb @5809
    _ZN9wxsParent14OnXmlReadChildEP12TiXmlElementbb @5810
    _ZN9wxsParent14StoreExtraDataEiP12TiXmlElement @5811
    _ZN9wxsParent15ConvertToParentEv @5812
    _ZN9wxsParent15OnXmlWriteChildEiP12TiXmlElementbb @5813
    _ZN9wxsParent16RestoreExtraDataEiP12TiXmlElement @5814
    _ZN9wxsParent21IsChildPreviewVisibleEP7wxsItem @5815
    _ZN9wxsParent21OnEnumChildPropertiesEP7wxsIteml @5816
    _ZN9wxsParent23OnIsChildPreviewVisibleEP7wxsItem @5817
    _ZN9wxsParent24OnXmlGetExtraObjectClassEv @5818
    _ZN9wxsParent25EnsureChildPreviewVisibleEP7wxsItem @5819
    _ZN9wxsParent27OnEnsureChildPreviewVisibleEP7wxsItem @5820
    _ZN9wxsParent8AddChildEP7wxsItemi @5821
    _ZN9wxsParent8GetChildEi @5822
    _ZN9wxsParent9MoveChildEii @5823
    _ZN9wxsParent9OnXmlReadEP12TiXmlElementbb @5824
    _ZN9wxsParentC1EP14wxsItemResDataPK11wxsItemInfolPK12wxsEventDescPK11wxsStyleSet @5825
    _ZN9wxsParentC2EP14wxsItemResDataPK11wxsItemInfolPK12wxsEventDescPK11wxsStyleSet @5826
    _ZN9wxsParentD0Ev @5827
    _ZN9wxsParentD1Ev @5828
    _ZN9wxsParentD2Ev @5829
    _ZN9wxsSlider14OnBuildPreviewEP8wxWindowl @5830
    _ZN9wxsSlider19OnBuildCreatingCodeEv @5831
    _ZN9wxsSlider22OnEnumWidgetPropertiesEl @5832
    _ZN9wxsSliderC1EP14wxsItemResData @5833
    _ZN9wxsSliderC2EP14wxsItemResData @5834
    _ZN9wxsSliderD0Ev @5835
    _ZN9wxsSliderD1Ev @5836
    _ZN9wxsSpacer14OnBuildPreviewEP8wxWindowl @5837
    _ZN9wxsSpacer19OnBuildCreatingCodeEv @5838
    _ZN9wxsSpacer20OnEnumItemPropertiesEl @5839
    _ZN9wxsSpacer23OnBuildDeclarationsCodeEv @5840
    _ZN9wxsSpacerC1EP14wxsItemResData @5841
    _ZN9wxsSpacerC2EP14wxsItemResData @5842
    _ZN9wxsSpacerD0Ev @5843
    _ZN9wxsSpacerD1Ev @5844
    _ZN9wxsWidget12OnAddItemQPPEP9wxsAdvQPP @5845
    _ZN9wxsWidget14OnAddWidgetQPPEP9wxsAdvQPP @5846
    _ZN9wxsWidget20OnEnumItemPropertiesEl @5847
    _ZN9wxsWidgetC1EP14wxsItemResDataPK11wxsItemInfoPK12wxsEventDescPK11wxsStyleSetl @5848
    _ZN9wxsWidgetC2EP14wxsItemResDataPK11wxsItemInfoPK12wxsEventDescPK11wxsStyleSetl @5849
    _ZN9wxsWidgetD0Ev @5850
    _ZN9wxsWidgetD1Ev @5851
    _ZN9wxsWidgetD2Ev @5852
    _ZNK10EditorBase10IsReadOnlyEv @5853
    _ZNK10EditorBase11GetFilenameEv @5854
    _ZNK10EditorBase11GetModifiedEv @5855
    _ZNK10EditorBase11HasBookmarkEi @5856
    _ZNK10EditorBase12CanSelectAllEv @5857
    _ZNK10EditorBase12GetShortNameEv @5858
    _ZNK10EditorBase12HasSelectionEv @5859
    _ZNK10EditorBase13HasBreakpointEi @5860
    _ZNK10EditorBase13VisibleToTreeEv @5861
    _ZNK10EditorBase7CanRedoEv @5862
    _ZNK10EditorBase7CanUndoEv @5863
    _ZNK10EditorBase8CanPasteEv @5864
    _ZNK10wxArrayInt4ItemEj @5865
    _ZNK10wxArrayInt4LastEv @5866
    _ZNK10wxArrayInt5IndexEib @5867
    _ZNK10wxArrayIntixEj @5868
    _ZNK10wxDateTime6GetDayERKNS_8TimeZoneE @5869
    _ZNK10wxDateTime7GetYearERKNS_8TimeZoneE @5870
    _ZNK10wxDateTime7IsValidEv @5871
    _ZNK10wxDateTime8GetMonthERKNS_8TimeZoneE @5872
    _ZNK10wxFileName6GetExtEv @5873
    _ZNK10wxFileName7GetNameEv @5874
    _ZNK10wxFileName7HasNameEv @5875
    _ZNK10wxFileNameneERK8wxString @5876
    _ZNK10wxFontBase2OkEv @5877
    _ZNK10wxFontBase4IsOkEv @5878
    _ZNK10wxFontData13GetChosenFontEv @5879
    _ZNK10wxGDIImage15GetGDIImageDataEv @5880
    _ZNK10wxGDIImage2OkEv @5881
    _ZNK10wxGDIImage4IsOkEv @5882
    _ZNK10wxGDIImage8GetWidthEv @5883
    _ZNK10wxGDIImage9GetHandleEv @5884
    _ZNK10wxGDIImage9GetHeightEv @5885
    _ZNK10wxKeyEvent10GetKeyCodeEv @5886
    _ZNK10wxKeyEvent11ControlDownEv @5887
    _ZNK10wxKeyEvent12GetModifiersEv @5888
    _ZNK10wxKeyEvent7AltDownEv @5889
    _ZNK10wxKeyEvent9ShiftDownEv @5890
    _ZNK10wxListBase10GetKeyTypeEv @5891
    _ZNK10wxListBase7GetLastEv @5892
    _ZNK10wxListBase8GetCountEv @5893
    _ZNK10wxListBase8GetFirstEv @5894
    _ZNK10wxMenuBase16GetMenuItemCountEv @5895
    _ZNK10wxNodeBase10GetDataPtrEv @5896
    _ZNK10wxNodeBase7GetDataEv @5897
    _ZNK10wxNodeBase7GetNextEv @5898
    _ZNK10wxPGCanvas13GetEventTableEv @5899
    _ZNK10wxPGCanvas17GetEventHashTableEv @5900
    _ZNK10wxPGColour15GetColourAsLongEv @5901
    _ZNK10wxPGEditor10DeleteItemEP8wxWindowi @5902
    _ZNK10wxPGEditor10InsertItemEP8wxWindowRK8wxStringi @5903
    _ZNK10wxPGEditor12GetClassInfoEv @5904
    _ZNK10wxPGEditor18SetControlIntValueEP12wxPGPropertyP8wxWindowi @5905
    _ZNK10wxPGEditor21CanContainCustomImageEv @5906
    _ZNK10wxPGEditor21SetControlStringValueEP12wxPGPropertyP8wxWindowRK8wxString @5907
    _ZNK10wxPGEditor25ActualGetValueFromControlER9wxVariantP12wxPGPropertyP8wxWindow @5908
    _ZNK10wxPGEditor7OnFocusEP12wxPGPropertyP8wxWindow @5909
    _ZNK10wxPGEditor9DrawValueER4wxDCRK6wxRectP12wxPGPropertyRK8wxString @5910
    _ZNK10wxTreeCtrl20GetDefaultAttributesEv @5911
    _ZNK10wxsItemRes12GetClassInfoEv @5912
    _ZNK10wxsProject10ResourcesT5IndexEP11wxsResourceb @5913
    _ZNK10wxsProject10ResourcesTixEj @5914
    _ZNK10wxsProject37ResBrowserIdsT_wxImplementation_KeyExclERKNS_36ResBrowserIdsT_wxImplementation_PairE @5915
    _ZNK10wxsProject41ResBrowserIdsT_wxImplementation_HashTable7GetNodeERK8wxString @5916
    _ZNK10wxsProject41ResBrowserIdsT_wxImplementation_HashTable8IteratorneERKS1_ @5917
    _ZNK11TiXmlString5c_strEv @5918
    _ZNK11TiXmlString5startEv @5919
    _ZNK11TiXmlString6lengthEv @5920
    _ZNK11wxArrayBoolixEj @5921
    _ZNK11wxArrayLongixEj @5922
    _ZNK11wxBrushBase7IsHatchEv @5923
    _ZNK11wxClassInfo12CreateObjectEv @5924
    _ZNK11wxClassInfo12GetClassNameEv @5925
    _ZNK11wxClassInfo8IsKindOfEPKS_ @5926
    _ZNK11wxFrameBase10GetMenuBarEv @5927
    _ZNK11wxFrameBase10GetToolBarEv @5928
    _ZNK11wxFrameBase12GetStatusBarEv @5929
    _ZNK11wxGDIObject17GetResourceHandleEv @5930
    _ZNK11wxGDIObject6IsFreeEv @5931
    _ZNK11wxGDIObject6IsNullEv @5932
    _ZNK11wxPGChoices10GetDataPtrEv @5933
    _ZNK11wxPGChoices19GetValuesForStringsERK13wxArrayString @5934
    _ZNK11wxPGChoices20GetIndicesForStringsERK13wxArrayStringPS0_ @5935
    _ZNK11wxPGChoices4CopyEv @5936
    _ZNK11wxPGChoices4IsOkEv @5937
    _ZNK11wxPGChoices4ItemEj @5938
    _ZNK11wxPGChoices5GetIdEv @5939
    _ZNK11wxPGChoices5IndexERK8wxString @5940
    _ZNK11wxPGChoices5IndexEi @5941
    _ZNK11wxPGChoices8GetCountEv @5942
    _ZNK11wxPGChoices8GetLabelEj @5943
    _ZNK11wxPGChoices8GetValueEj @5944
    _ZNK11wxPGChoices8HasValueEj @5945
    _ZNK11wxPGChoices9GetLabelsEv @5946
    _ZNK11wxPGChoices9HasValuesEv @5947
    _ZNK11wxPGChoicesixEj @5948
    _ZNK11wxSizeEvent7GetSizeEv @5949
    _ZNK11wxSmithMime13CanHandleFileERK8wxString @5950
    _ZNK11wxSmithMime17HandlesEverythingEv @5951
    _ZNK11wxTreeEvent7GetItemEv @5952
    _ZNK11wxValidator9GetWindowEv @5953
    _ZNK11wxsResource12GetClassInfoEv @5954
    _ZNK11wxsSettings13GetEventTableEv @5955
    _ZNK11wxsSettings17GetEventHashTableEv @5956
    _ZNK11wxsSettings8GetTitleEv @5957
    _ZNK11wxsStyleSet10GetWxStyleElb @5958
    _ZNK11wxsStyleSet14GetDefaultBitsEb @5959
    _ZNK11wxsStyleSet7GetBitsERK8wxStringb @5960
    _ZNK11wxsStyleSet7GetBitsEb @5961
    _ZNK11wxsStyleSet8GetFlagsEb @5962
    _ZNK11wxsStyleSet8GetNamesEb @5963
    _ZNK11wxsStyleSet9GetStringElb13wxsCodingLang @5964
    _ZNK12wxButtonBase20ShouldInheritColoursEv @5965
    _ZNK12wxCharBuffercvPKcEv @5966
    _ZNK12wxCloseEvent7CanVetoEv @5967
    _ZNK12wxDataObject17NeedsVerbatimDataERK12wxDataFormat @5968
    _ZNK12wxEvtHandler13GetClientDataEv @5969
    _ZNK12wxEvtHandler15GetClientObjectEv @5970
    _ZNK12wxFocusEvent9GetWindowEv @5971
    _ZNK12wxMouseEvent10LeftDClickEv @5972
    _ZNK12wxMouseEvent10LeftIsDownEv @5973
    _ZNK12wxMouseEvent11ControlDownEv @5974
    _ZNK12wxMouseEvent11GetPositionEPiS0_ @5975
    _ZNK12wxMouseEvent11GetPositionEv @5976
    _ZNK12wxMouseEvent11RightIsDownEv @5977
    _ZNK12wxMouseEvent12MiddleIsDownEv @5978
    _ZNK12wxMouseEvent4GetXEv @5979
    _ZNK12wxMouseEvent4GetYEv @5980
    _ZNK12wxMouseEvent7LeavingEv @5981
    _ZNK12wxMouseEvent8DraggingEv @5982
    _ZNK12wxMouseEvent8EnteringEv @5983
    _ZNK12wxMouseEvent8LeftDownEv @5984
    _ZNK12wxMouseEvent9RightDownEv @5985
    _ZNK12wxMouseEvent9ShiftDownEv @5986
    _ZNK12wxObjectList14const_iteratordeEv @5987
    _ZNK12wxObjectList14const_iteratorneERKS0_ @5988
    _ZNK12wxObjectList3endEv @5989
    _ZNK12wxObjectList4FindERK9wxListKey @5990
    _ZNK12wxObjectList5beginEv @5991
    _ZNK12wxObjectList7GetLastEv @5992
    _ZNK12wxObjectList8GetFirstEv @5993
    _ZNK12wxObjectList8iteratordeEv @5994
    _ZNK12wxObjectList8iteratorneERKS0_ @5995
    _ZNK12wxPGComboBox10OnDrawItemER4wxDCRK6wxRectii @5996
    _ZNK12wxPGComboBox13OnMeasureItemEj @5997
    _ZNK12wxPGComboBox18OnMeasureItemWidthEj @5998
    _ZNK12wxPGComboBox7GetGridEv @5999
    _ZNK12wxPGProperty10DoGetValueEv @6000
    _ZNK12wxPGProperty10GetChoicesEv @6001
    _ZNK12wxPGProperty10GetItemAtYEjjPj @6002
    _ZNK12wxPGProperty10IntToValueER9wxVariantii @6003
    _ZNK12wxPGProperty10IsCategoryEv @6004
    _ZNK12wxPGProperty10IsExpandedEv @6005
    _ZNK12wxPGProperty11GetArrIndexEv @6006
    _ZNK12wxPGProperty11GetBaseNameEv @6007
    _ZNK12wxPGProperty11GetValueRefEv @6008
    _ZNK12wxPGProperty12ChildChangedER9wxVariantiS1_ @6009
    _ZNK12wxPGProperty12GetAttributeERK8wxString @6010
    _ZNK12wxPGProperty12GetAttributeERK8wxStringS2_ @6011
    _ZNK12wxPGProperty12GetClassInfoEv @6012
    _ZNK12wxPGProperty12GetClassNameEv @6013
    _ZNK12wxPGProperty12GetImageSizeEv @6014
    _ZNK12wxPGProperty12GetMaxLengthEv @6015
    _ZNK12wxPGProperty12GetValidatorEv @6016
    _ZNK12wxPGProperty12GetValueTypeEv @6017
    _ZNK12wxPGProperty12IsSomeParentEPS_ @6018
    _ZNK12wxPGProperty13GetAttributesEv @6019
    _ZNK12wxPGProperty13GetChildCountEv @6020
    _ZNK12wxPGProperty13GetClientDataEv @6021
    _ZNK12wxPGProperty13GetColumnTextEj @6022
    _ZNK12wxPGProperty13GetHelpStringEv @6023
    _ZNK12wxPGProperty13GetMainParentEv @6024
    _ZNK12wxPGProperty13GetValueImageEv @6025
    _ZNK12wxPGProperty13IsSubPropertyEv @6026
    _ZNK12wxPGProperty13StringToValueER9wxVariantRK8wxStringi @6027
    _ZNK12wxPGProperty13ValidateValueER9wxVariantR18wxPGValidationInfo @6028
    _ZNK12wxPGProperty14DoGetAttributeERK8wxString @6029
    _ZNK12wxPGProperty14DoGetValidatorEv @6030
    _ZNK12wxPGProperty14GetChoiceCountEv @6031
    _ZNK12wxPGProperty14GetCommonValueEv @6032
    _ZNK12wxPGProperty14GetEditorClassEv @6033
    _ZNK12wxPGProperty14GetImageOffsetEi @6034
    _ZNK12wxPGProperty14GetParentStateEv @6035
    _ZNK12wxPGProperty14GetValueStringEi @6036
    _ZNK12wxPGProperty14IsTextEditableEv @6037
    _ZNK12wxPGProperty14OnMeasureImageEi @6038
    _ZNK12wxPGProperty15GetCellRendererEi @6039
    _ZNK12wxPGProperty15GetColumnEditorEi @6040
    _ZNK12wxPGProperty15GetDefaultValueEv @6041
    _ZNK12wxPGProperty15GetEditorDialogEv @6042
    _ZNK12wxPGProperty15IsChildSelectedEb @6043
    _ZNK12wxPGProperty15SetValueInEventE9wxVariant @6044
    _ZNK12wxPGProperty16ActualIntToValueER9wxVariantii @6045
    _ZNK12wxPGProperty16AdaptListToValueER9wxVariantPS0_ @6046
    _ZNK12wxPGProperty16DoGetEditorClassEv @6047
    _ZNK12wxPGProperty16GetCurrentChoiceEv @6048
    _ZNK12wxPGProperty16GetFlagsAsStringEj @6049
    _ZNK12wxPGProperty16GetIndexInParentEv @6050
    _ZNK12wxPGProperty16GetValueAsStringEi @6051
    _ZNK12wxPGProperty17GetChildrenHeightEii @6052
    _ZNK12wxPGProperty17GetPropertyByNameERK8wxString @6053
    _ZNK12wxPGProperty17GetValueAsVariantEv @6054
    _ZNK12wxPGProperty18ActualChildChangedER9wxVariantiS1_ @6055
    _ZNK12wxPGProperty18GetAttributeAsLongERK8wxStringl @6056
    _ZNK12wxPGProperty18GetDisplayedStringEv @6057
    _ZNK12wxPGProperty18GetGridIfDisplayedEv @6058
    _ZNK12wxPGProperty18HasVisibleChildrenEv @6059
    _ZNK12wxPGProperty18IsValueUnspecifiedEv @6060
    _ZNK12wxPGProperty19ActualStringToValueER9wxVariantRK8wxStringi @6061
    _ZNK12wxPGProperty19ActualValidateValueER9wxVariantR18wxPGValidationInfo @6062
    _ZNK12wxPGProperty19GetAttributesAsListEv @6063
    _ZNK12wxPGProperty19GetPropertyByNameWHERK8wxStringj @6064
    _ZNK12wxPGProperty19UsesAutoUnspecifiedEv @6065
    _ZNK12wxPGProperty20CanHaveExtraChildrenEv @6066
    _ZNK12wxPGProperty20GetAttributeAsDoubleERK8wxStringd @6067
    _ZNK12wxPGProperty21AreChildrenComponentsEv @6068
    _ZNK12wxPGProperty21GenerateComposedValueER8wxStringi @6069
    _ZNK12wxPGProperty21GetLastVisibleSubItemEv @6070
    _ZNK12wxPGProperty23AreAllChildrenSpecifiedEP9wxVariant @6071
    _ZNK12wxPGProperty28GetDisplayedCommonValueCountEv @6072
    _ZNK12wxPGProperty4GetYEv @6073
    _ZNK12wxPGProperty4ItemEj @6074
    _ZNK12wxPGProperty4LastEv @6075
    _ZNK12wxPGProperty5GetY2Ei @6076
    _ZNK12wxPGProperty5IndexEPKS_ @6077
    _ZNK12wxPGProperty6IsRootEv @6078
    _ZNK12wxPGProperty7GetCellEj @6079
    _ZNK12wxPGProperty7GetGridEv @6080
    _ZNK12wxPGProperty7GetNameEv @6081
    _ZNK12wxPGProperty7GetTypeEv @6082
    _ZNK12wxPGProperty7HasFlagEj @6083
    _ZNK12wxPGProperty8GetCountEv @6084
    _ZNK12wxPGProperty8GetDepthEv @6085
    _ZNK12wxPGProperty8GetFlagsEv @6086
    _ZNK12wxPGProperty8GetLabelEv @6087
    _ZNK12wxPGProperty8GetValueEv @6088
    _ZNK12wxPGProperty9GetParentEv @6089
    _ZNK12wxPGProperty9IsEnabledEv @6090
    _ZNK12wxPGProperty9IsFlagSetEj @6091
    _ZNK12wxPGProperty9IsVisibleEv @6092
    _ZNK12wxRegionBase6GetBoxEv @6093
    _ZNK12wxSliderBase11GetSelStartEv @6094
    _ZNK12wxSliderBase11GetTickFreqEv @6095
    _ZNK12wxSliderBase16ValueInvertOrNotEi @6096
    _ZNK12wxSliderBase9GetSelEndEv @6097
    _ZNK12wxSpinButton12AcceptsFocusEv @6098
    _ZNK12wxStringBase13GetStringDataEv @6099
    _ZNK12wxStringBase16reverse_iteratordeEv @6100
    _ZNK12wxStringBase2atEj @6101
    _ZNK12wxStringBase3endEv @6102
    _ZNK12wxStringBase4sizeEv @6103
    _ZNK12wxStringBase5beginEv @6104
    _ZNK12wxStringBase5c_strEv @6105
    _ZNK12wxStringBase5emptyEv @6106
    _ZNK12wxStringBase6lengthEv @6107
    _ZNK12wxStringData7IsEmptyEv @6108
    _ZNK12wxStringHashclERK8wxString @6109
    _ZNK12wxTreeItemId4IsOkEv @6110
    _ZNK12wxWidgetsGUI12GetClassInfoEv @6111
    _ZNK12wxWidgetsRes12GetClassInfoEv @6112
    _ZNK12wxWindowBase10GetMaxSizeEv @6113
    _ZNK12wxWindowBase10GetMinSizeEv @6114
    _ZNK12wxWindowBase10GetToolTipEv @6115
    _ZNK12wxWindowBase10HasCaptureEv @6116
    _ZNK12wxWindowBase10IsRetainedEv @6117
    _ZNK12wxWindowBase11GetBestSizeEv @6118
    _ZNK12wxWindowBase11GetPositionEPiS0_ @6119
    _ZNK12wxWindowBase11GetPositionEv @6120
    _ZNK12wxWindowBase12AcceptsFocusEv @6121
    _ZNK12wxWindowBase13CacheBestSizeERK6wxSize @6122
    _ZNK12wxWindowBase13GetClientSizeEPiS0_ @6123
    _ZNK12wxWindowBase13GetClientSizeEv @6124
    _ZNK12wxWindowBase13GetDropTargetEv @6125
    _ZNK12wxWindowBase13GetExtraStyleEv @6126
    _ZNK12wxWindowBase14ClientToScreenEPiS0_ @6127
    _ZNK12wxWindowBase14GetVirtualSizeEPiS0_ @6128
    _ZNK12wxWindowBase14GetVirtualSizeEv @6129
    _ZNK12wxWindowBase14GetWindowStyleEv @6130
    _ZNK12wxWindowBase14ScreenToClientEPiS0_ @6131
    _ZNK12wxWindowBase14ScreenToClientERK7wxPoint @6132
    _ZNK12wxWindowBase15GetEventHandlerEv @6133
    _ZNK12wxWindowBase15GetThemeEnabledEv @6134
    _ZNK12wxWindowBase16GetWindowVariantEv @6135
    _ZNK12wxWindowBase16HasMultiplePagesEv @6136
    _ZNK12wxWindowBase18GetBackgroundStyleEv @6137
    _ZNK12wxWindowBase18GetBestVirtualSizeEv @6138
    _ZNK12wxWindowBase18GetWindowStyleFlagEv @6139
    _ZNK12wxWindowBase20GetDefaultAttributesEv @6140
    _ZNK12wxWindowBase20ShouldInheritColoursEv @6141
    _ZNK12wxWindowBase24AcceptsFocusFromKeyboardEv @6142
    _ZNK12wxWindowBase27GetWindowSizeForVirtualSizeERK6wxSize @6143
    _ZNK12wxWindowBase5GetIdEv @6144
    _ZNK12wxWindowBase7GetNameEv @6145
    _ZNK12wxWindowBase7GetRectEv @6146
    _ZNK12wxWindowBase7GetSizeEPiS0_ @6147
    _ZNK12wxWindowBase7GetSizeEv @6148
    _ZNK12wxWindowBase7HasFlagEi @6149
    _ZNK12wxWindowBase7IsShownEv @6150
    _ZNK12wxWindowBase8GetSizerEv @6151
    _ZNK12wxWindowBase9GetCursorEv @6152
    _ZNK12wxWindowBase9GetParentEv @6153
    _ZNK12wxWindowBase9IsEnabledEv @6154
    _ZNK12wxWindowList4FindERK9wxListKey @6155
    _ZNK12wxWindowList4ItemEj @6156
    _ZNK12wxWindowList7GetLastEv @6157
    _ZNK12wxWindowList8GetFirstEv @6158
    _ZNK12wxWindowList8iteratordeEv @6159
    _ZNK12wxWindowList8iteratorneERKS0_ @6160
    _ZNK12wxWindowListixEj @6161
    _ZNK12wxsCorrector34wxStringSet_wxImplementation_KeyExclERK8wxString @6162
    _ZNK12wxsCorrector38wxStringSet_wxImplementation_HashTable10GetNodePtrERK8wxString @6163
    _ZNK12wxsCorrector38wxStringSet_wxImplementation_HashTable4sizeEv @6164
    _ZNK12wxsCorrector38wxStringSet_wxImplementation_HashTable5emptyEv @6165
    _ZNK12wxsCorrector38wxStringSet_wxImplementation_HashTable7GetNodeERK8wxString @6166
    _ZNK12wxsCorrector38wxStringSet_wxImplementation_HashTable8IteratoreqERKS1_ @6167
    _ZNK12wxsCorrector38wxStringSet_wxImplementation_HashTable8IteratorneERKS1_ @6168
    _ZNK12wxsGridPanel12GetClassInfoEv @6169
    _ZNK12wxsGridPanel13GetEventTableEv @6170
    _ZNK12wxsGridPanel17GetEventHashTableEv @6171
    _ZNK12wxsStatusBar8IdsArrayixEj @6172
    _ZNK12wxsToolSpace13GetEventTableEv @6173
    _ZNK12wxsToolSpace17GetEventHashTableEv @6174
    _ZNK13TiXmlDocument5ErrorEv @6175
    _ZNK13TiXmlDocument8ErrorColEv @6176
    _ZNK13TiXmlDocument8ErrorRowEv @6177
    _ZNK13TiXmlDocument9ErrorDescEv @6178
    _ZNK13wxArrayString4ItemEj @6179
    _ZNK13wxArrayString4sizeEv @6180
    _ZNK13wxArrayString5CountEv @6181
    _ZNK13wxArrayString5emptyEv @6182
    _ZNK13wxArrayString7IsEmptyEv @6183
    _ZNK13wxArrayString8GetCountEv @6184
    _ZNK13wxArrayStringixEj @6185
    _ZNK13wxControlBase20ShouldInheritColoursEv @6186
    _ZNK13wxDirProperty12GetClassInfoEv @6187
    _ZNK13wxDirProperty14DoGetValidatorEv @6188
    _ZNK13wxIntProperty10IntToValueER9wxVariantii @6189
    _ZNK13wxIntProperty12GetClassInfoEv @6190
    _ZNK13wxIntProperty13StringToValueER9wxVariantRK8wxStringi @6191
    _ZNK13wxIntProperty13ValidateValueER9wxVariantR18wxPGValidationInfo @6192
    _ZNK13wxIntProperty14DoGetValidatorEv @6193
    _ZNK13wxIntProperty16DoGetEditorClassEv @6194
    _ZNK13wxIntProperty16GetValueAsStringEi @6195
    _ZNK13wxIntegerHashclEi @6196
    _ZNK13wxIntegerHashclEm @6197
    _ZNK13wxMutexLocker4IsOkEv @6198
    _ZNK13wxPGVIterator11GetPropertyEv @6199
    _ZNK13wxPGVIterator5AtEndEv @6200
    _ZNK13wxPointerHashclEPKv @6201
    _ZNK13wxStringEqualclERK8wxStringS2_ @6202
    _ZNK13wxVariantData5WriteER8wxString @6203
    _ZNK13wxsGUIFactory35GUIItemHashT_wxImplementation_KeyExclERKNS_34GUIItemHashT_wxImplementation_PairE @6204
    _ZNK13wxsGUIFactory39GUIItemHashT_wxImplementation_HashTable4sizeEv @6205
    _ZNK13wxsGUIFactory39GUIItemHashT_wxImplementation_HashTable5emptyEv @6206
    _ZNK13wxsGUIFactory39GUIItemHashT_wxImplementation_HashTable7GetNodeERK8wxString @6207
    _ZNK13wxsGUIFactory39GUIItemHashT_wxImplementation_HashTable8IteratoreqERKS1_ @6208
    _ZNK13wxsGUIFactory39GUIItemHashT_wxImplementation_HashTable8IteratorneERKS1_ @6209
    _ZNK13wxsGUIFactory39GUIItemHashT_wxImplementation_HashTable8iteratorptEv @6210
    _ZNK13wxsItemEditor10IsReadOnlyEv @6211
    _ZNK13wxsItemEditor11GetModifiedEv @6212
    _ZNK13wxsItemEditor12HasSelectionEv @6213
    _ZNK13wxsItemEditor13GetEventTableEv @6214
    _ZNK13wxsItemEditor17GetEventHashTableEv @6215
    _ZNK13wxsItemEditor32WindowSet_wxImplementation_KeyExclERKPS_ @6216
    _ZNK13wxsItemEditor36WindowSet_wxImplementation_HashTable10GetNodePtrERKPKS_ @6217
    _ZNK13wxsItemEditor36WindowSet_wxImplementation_HashTable8IteratorneERKS1_ @6218
    _ZNK13wxsItemEditor36WindowSet_wxImplementation_HashTable8iteratordeEv @6219
    _ZNK13wxsItemEditor7CanRedoEv @6220
    _ZNK13wxsItemEditor7CanUndoEv @6221
    _ZNK13wxsItemEditor8CanPasteEv @6222
    _ZNK14TiXmlAttribute4NameEv @6223
    _ZNK14wxArrayPtrVoid4ItemEj @6224
    _ZNK14wxArrayPtrVoid4LastEv @6225
    _ZNK14wxArrayPtrVoid5IndexEPvb @6226
    _ZNK14wxArrayPtrVoidixEj @6227
    _ZNK14wxBaseArrayInt4ItemEj @6228
    _ZNK14wxBaseArrayInt4sizeEv @6229
    _ZNK14wxBaseArrayInt5CountEv @6230
    _ZNK14wxBaseArrayInt7IsEmptyEv @6231
    _ZNK14wxBaseArrayInt8GetCountEv @6232
    _ZNK14wxBaseArrayIntixEj @6233
    _ZNK14wxBoolProperty10IntToValueER9wxVariantii @6234
    _ZNK14wxBoolProperty12GetClassInfoEv @6235
    _ZNK14wxBoolProperty13StringToValueER9wxVariantRK8wxStringi @6236
    _ZNK14wxBoolProperty16DoGetEditorClassEv @6237
    _ZNK14wxBoolProperty16GetValueAsStringEi @6238
    _ZNK14wxCheckBoxBase16DoGet3StateValueEv @6239
    _ZNK14wxCheckBoxBase9IsCheckedEv @6240
    _ZNK14wxCommandEvent9IsCheckedEv @6241
    _ZNK14wxDateProperty12GetClassInfoEv @6242
    _ZNK14wxDateProperty12GetDateValueEv @6243
    _ZNK14wxDateProperty13StringToValueER9wxVariantRK8wxStringi @6244
    _ZNK14wxDateProperty16DoGetEditorClassEv @6245
    _ZNK14wxDateProperty16GetValueAsStringEi @6246
    _ZNK14wxDateProperty18GetDatePickerStyleEv @6247
    _ZNK14wxDateProperty9GetFormatEv @6248
    _ZNK14wxDialogHelper16GetContentWindowEv @6249
    _ZNK14wxEnumProperty10GetChoicesEv @6250
    _ZNK14wxEnumProperty12GetClassInfoEv @6251
    _ZNK14wxEnumProperty12GetItemCountEv @6252
    _ZNK14wxEnumProperty16DoGetEditorClassEv @6253
    _ZNK14wxEnumProperty16GetIndexForValueEi @6254
    _ZNK14wxEnumProperty8GetEntryEjPi @6255
    _ZNK14wxFileProperty12GetClassInfoEv @6256
    _ZNK14wxFileProperty13StringToValueER9wxVariantRK8wxStringi @6257
    _ZNK14wxFileProperty14DoGetValidatorEv @6258
    _ZNK14wxFileProperty15GetEditorDialogEv @6259
    _ZNK14wxFileProperty16DoGetEditorClassEv @6260
    _ZNK14wxFileProperty16GetValueAsStringEi @6261
    _ZNK14wxFontProperty12ChildChangedER9wxVariantiS1_ @6262
    _ZNK14wxFontProperty12GetClassInfoEv @6263
    _ZNK14wxFontProperty16DoGetEditorClassEv @6264
    _ZNK14wxFontProperty16GetValueAsStringEi @6265
    _ZNK14wxImageHandler12GetExtensionEv @6266
    _ZNK14wxIntegerEqualclEii @6267
    _ZNK14wxIntegerEqualclEmm @6268
    _ZNK14wxMenuItemBase11IsSeparatorEv @6269
    _ZNK14wxMenuItemList4FindERK9wxListKey @6270
    _ZNK14wxMenuItemList4ItemEj @6271
    _ZNK14wxMenuItemListixEj @6272
    _ZNK14wxPGHashMapI2I4findERKi @6273
    _ZNK14wxPGHashMapP2P4findERKPKv @6274
    _ZNK14wxPGHashMapS2P4findERK8wxString @6275
    _ZNK14wxPGPropArgCls6GetPtrEP23wxPropertyGridInterface @6276
    _ZNK14wxPGPropArgCls6GetPtrEPK23wxPropertyGridInterface @6277
    _ZNK14wxPGPropArgCls6GetPtrEv @6278
    _ZNK14wxPGPropArgCls7GetNameEv @6279
    _ZNK14wxPGPropArgCls7GetPtr0Ev @6280
    _ZNK14wxPGPropArgCls7HasNameEv @6281
    _ZNK14wxPGSpinButton8GetSpinsEv @6282
    _ZNK14wxPlatformInfo20GetOperatingSystemIdEv @6283
    _ZNK14wxPointerEqualclEPKvS1_ @6284
    _ZNK14wxPropertyGrid10GetItemAtYEi @6285
    _ZNK14wxPropertyGrid11CreateStateEv @6286
    _ZNK14wxPropertyGrid11DoDrawItemsER4wxDCPK12wxPGPropertyS4_PK6wxRectb @6287
    _ZNK14wxPropertyGrid11GetLastItemEi @6288
    _ZNK14wxPropertyGrid11GetSpacingYEv @6289
    _ZNK14wxPropertyGrid12DoGetItemAtYEi @6290
    _ZNK14wxPropertyGrid12GetClassInfoEv @6291
    _ZNK14wxPropertyGrid12GetImageRectEP12wxPGPropertyi @6292
    _ZNK14wxPropertyGrid12GetImageSizeEP12wxPGPropertyi @6293
    _ZNK14wxPropertyGrid12GetRowHeightEv @6294
    _ZNK14wxPropertyGrid12HasSelectionEv @6295
    _ZNK14wxPropertyGrid13DoGetBestSizeEv @6296
    _ZNK14wxPropertyGrid13GetEventTableEv @6297
    _ZNK14wxPropertyGrid13GetFontHeightEv @6298
    _ZNK14wxPropertyGrid13GetLineColourEv @6299
    _ZNK14wxPropertyGrid13IsAnyModifiedEv @6300
    _ZNK14wxPropertyGrid14GetCaptionFontEv @6301
    _ZNK14wxPropertyGrid14GetColumnCountEv @6302
    _ZNK14wxPropertyGrid14GetCommonValueEj @6303
    _ZNK14wxPropertyGrid14GetLabelEditorEv @6304
    _ZNK14wxPropertyGrid14GetNextVisibleERK14wxPGPropArgCls @6305
    _ZNK14wxPropertyGrid15GetFirstVisibleEv @6306
    _ZNK14wxPropertyGrid15GetMarginColourEv @6307
    _ZNK14wxPropertyGrid15GetNextCategoryERK14wxPGPropArgCls @6308
    _ZNK14wxPropertyGrid15GetPropertyRectEPK12wxPGPropertyS2_ @6309
    _ZNK14wxPropertyGrid15GetSortFunctionEv @6310
    _ZNK14wxPropertyGrid15HasInternalFlagEl @6311
    _ZNK14wxPropertyGrid15HasVirtualWidthEv @6312
    _ZNK14wxPropertyGrid15IsEditorFocusedEv @6313
    _ZNK14wxPropertyGrid16GetChildrenCountERK14wxPGPropArgCls @6314
    _ZNK14wxPropertyGrid16GetEditorControlEv @6315
    _ZNK14wxPropertyGrid16GetFirstCategoryEv @6316
    _ZNK14wxPropertyGrid16GetInternalFlagsEv @6317
    _ZNK14wxPropertyGrid16GetPrimaryEditorEv @6318
    _ZNK14wxPropertyGrid16KeyEventToActionER10wxKeyEvent @6319
    _ZNK14wxPropertyGrid17GetCellTextColourEv @6320
    _ZNK14wxPropertyGrid17GetEditorTextCtrlEv @6321
    _ZNK14wxPropertyGrid17GetEventHashTableEv @6322
    _ZNK14wxPropertyGrid17GetPropertyColourERK14wxPGPropArgCls @6323
    _ZNK14wxPropertyGrid17KeyEventToActionsER10wxKeyEventPi @6324
    _ZNK14wxPropertyGrid18DrawExpanderButtonER4wxDCRK6wxRectP12wxPGProperty @6325
    _ZNK14wxPropertyGrid18GetPropertyByLabelERK8wxString @6326
    _ZNK14wxPropertyGrid18GetVerticalSpacingEv @6327
    _ZNK14wxPropertyGrid19GetCommonValueCountEv @6328
    _ZNK14wxPropertyGrid19GetCommonValueLabelEj @6329
    _ZNK14wxPropertyGrid19GetEditorWidgetRectEP12wxPGPropertyi @6330
    _ZNK14wxPropertyGrid19GetEmptySpaceColourEv @6331
    _ZNK14wxPropertyGrid19GetSelectedPropertyEv @6332
    _ZNK14wxPropertyGrid19GetSplitterPositionEv @6333
    _ZNK14wxPropertyGrid21GetPropertyTextColourERK14wxPGPropArgCls @6334
    _ZNK14wxPropertyGrid22GetNearestPaintVisibleEP12wxPGProperty @6335
    _ZNK14wxPropertyGrid22IsEditorsValueModifiedEv @6336
    _ZNK14wxPropertyGrid22WasValueChangedInEventEv @6337
    _ZNK14wxPropertyGrid23GetCellBackgroundColourEv @6338
    _ZNK14wxPropertyGrid23GetUnspecifiedValueTextEi @6339
    _ZNK14wxPropertyGrid25GetCellDisabledTextColourEv @6340
    _ZNK14wxPropertyGrid25GetEditorControlSecondaryEv @6341
    _ZNK14wxPropertyGrid25GetUnspecifiedCommonValueEv @6342
    _ZNK14wxPropertyGrid26GetCaptionBackgroundColourEv @6343
    _ZNK14wxPropertyGrid26GetCaptionForegroundColourEv @6344
    _ZNK14wxPropertyGrid27GetPropertyBackgroundColourERK14wxPGPropArgCls @6345
    _ZNK14wxPropertyGrid28GetSelectionBackgroundColourEv @6346
    _ZNK14wxPropertyGrid28GetSelectionForegroundColourEv @6347
    _ZNK14wxPropertyGrid29GetUnspecifiedValueAppearanceEv @6348
    _ZNK14wxPropertyGrid7GetRootEv @6349
    _ZNK14wxPropertyGrid7HitTestERK7wxPoint @6350
    _ZNK14wxPropertyGrid8GetPanelEv @6351
    _ZNK14wxPropertyGrid8IsFrozenEv @6352
    _ZNK14wxRichTextAttr8GetFlagsEv @6353
    _ZNK14wxScrollHelper20CalcScrolledPositionEiiPiS0_ @6354
    _ZNK14wxScrollHelper22CalcUnscrolledPositionEiiPiS0_ @6355
    _ZNK14wxTreeCtrlBase20ShouldInheritColoursEv @6356
    _ZNK14wxUIntProperty10IntToValueER9wxVariantii @6357
    _ZNK14wxUIntProperty12GetClassInfoEv @6358
    _ZNK14wxUIntProperty13StringToValueER9wxVariantRK8wxStringi @6359
    _ZNK14wxUIntProperty13ValidateValueER9wxVariantR18wxPGValidationInfo @6360
    _ZNK14wxUIntProperty14DoGetValidatorEv @6361
    _ZNK14wxUIntProperty16DoGetEditorClassEv @6362
    _ZNK14wxUIntProperty16GetValueAsStringEi @6363
    _ZNK14wxsItemFactory31ItemMapT_wxImplementation_KeyExclERKNS_30ItemMapT_wxImplementation_PairE @6364
    _ZNK14wxsItemFactory35ItemMapT_wxImplementation_HashTable10GetNodePtrERK8wxString @6365
    _ZNK14wxsItemFactory35ItemMapT_wxImplementation_HashTable7GetNodeERK8wxString @6366
    _ZNK14wxsItemFactory35ItemMapT_wxImplementation_HashTable8IteratoreqERKS1_ @6367
    _ZNK14wxsItemFactory35ItemMapT_wxImplementation_HashTable8iteratorptEv @6368
    _ZNK14wxsItemResData10ToolArrayTixEj @6369
    _ZNK14wxsItemResData34IdToXmlMapT_wxImplementation_KeyExclERKNS_33IdToXmlMapT_wxImplementation_PairE @6370
    _ZNK14wxsItemResData35ItemToIdMapT_wxImplementation_KeyExclERKNS_34ItemToIdMapT_wxImplementation_PairE @6371
    _ZNK14wxsItemResData38IdToXmlMapT_wxImplementation_HashTable7GetNodeERK8wxString @6372
    _ZNK14wxsItemResData38IdToXmlMapT_wxImplementation_HashTable8IteratorneERKS1_ @6373
    _ZNK14wxsItemResData39ItemToIdMapT_wxImplementation_HashTable7GetNodeERKPK7wxsItem @6374
    _ZNK14wxsItemResData39ItemToIdMapT_wxImplementation_HashTable8IteratoreqERKS1_ @6375
    _ZNK14wxsItemResData39ItemToIdMapT_wxImplementation_HashTable8IteratorneERKS1_ @6376
    _ZNK14wxsItemResData39ItemToIdMapT_wxImplementation_HashTable8iteratorptEv @6377
    _ZNK15CodeBlocksEvent10GetProjectEv @6378
    _ZNK15wxBaseArrayLong4ItemEj @6379
    _ZNK15wxBaseArrayLong5CountEv @6380
    _ZNK15wxBaseArrayLongixEj @6381
    _ZNK15wxComboCtrlBase11GetTextCtrlEv @6382
    _ZNK15wxComboCtrlBase11GetTextRectEv @6383
    _ZNK15wxComboCtrlBase12IsPopupShownEv @6384
    _ZNK15wxDirDialogBase10GetMessageEv @6385
    _ZNK15wxDirDialogBase7GetPathEv @6386
    _ZNK15wxFlagsProperty12ChildChangedER9wxVariantiS1_ @6387
    _ZNK15wxFlagsProperty12GetClassInfoEv @6388
    _ZNK15wxFlagsProperty12GetItemCountEv @6389
    _ZNK15wxFlagsProperty13StringToValueER9wxVariantRK8wxStringi @6390
    _ZNK15wxFlagsProperty16DoGetEditorClassEv @6391
    _ZNK15wxFlagsProperty16GetValueAsStringEi @6392
    _ZNK15wxFlagsProperty7IdToBitERK8wxString @6393
    _ZNK15wxFlagsProperty8GetLabelEj @6394
    _ZNK15wxFloatProperty12GetClassInfoEv @6395
    _ZNK15wxFloatProperty13StringToValueER9wxVariantRK8wxStringi @6396
    _ZNK15wxFloatProperty13ValidateValueER9wxVariantR18wxPGValidationInfo @6397
    _ZNK15wxFloatProperty14DoGetValidatorEv @6398
    _ZNK15wxFloatProperty16DoGetEditorClassEv @6399
    _ZNK15wxFloatProperty16GetValueAsStringEi @6400
    _ZNK15wxPGChoiceEntry8GetValueEv @6401
    _ZNK15wxPGChoicesData4ItemEj @6402
    _ZNK15wxPGChoicesData8GetCountEv @6403
    _ZNK15wxPGCommonValue11GetRendererEv @6404
    _ZNK15wxPGCommonValue15GetEditableTextEv @6405
    _ZNK15wxPGCommonValue8GetLabelEv @6406
    _ZNK15wxPGMultiButton11GetButtonIdEj @6407
    _ZNK15wxPGMultiButton14GetPrimarySizeEv @6408
    _ZNK15wxPGMultiButton5GenIdEi @6409
    _ZNK15wxPGMultiButton8GetCountEv @6410
    _ZNK15wxPGMultiButton9GetButtonEj @6411
    _ZNK15wxPGVariantData12GetClassInfoEv @6412
    _ZNK15wxSplitterEvent15GetSashPositionEv @6413
    _ZNK15wxStaticBoxBase12AcceptsFocusEv @6414
    _ZNK15wxStaticBoxBase18GetBordersForSizerEPiS0_ @6415
    _ZNK15wxTextValidator5CloneEv @6416
    _ZNK15wxUpdateUIEvent10GetCheckedEv @6417
    _ZNK15wxUpdateUIEvent13GetSetCheckedEv @6418
    _ZNK15wxsCoderContext31ExtraMap_wxImplementation_KeyExclERKNS_30ExtraMap_wxImplementation_PairE @6419
    _ZNK15wxsCoderContext34wxStringSet_wxImplementation_KeyExclERK8wxString @6420
    _ZNK15wxsCoderContext38wxStringSet_wxImplementation_HashTable10GetNodePtrERK8wxString @6421
    _ZNK15wxsCoderContext38wxStringSet_wxImplementation_HashTable7GetNodeERK8wxString @6422
    _ZNK15wxsCoderContext38wxStringSet_wxImplementation_HashTable8IteratoreqERKS1_ @6423
    _ZNK15wxsCoderContext38wxStringSet_wxImplementation_HashTable8IteratorneERKS1_ @6424
    _ZNK15wxsCoderContext38wxStringSet_wxImplementation_HashTable8iteratordeEv @6425
    _ZNK15wxsEventsEditor11wxArrayPGIdixEj @6426
    _ZNK15wxsImageListDlg13GetEventTableEv @6427
    _ZNK15wxsImageListDlg17GetEventHashTableEv @6428
    _ZNK15wxsNewWindowDlg13GetEventTableEv @6429
    _ZNK15wxsNewWindowDlg17GetEventHashTableEv @6430
    _ZNK15wxsResourceTree13GetEventTableEv @6431
    _ZNK15wxsResourceTree17GetEventHashTableEv @6432
    _ZNK16wxColourProperty12GetClassInfoEv @6433
    _ZNK16wxColourProperty14DoTranslateValER21wxColourPropertyValue @6434
    _ZNK16wxColourProperty16DoGetEditorClassEv @6435
    _ZNK16wxColourProperty16GetValueAsStringEi @6436
    _ZNK16wxColourProperty9GetColourEi @6437
    _ZNK16wxCursorProperty12GetClassInfoEv @6438
    _ZNK16wxCursorProperty14OnMeasureImageEi @6439
    _ZNK16wxCustomProperty10IntToValueER9wxVariantii @6440
    _ZNK16wxCustomProperty12ChildChangedER9wxVariantiS1_ @6441
    _ZNK16wxCustomProperty12GetClassInfoEv @6442
    _ZNK16wxCustomProperty13StringToValueER9wxVariantRK8wxStringi @6443
    _ZNK16wxCustomProperty14OnMeasureImageEi @6444
    _ZNK16wxCustomProperty16DoGetEditorClassEv @6445
    _ZNK16wxCustomProperty16GetValueAsStringEi @6446
    _ZNK16wxFileDialogBase14GetFilterIndexEv @6447
    _ZNK16wxFileDialogBase7GetPathEv @6448
    _ZNK16wxLongLongNative5GetLoEv @6449
    _ZNK16wxLongLongNative6ToLongEv @6450
    _ZNK16wxLongLongNative8GetValueEv @6451
    _ZNK16wxLongLongNative8ToDoubleEv @6452
    _ZNK16wxLongLongNativeeqEl @6453
    _ZNK16wxLongLongNativegeEl @6454
    _ZNK16wxLongLongNativeleEl @6455
    _ZNK16wxLongLongNativeltERKS_ @6456
    _ZNK16wxLongLongNativeltEl @6457
    _ZNK16wxLongLongNativemiERKS_ @6458
    _ZNK16wxLongLongNativeneERKS_ @6459
    _ZNK16wxLongLongNativeplEx @6460
    _ZNK16wxObjectListNode7GetNextEv @6461
    _ZNK16wxPGCellRenderer11PreDrawCellER4wxDCRK6wxRectRK8wxPGCelli @6462
    _ZNK16wxPGCellRenderer12GetImageSizeEPK12wxPGPropertyii @6463
    _ZNK16wxPGCellRenderer12PostDrawCellER4wxDCPK14wxPropertyGridRK8wxPGCelli @6464
    _ZNK16wxPGCellRenderer15DrawEditorValueER4wxDCRK6wxRectiRK8wxStringP12wxPGPropertyPK10wxPGEditor @6465
    _ZNK16wxPGCellRenderer24DrawCaptionSelectionRectER4wxDCiiii @6466
    _ZNK16wxPGCellRenderer8DrawTextER4wxDCRK6wxRectiRK8wxString @6467
    _ZNK16wxPGChoiceEditor10DeleteItemEP8wxWindowi @6468
    _ZNK16wxPGChoiceEditor10InsertItemEP8wxWindowRK8wxStringi @6469
    _ZNK16wxPGChoiceEditor12GetClassInfoEv @6470
    _ZNK16wxPGChoiceEditor13UpdateControlEP12wxPGPropertyP8wxWindow @6471
    _ZNK16wxPGChoiceEditor14CreateControlsEP14wxPropertyGridP12wxPGPropertyRK7wxPointRK6wxSize @6472
    _ZNK16wxPGChoiceEditor18CreateControlsBaseEP14wxPropertyGridP12wxPGPropertyRK7wxPointRK6wxSizel @6473
    _ZNK16wxPGChoiceEditor18SetControlIntValueEP12wxPGPropertyP8wxWindowi @6474
    _ZNK16wxPGChoiceEditor19GetValueFromControlER9wxVariantP12wxPGPropertyP8wxWindow @6475
    _ZNK16wxPGChoiceEditor21CanContainCustomImageEv @6476
    _ZNK16wxPGChoiceEditor21SetControlStringValueEP12wxPGPropertyP8wxWindowRK8wxString @6477
    _ZNK16wxPGChoiceEditor21SetValueToUnspecifiedEP12wxPGPropertyP8wxWindow @6478
    _ZNK16wxPGChoiceEditor7GetNameEv @6479
    _ZNK16wxPGChoiceEditor7OnEventEP14wxPropertyGridP12wxPGPropertyP8wxWindowR7wxEvent @6480
    _ZNK16wxPGRootProperty12ChildChangedER9wxVariantiS1_ @6481
    _ZNK16wxPGRootProperty12GetClassInfoEv @6482
    _ZNK16wxPGRootProperty13StringToValueER9wxVariantRK8wxStringi @6483
    _ZNK16wxPGRootProperty16DoGetEditorClassEv @6484
    _ZNK16wxRegionIterator7GetRectEv @6485
    _ZNK16wxRegionIterator9HaveRectsEv @6486
    _ZNK16wxRegionIteratorcvbEv @6487
    _ZNK16wxScrolledWindow18GetBestVirtualSizeEv @6488
    _ZNK16wxScrolledWindow27GetWindowSizeForVirtualSizeERK6wxSize @6489
    _ZNK16wxSpinButtonBase6GetMaxEv @6490
    _ZNK16wxSpinButtonBase6GetMinEv @6491
    _ZNK16wxStaticLineBase10AdjustSizeERK6wxSize @6492
    _ZNK16wxStaticLineBase10IsVerticalEv @6493
    _ZNK16wxStaticLineBase12AcceptsFocusEv @6494
    _ZNK16wxStaticLineBase13DoGetBestSizeEv @6495
    _ZNK16wxStaticTextBase12AcceptsFocusEv @6496
    _ZNK16wxStringProperty12GetClassInfoEv @6497
    _ZNK16wxStringProperty13StringToValueER9wxVariantRK8wxStringi @6498
    _ZNK16wxStringProperty16DoGetEditorClassEv @6499
    _ZNK16wxStringProperty16GetValueAsStringEi @6500
    _ZNK16wxTextDataObject7GetTextEv @6501
    _ZNK16wxWindowListNode7GetDataEv @6502
    _ZNK16wxsDeleteItemRes13GetEventTableEv @6503
    _ZNK16wxsDeleteItemRes17GetEventHashTableEv @6504
    _ZNK16wxsDrawingWindow13GetEventTableEv @6505
    _ZNK16wxsDrawingWindow17GetEventHashTableEv @6506
    _ZNK16wxsExtResManager32FilesMapT_wxImplementation_KeyExclERKNS_31FilesMapT_wxImplementation_PairE @6507
    _ZNK16wxsExtResManager36FilesMapT_wxImplementation_HashTable10GetNodePtrERK8wxString @6508
    _ZNK16wxsExtResManager36FilesMapT_wxImplementation_HashTable4sizeEv @6509
    _ZNK16wxsExtResManager36FilesMapT_wxImplementation_HashTable5emptyEv @6510
    _ZNK16wxsExtResManager36FilesMapT_wxImplementation_HashTable7GetNodeERK8wxString @6511
    _ZNK16wxsExtResManager36FilesMapT_wxImplementation_HashTable8IteratoreqERKS1_ @6512
    _ZNK16wxsExtResManager36FilesMapT_wxImplementation_HashTable8IteratorneERKS1_ @6513
    _ZNK16wxsExtResManager36FilesMapT_wxImplementation_HashTable8iteratorptEv @6514
    _ZNK16wxsFontEditorDlg13GetEventTableEv @6515
    _ZNK16wxsFontEditorDlg17GetEventHashTableEv @6516
    _ZNK16wxsSizerParentQP13GetEventTableEv @6517
    _ZNK16wxsSizerParentQP17GetEventHashTableEv @6518
    _ZNK16wxsToolBarEditor13GetEventTableEv @6519
    _ZNK16wxsToolBarEditor17GetEventHashTableEv @6520
    _ZNK17wxArrayPGProperty3endEv @6521
    _ZNK17wxArrayPGProperty4ItemEj @6522
    _ZNK17wxArrayPGProperty4LastEv @6523
    _ZNK17wxArrayPGProperty4backEv @6524
    _ZNK17wxArrayPGProperty5IndexEP12wxPGPropertyb @6525
    _ZNK17wxArrayPGProperty5beginEv @6526
    _ZNK17wxArrayPGProperty5frontEv @6527
    _ZNK17wxArrayPGProperty8capacityEv @6528
    _ZNK17wxArrayPGPropertyixEj @6529
    _ZNK17wxTextEntryDialog8GetValueEv @6530
    _ZNK17wxULongLongNative8GetValueEv @6531
    _ZNK18ProjectLoaderHooks11HookFunctorI7wxSmithE4CallEP9cbProjectP12TiXmlElementb @6532
    _ZNK18wxBaseArrayPtrVoid3endEv @6533
    _ZNK18wxBaseArrayPtrVoid4ItemEj @6534
    _ZNK18wxBaseArrayPtrVoid4sizeEv @6535
    _ZNK18wxBaseArrayPtrVoid5CountEv @6536
    _ZNK18wxBaseArrayPtrVoid5beginEv @6537
    _ZNK18wxBaseArrayPtrVoid5emptyEv @6538
    _ZNK18wxBaseArrayPtrVoid7IsEmptyEv @6539
    _ZNK18wxBaseArrayPtrVoid8GetCountEv @6540
    _ZNK18wxBaseArrayPtrVoid8capacityEv @6541
    _ZNK18wxBaseArrayPtrVoidixEj @6542
    _ZNK18wxBaseEnumProperty10IntToValueER9wxVariantii @6543
    _ZNK18wxBaseEnumProperty13StringToValueER9wxVariantRK8wxStringi @6544
    _ZNK18wxBaseEnumProperty13ValidateValueER9wxVariantR18wxPGValidationInfo @6545
    _ZNK18wxBaseEnumProperty13ValueFromInt_ER9wxVariantii @6546
    _ZNK18wxBaseEnumProperty16GetIndexForValueEi @6547
    _ZNK18wxBaseEnumProperty16GetValueAsStringEi @6548
    _ZNK18wxBaseEnumProperty16GetValueForIndexEj @6549
    _ZNK18wxBaseEnumProperty16ValueFromString_ER9wxVariantRK8wxStringi @6550
    _ZNK18wxBaseEnumProperty8GetIndexEv @6551
    _ZNK18wxControlWithItems13GetClientDataEj @6552
    _ZNK18wxControlWithItems15GetClientObjectEj @6553
    _ZNK18wxDataObjectSimple11GetDataHereEPv @6554
    _ZNK18wxDataObjectSimple11GetDataHereERK12wxDataFormatPv @6555
    _ZNK18wxDataObjectSimple11GetDataSizeERK12wxDataFormat @6556
    _ZNK18wxDataObjectSimple11GetDataSizeEv @6557
    _ZNK18wxDataObjectSimple13GetAllFormatsEP12wxDataFormatN16wxDataObjectBase9DirectionE @6558
    _ZNK18wxDataObjectSimple14GetFormatCountEN16wxDataObjectBase9DirectionE @6559
    _ZNK18wxDataObjectSimple18GetPreferredFormatEN16wxDataObjectBase9DirectionE @6560
    _ZNK18wxEditEnumProperty12GetClassInfoEv @6561
    _ZNK18wxEditEnumProperty16DoGetEditorClassEv @6562
    _ZNK18wxPGCheckBoxEditor12GetClassInfoEv @6563
    _ZNK18wxPGCheckBoxEditor13UpdateControlEP12wxPGPropertyP8wxWindow @6564
    _ZNK18wxPGCheckBoxEditor14CreateControlsEP14wxPropertyGridP12wxPGPropertyRK7wxPointRK6wxSize @6565
    _ZNK18wxPGCheckBoxEditor18SetControlIntValueEP12wxPGPropertyP8wxWindowi @6566
    _ZNK18wxPGCheckBoxEditor19GetValueFromControlER9wxVariantP12wxPGPropertyP8wxWindow @6567
    _ZNK18wxPGCheckBoxEditor21SetValueToUnspecifiedEP12wxPGPropertyP8wxWindow @6568
    _ZNK18wxPGCheckBoxEditor7GetNameEv @6569
    _ZNK18wxPGCheckBoxEditor7OnEventEP14wxPropertyGridP12wxPGPropertyP8wxWindowR7wxEvent @6570
    _ZNK18wxPGCheckBoxEditor9DrawValueER4wxDCRK6wxRectP12wxPGPropertyRK8wxString @6571
    _ZNK18wxPGComboBoxEditor12GetClassInfoEv @6572
    _ZNK18wxPGComboBoxEditor13UpdateControlEP12wxPGPropertyP8wxWindow @6573
    _ZNK18wxPGComboBoxEditor14CreateControlsEP14wxPropertyGridP12wxPGPropertyRK7wxPointRK6wxSize @6574
    _ZNK18wxPGComboBoxEditor19GetValueFromControlER9wxVariantP12wxPGPropertyP8wxWindow @6575
    _ZNK18wxPGComboBoxEditor7GetNameEv @6576
    _ZNK18wxPGComboBoxEditor7OnEventEP14wxPropertyGridP12wxPGPropertyP8wxWindowR7wxEvent @6577
    _ZNK18wxPGComboBoxEditor7OnFocusEP12wxPGPropertyP8wxWindow @6578
    _ZNK18wxPGSpinCtrlEditor12GetClassInfoEv @6579
    _ZNK18wxPGSpinCtrlEditor14CreateControlsEP14wxPropertyGridP12wxPGPropertyRK7wxPointRK6wxSize @6580
    _ZNK18wxPGSpinCtrlEditor7GetNameEv @6581
    _ZNK18wxPGSpinCtrlEditor7OnEventEP14wxPropertyGridP12wxPGPropertyP8wxWindowR7wxEvent @6582
    _ZNK18wxPGTextCtrlEditor12GetClassInfoEv @6583
    _ZNK18wxPGTextCtrlEditor13UpdateControlEP12wxPGPropertyP8wxWindow @6584
    _ZNK18wxPGTextCtrlEditor14CreateControlsEP14wxPropertyGridP12wxPGPropertyRK7wxPointRK6wxSize @6585
    _ZNK18wxPGTextCtrlEditor19GetValueFromControlER9wxVariantP12wxPGPropertyP8wxWindow @6586
    _ZNK18wxPGTextCtrlEditor21SetControlStringValueEP12wxPGPropertyP8wxWindowRK8wxString @6587
    _ZNK18wxPGTextCtrlEditor21SetValueToUnspecifiedEP12wxPGPropertyP8wxWindow @6588
    _ZNK18wxPGTextCtrlEditor7GetNameEv @6589
    _ZNK18wxPGTextCtrlEditor7OnEventEP14wxPropertyGridP12wxPGPropertyP8wxWindowR7wxEvent @6590
    _ZNK18wxPGTextCtrlEditor7OnFocusEP12wxPGPropertyP8wxWindow @6591
    _ZNK18wxPGValidationInfo17GetFailureMessageEv @6592
    _ZNK18wxPGValidationInfo18GetFailureBehaviorEv @6593
    _ZNK18wxPropertyCategory12ChildChangedER9wxVariantiS1_ @6594
    _ZNK18wxPropertyCategory12GetClassInfoEv @6595
    _ZNK18wxPropertyCategory13GetTextExtentEPK8wxWindowRK6wxFont @6596
    _ZNK18wxPropertyCategory15GetTextColIndexEv @6597
    _ZNK18wxPropertyCategory16DoGetEditorClassEv @6598
    _ZNK18wxPropertyCategory16GetValueAsStringEi @6599
    _ZNK18wxPropertyGridPage11GetStatePtrEv @6600
    _ZNK18wxPropertyGridPage12GetClassInfoEv @6601
    _ZNK18wxPropertyGridPage13GetEventTableEv @6602
    _ZNK18wxPropertyGridPage17GetEventHashTableEv @6603
    _ZNK18wxPropertyGridPage19GetSplitterPositionEi @6604
    _ZNK18wxPropertyGridPage19IsHandlingAllEventsEv @6605
    _ZNK18wxPropertyGridPage7GetRootEv @6606
    _ZNK18wxPropertyGridPage8GetIndexEv @6607
    _ZNK18wxPropertyGridPage9GetToolIdEv @6608
    _ZNK18wxsResourceFactory28HashT_wxImplementation_KeyExclERKNS_27HashT_wxImplementation_PairE @6609
    _ZNK18wxsResourceFactory32HashT_wxImplementation_HashTable8IteratorneERKS1_ @6610
    _ZNK18wxsResourceFactory32HashT_wxImplementation_HashTable8iteratorptEv @6611
    _ZNK19wxArrayEditorDialog10IsModifiedEv @6612
    _ZNK19wxArrayEditorDialog12GetClassInfoEv @6613
    _ZNK19wxArrayEditorDialog13GetEventTableEv @6614
    _ZNK19wxArrayEditorDialog14GetDialogValueEv @6615
    _ZNK19wxArrayEditorDialog17GetEventHashTableEv @6616
    _ZNK19wxArrayEditorDialog20GetTextCtrlValidatorEv @6617
    _ZNK19wxImageFileProperty12GetClassInfoEv @6618
    _ZNK19wxImageFileProperty14OnMeasureImageEi @6619
    _ZNK19wxMultiChoiceDialog13GetSelectionsEv @6620
    _ZNK19wxPGDefaultRenderer12GetImageSizeEPK12wxPGPropertyii @6621
    _ZNK19wxPGDefaultRenderer6RenderER4wxDCRK6wxRectPK14wxPropertyGridP12wxPGPropertyiii @6622
    _ZNK19wxPGGlobalVarsClass13HasExtraStyleEi @6623
    _ZNK19wxPGVariantDataFont12GetClassInfoEv @6624
    _ZNK19wxPGVariantDataFont15GetDefaultValueEv @6625
    _ZNK19wxPGVariantDataFont2EqER13wxVariantData @6626
    _ZNK19wxPGVariantDataFont5WriteER8wxString @6627
    _ZNK19wxPGVariantDataFont7GetTypeEv @6628
    _ZNK19wxPGVariantDataFont8GetValueEv @6629
    _ZNK19wxPGVariantDataSize12GetClassInfoEv @6630
    _ZNK19wxPGVariantDataSize15GetDefaultValueEv @6631
    _ZNK19wxPGVariantDataSize2EqER13wxVariantData @6632
    _ZNK19wxPGVariantDataSize5WriteER8wxString @6633
    _ZNK19wxPGVariantDataSize7GetTypeEv @6634
    _ZNK19wxPGVariantDataSize8GetValueEv @6635
    _ZNK19wxPropertyGridEvent11GetPropertyEv @6636
    _ZNK19wxPropertyGridEvent11HasPropertyEv @6637
    _ZNK19wxPropertyGridEvent12GetClassInfoEv @6638
    _ZNK19wxPropertyGridEvent13GetMainParentEv @6639
    _ZNK19wxPropertyGridEvent14GetPropertyPtrEv @6640
    _ZNK19wxPropertyGridEvent15GetPropertyNameEv @6641
    _ZNK19wxPropertyGridEvent16GetPropertyLabelEv @6642
    _ZNK19wxPropertyGridEvent16GetPropertyValueEv @6643
    _ZNK19wxPropertyGridEvent17IsPropertyEnabledEv @6644
    _ZNK19wxPropertyGridEvent21GetPropertyClientDataEv @6645
    _ZNK19wxPropertyGridEvent21GetPropertyValueAsIntEv @6646
    _ZNK19wxPropertyGridEvent22GetPropertyValueAsBoolEv @6647
    _ZNK19wxPropertyGridEvent22GetPropertyValueAsLongEv @6648
    _ZNK19wxPropertyGridEvent22GetPropertyValueAsSizeEv @6649
    _ZNK19wxPropertyGridEvent23GetPropertyValueAsPointEv @6650
    _ZNK19wxPropertyGridEvent24GetPropertyValueAsDoubleEv @6651
    _ZNK19wxPropertyGridEvent24GetPropertyValueAsStringEv @6652
    _ZNK19wxPropertyGridEvent25GetPropertyValueAsVoidPtrEv @6653
    _ZNK19wxPropertyGridEvent26GetPropertyValueAsArrayIntEv @6654
    _ZNK19wxPropertyGridEvent28GetValidationFailureBehaviorEv @6655
    _ZNK19wxPropertyGridEvent29GetPropertyValueAsArrayStringEv @6656
    _ZNK19wxPropertyGridEvent29GetPropertyValueAsWxObjectPtrEv @6657
    _ZNK19wxPropertyGridEvent5CloneEv @6658
    _ZNK19wxPropertyGridEvent7CanVetoEv @6659
    _ZNK19wxPropertyGridEvent8GetValueEv @6660
    _ZNK19wxPropertyGridEvent9GetColumnEv @6661
    _ZNK19wxPropertyGridEvent9WasVetoedEv @6662
    _ZNK19wxPropertyGridState11GetLastItemEi @6663
    _ZNK19wxPropertyGridState11IsDisplayedEv @6664
    _ZNK19wxPropertyGridState12DoGetItemAtYEi @6665
    _ZNK19wxPropertyGridState12GetSelectionEv @6666
    _ZNK19wxPropertyGridState14GetColumnCountEv @6667
    _ZNK19wxPropertyGridState14GetColumnWidthEj @6668
    _ZNK19wxPropertyGridState14IsInNonCatModeEv @6669
    _ZNK19wxPropertyGridState15GetNextCategoryEP12wxPGProperty @6670
    _ZNK19wxPropertyGridState15GetVirtualWidthEv @6671
    _ZNK19wxPropertyGridState16GetVirtualHeightEv @6672
    _ZNK19wxPropertyGridState17GetColumnFitWidthER10wxClientDCP12wxPGPropertyjb @6673
    _ZNK19wxPropertyGridState17GetColumnMinWidthEi @6674
    _ZNK19wxPropertyGridState18GetPropertyByLabelERK8wxStringP12wxPGProperty @6675
    _ZNK19wxPropertyGridState19DoGetPropertyValuesERK8wxStringP12wxPGPropertyl @6676
    _ZNK19wxPropertyGridState19GetPropertyCategoryEPK12wxPGProperty @6677
    _ZNK19wxPropertyGridState20DoIsPropertySelectedEP12wxPGProperty @6678
    _ZNK19wxPropertyGridState21ArePropertiesAdjacentEP12wxPGPropertyS1_i @6679
    _ZNK19wxPropertyGridState21BaseGetPropertyByNameERK8wxString @6680
    _ZNK19wxPropertyGridState21DoGetColumnProportionEj @6681
    _ZNK19wxPropertyGridState21DoGetSplitterPositionEi @6682
    _ZNK19wxPropertyGridState22GetActualVirtualHeightEv @6683
    _ZNK19wxPropertyGridState7GetGridEv @6684
    _ZNK19wxPropertyGridState7HitTestERK7wxPoint @6685
    _ZNK19wxPropertyGridState8HitTestHEiPiS0_ @6686
    _ZNK19wxPropertyGridState9DoGetRootEv @6687
    _ZNK19wxTopLevelWindowMSW12IsFullScreenEv @6688
    _ZNK19wxsVersionConverter15DetectOldConfigEP12TiXmlElementP10wxsProject @6689
    _ZNK19wxsVersionConverter17ConvertOldWxsFileERK8wxStringb @6690
    _ZNK19wxsVersionConverter18AdoptOldSourceFileERK8wxStringS2_ @6691
    _ZNK19wxsVersionConverter20ConvertFromOldConfigEP12TiXmlElementP13TiXmlDocumentP10wxsProject @6692
    _ZNK19wxsVersionConverter25LineContainDirectivesOnlyERK8wxStringRi @6693
    _ZNK19wxsVersionConverter29GatherExtraFromOldResourceReqEP12TiXmlElementS1_b @6694
    _ZNK19wxsVersionConverter7ConvertEP12TiXmlElementP13TiXmlDocumentP10wxsProject @6695
    _ZNK20wxLongStringProperty12GetClassInfoEv @6696
    _ZNK20wxLongStringProperty13StringToValueER9wxVariantRK8wxStringi @6697
    _ZNK20wxLongStringProperty16DoGetEditorClassEv @6698
    _ZNK20wxLongStringProperty16GetValueAsStringEi @6699
    _ZNK20wxNavigationKeyEvent12GetDirectionEv @6700
    _ZNK20wxOwnerDrawnComboBox13GetClientDataEj @6701
    _ZNK20wxOwnerDrawnComboBox13GetClientDataEv @6702
    _ZNK20wxOwnerDrawnComboBox15GetClientObjectEj @6703
    _ZNK20wxOwnerDrawnComboBox15GetClientObjectEv @6704
    _ZNK20wxOwnerDrawnComboBox21GetVListBoxComboPopupEv @6705
    _ZNK20wxPGAttributeStorage14StartIterationEv @6706
    _ZNK20wxPGAttributeStorage7GetNextERN41wxPGHashMapS2P_wxImplementation_HashTable14const_iteratorER9wxVariant @6707
    _ZNK20wxPGAttributeStorage8GetCountEv @6708
    _ZNK20wxPGAttributeStorage9FindValueERK8wxString @6709
    _ZNK20wxPGVariantDataPoint12GetClassInfoEv @6710
    _ZNK20wxPGVariantDataPoint15GetDefaultValueEv @6711
    _ZNK20wxPGVariantDataPoint2EqER13wxVariantData @6712
    _ZNK20wxPGVariantDataPoint5WriteER8wxString @6713
    _ZNK20wxPGVariantDataPoint7GetTypeEv @6714
    _ZNK20wxPGVariantDataPoint8GetValueEv @6715
    _ZNK20wxStringOutputStream9GetStringEv @6716
    _ZNK20wxTopLevelWindowBase10IsTopLevelEv @6717
    _ZNK20wxTopLevelWindowBase11IsOneOfBarsEPK8wxWindow @6718
    _ZNK20wxTopLevelWindowBase19DoGetScreenPositionEPiS0_ @6719
    _ZNK20wxTopLevelWindowBase20ShouldPreventAppExitEv @6720
    _ZNK20wxTopLevelWindowBase9IsVisibleEv @6721
    _ZNK20wxsFontFaceEditorDlg13GetEventTableEv @6722
    _ZNK20wxsFontFaceEditorDlg17GetEventHashTableEv @6723
    _ZNK20wxsItemEditorContent11DragPointsTixEj @6724
    _ZNK20wxsItemEditorContent13GetEventTableEv @6725
    _ZNK20wxsItemEditorContent17GetEventHashTableEv @6726
    _ZNK20wxsItemEditorContent34ItemToRectT_wxImplementation_KeyExclERKNS_33ItemToRectT_wxImplementation_PairE @6727
    _ZNK20wxsItemEditorContent36ItemToWindowT_wxImplementation_KeyExclERKNS_35ItemToWindowT_wxImplementation_PairE @6728
    _ZNK20wxsItemEditorContent38ItemToRectT_wxImplementation_HashTable7GetNodeERKPKv @6729
    _ZNK20wxsItemEditorContent38ItemToRectT_wxImplementation_HashTable8IteratoreqERKS1_ @6730
    _ZNK20wxsItemEditorContent38ItemToRectT_wxImplementation_HashTable8iteratordeEv @6731
    _ZNK20wxsItemEditorContent40ItemToWindowT_wxImplementation_HashTable7GetNodeERKPKv @6732
    _ZNK20wxsItemEditorContent40ItemToWindowT_wxImplementation_HashTable8IteratoreqERKS1_ @6733
    _ZNK20wxsItemEditorContent40ItemToWindowT_wxImplementation_HashTable8iteratordeEv @6734
    _ZNK20wxsItemResDataObject10GetXmlDataEv @6735
    _ZNK20wxsItemResDataObject11GetDataHereERK12wxDataFormatPv @6736
    _ZNK20wxsItemResDataObject11GetDataSizeERK12wxDataFormat @6737
    _ZNK20wxsItemResDataObject12GetItemCountEv @6738
    _ZNK20wxsItemResDataObject13GetAllFormatsEP12wxDataFormatN16wxDataObjectBase9DirectionE @6739
    _ZNK20wxsItemResDataObject14GetFormatCountEN16wxDataObjectBase9DirectionE @6740
    _ZNK20wxsItemResDataObject18GetPreferredFormatEN16wxDataObjectBase9DirectionE @6741
    _ZNK20wxsItemResDataObject9BuildItemEP14wxsItemResDatai @6742
    _ZNK20wxwxMenuItemListNode7GetDataEv @6743
    _ZNK21wxArrayStringProperty12GetClassInfoEv @6744
    _ZNK21wxArrayStringProperty13StringToValueER9wxVariantRK8wxStringi @6745
    _ZNK21wxArrayStringProperty16DoGetEditorClassEv @6746
    _ZNK21wxArrayStringProperty16GetValueAsStringEi @6747
    _ZNK21wxColourPropertyValue12GetClassInfoEv @6748
    _ZNK21wxMultiChoiceProperty12GetClassInfoEv @6749
    _ZNK21wxMultiChoiceProperty13StringToValueER9wxVariantRK8wxStringi @6750
    _ZNK21wxMultiChoiceProperty16DoGetEditorClassEv @6751
    _ZNK21wxMultiChoiceProperty16GetValueAsStringEi @6752
    _ZNK21wxMultiChoiceProperty17GetValueAsIndicesEv @6753
    _ZNK21wxMultiChoiceProperty18GetValueAsArrayIntEv @6754
    _ZNK21wxPropertyGridManager10GetToolBarEv @6755
    _ZNK21wxPropertyGridManager11GetIteratorEiP12wxPGProperty @6756
    _ZNK21wxPropertyGridManager11GetIteratorEii @6757
    _ZNK21wxPropertyGridManager11GetLastPageEv @6758
    _ZNK21wxPropertyGridManager11GetPageNameEi @6759
    _ZNK21wxPropertyGridManager11GetPageRootEi @6760
    _ZNK21wxPropertyGridManager12GetClassInfoEv @6761
    _ZNK21wxPropertyGridManager12GetPageCountEv @6762
    _ZNK21wxPropertyGridManager12GetPageStateEi @6763
    _ZNK21wxPropertyGridManager12GetSelectionEv @6764
    _ZNK21wxPropertyGridManager12GetVIteratorEi @6765
    _ZNK21wxPropertyGridManager13DoGetBestSizeEv @6766
    _ZNK21wxPropertyGridManager13GetEventTableEv @6767
    _ZNK21wxPropertyGridManager13GetPageByNameERK8wxString @6768
    _ZNK21wxPropertyGridManager13GetTargetPageEv @6769
    _ZNK21wxPropertyGridManager13IsAnyModifiedEv @6770
    _ZNK21wxPropertyGridManager14GetColumnCountEi @6771
    _ZNK21wxPropertyGridManager14GetCurrentPageEv @6772
    _ZNK21wxPropertyGridManager14GetPageByStateEPK19wxPropertyGridState @6773
    _ZNK21wxPropertyGridManager14IsPageModifiedEj @6774
    _ZNK21wxPropertyGridManager15GetSelectedPageEv @6775
    _ZNK21wxPropertyGridManager16GetChildrenCountERK14wxPGPropArgCls @6776
    _ZNK21wxPropertyGridManager16GetDescBoxHeightEv @6777
    _ZNK21wxPropertyGridManager17GetEventHashTableEv @6778
    _ZNK21wxPropertyGridManager17GetPropertyColourERK14wxPGPropArgCls @6779
    _ZNK21wxPropertyGridManager18CreatePropertyGridEv @6780
    _ZNK21wxPropertyGridManager18GetPropertyByLabelERK8wxStringPP19wxPropertyGridState @6781
    _ZNK21wxPropertyGridManager18IsPropertySelectedERK14wxPGPropArgCls @6782
    _ZNK21wxPropertyGridManager19DoGetPropertyByNameERK8wxString @6783
    _ZNK21wxPropertyGridManager19GetSelectedPropertyEv @6784
    _ZNK21wxPropertyGridManager20GetEditableStateItemERK8wxString @6785
    _ZNK21wxPropertyGridManager21GetPropertyTextColourERK14wxPGPropArgCls @6786
    _ZNK21wxPropertyGridManager7GetGridEv @6787
    _ZNK21wxPropertyGridManager7GetPageERK8wxString @6788
    _ZNK21wxPropertyGridManager7GetPageEj @6789
    _ZNK21wxPropertyGridManager8IsFrozenEv @6790
    _ZNK22wxPropertyGridIteratordeEv @6791
    _ZNK22wxSystemColourProperty10IntToValueER9wxVariantii @6792
    _ZNK22wxSystemColourProperty12GetClassInfoEv @6793
    _ZNK22wxSystemColourProperty12TranslateValER21wxColourPropertyValue @6794
    _ZNK22wxSystemColourProperty12TranslateValEiRK8wxColour @6795
    _ZNK22wxSystemColourProperty13StringToValueER9wxVariantRK8wxStringi @6796
    _ZNK22wxSystemColourProperty14ColourToStringERK8wxColouri @6797
    _ZNK22wxSystemColourProperty14DoTranslateValER21wxColourPropertyValue @6798
    _ZNK22wxSystemColourProperty14OnMeasureImageEi @6799
    _ZNK22wxSystemColourProperty16DoGetEditorClassEv @6800
    _ZNK22wxSystemColourProperty16GetValueAsStringEi @6801
    _ZNK22wxSystemColourProperty19QueryColourFromUserER9wxVariant @6802
    _ZNK22wxSystemColourProperty20GetCustomColourIndexEv @6803
    _ZNK22wxSystemColourProperty6GetValEPK9wxVariant @6804
    _ZNK22wxSystemColourProperty8ColToIndERK8wxColour @6805
    _ZNK22wxSystemColourProperty9GetColourEi @6806
    _ZNK22wxsBitmapIconEditorDlg13GetEventTableEv @6807
    _ZNK22wxsBitmapIconEditorDlg17GetEventHashTableEv @6808
    _ZNK22wxsPropertyGridManager11wxArrayContixEj @6809
    _ZNK22wxsPropertyGridManager11wxArrayPGIdixEj @6810
    _ZNK22wxsPropertyGridManager12GetClassInfoEv @6811
    _ZNK22wxsPropertyGridManager12wxArrayPropsixEj @6812
    _ZNK22wxsPropertyGridManager13GetEventTableEv @6813
    _ZNK22wxsPropertyGridManager17GetEventHashTableEv @6814
    _ZNK22wxsPropertyGridManager32wxSetCont_wxImplementation_KeyExclERKP20wxsPropertyContainer @6815
    _ZNK22wxsPropertyGridManager36wxSetCont_wxImplementation_HashTable7GetNodeERKPK20wxsPropertyContainer @6816
    _ZNK22wxsPropertyGridManager36wxSetCont_wxImplementation_HashTable8IteratoreqERKS1_ @6817
    _ZNK22wxsSimpleFontEditorDlg13GetEventTableEv @6818
    _ZNK22wxsSimpleFontEditorDlg17GetEventHashTableEv @6819
    _ZNK23wxPGEditorDialogAdapter12GetClassInfoEv @6820
    _ZNK23wxPGVariantDataArrayInt12GetClassInfoEv @6821
    _ZNK23wxPGVariantDataArrayInt15GetDefaultValueEv @6822
    _ZNK23wxPGVariantDataArrayInt2EqER13wxVariantData @6823
    _ZNK23wxPGVariantDataArrayInt5WriteER8wxString @6824
    _ZNK23wxPGVariantDataArrayInt7GetTypeEv @6825
    _ZNK23wxPGVariantDataArrayInt8GetValueEv @6826
    _ZNK23wxPGVariantDataLongLong12GetClassInfoEv @6827
    _ZNK23wxPGVariantDataLongLong15GetDefaultValueEv @6828
    _ZNK23wxPGVariantDataLongLong2EqER13wxVariantData @6829
    _ZNK23wxPGVariantDataLongLong5WriteER8wxString @6830
    _ZNK23wxPGVariantDataLongLong7GetTypeEv @6831
    _ZNK23wxPGVariantDataLongLong8GetValueEv @6832
    _ZNK23wxPropertyGridInterface10IsModifiedERK14wxPGPropArgCls @6833
    _ZNK23wxPropertyGridInterface11GetIteratorEiP12wxPGProperty @6834
    _ZNK23wxPropertyGridInterface11GetIteratorEii @6835
    _ZNK23wxPropertyGridInterface11GetPropertyERK8wxString @6836
    _ZNK23wxPropertyGridInterface12GetPageStateEi @6837
    _ZNK23wxPropertyGridInterface12GetSelectionEv @6838
    _ZNK23wxPropertyGridInterface12GetVIteratorEi @6839
    _ZNK23wxPropertyGridInterface14GetPropertyPtrERK14wxPGPropArgCls @6840
    _ZNK23wxPropertyGridInterface15GetPropertyGridEv @6841
    _ZNK23wxPropertyGridInterface15IsPropertyShownERK14wxPGPropArgCls @6842
    _ZNK23wxPropertyGridInterface16GetPropertyImageERK14wxPGPropArgCls @6843
    _ZNK23wxPropertyGridInterface16IsPropertyKindOfERK14wxPGPropArgClsP11wxClassInfo @6844
    _ZNK23wxPropertyGridInterface17GetPropertyByNameERK8wxString @6845
    _ZNK23wxPropertyGridInterface17GetPropertyByNameERK8wxStringS2_ @6846
    _ZNK23wxPropertyGridInterface17GetPropertyEditorERK14wxPGPropArgCls @6847
    _ZNK23wxPropertyGridInterface17GetPropertyValuesERK8wxStringP12wxPGPropertyl @6848
    _ZNK23wxPropertyGridInterface17IsPropertyEnabledERK14wxPGPropArgCls @6849
    _ZNK23wxPropertyGridInterface17NamesToPropertiesEP17wxArrayPGPropertyRK13wxArrayString @6850
    _ZNK23wxPropertyGridInterface17PropertiesToNamesEP13wxArrayStringRK17wxArrayPGProperty @6851
    _ZNK23wxPropertyGridInterface17SaveEditableStateEi @6852
    _ZNK23wxPropertyGridInterface18GetPropertyByNameAERK8wxString @6853
    _ZNK23wxPropertyGridInterface18IsPropertyCategoryERK14wxPGPropArgCls @6854
    _ZNK23wxPropertyGridInterface18IsPropertyExpandedERK14wxPGPropArgCls @6855
    _ZNK23wxPropertyGridInterface18IsPropertyModifiedERK14wxPGPropArgCls @6856
    _ZNK23wxPropertyGridInterface18IsPropertySelectedERK14wxPGPropArgCls @6857
    _ZNK23wxPropertyGridInterface19DoGetPropertyByNameERK8wxString @6858
    _ZNK23wxPropertyGridInterface19GetColumnProportionEj @6859
    _ZNK23wxPropertyGridInterface19GetPropertyCategoryERK14wxPGPropArgCls @6860
    _ZNK23wxPropertyGridInterface19IsPropertyValueTypeERK14wxPGPropArgClsPKw @6861
    _ZNK23wxPropertyGridInterface20GetEditableStateItemERK8wxString @6862
    _ZNK23wxPropertyGridInterface20GetPropertyAttributeERK14wxPGPropArgClsRK8wxString @6863
    _ZNK23wxPropertyGridInterface20GetPropertyClassNameERK14wxPGPropArgCls @6864
    _ZNK23wxPropertyGridInterface21GetExpandedPropertiesEv @6865
    _ZNK23wxPropertyGridInterface21GetPropertiesWithFlagEP17wxArrayPGPropertyjbi @6866
    _ZNK23wxPropertyGridInterface21GetPropertyAttributesERK14wxPGPropArgCls @6867
    _ZNK23wxPropertyGridInterface21GetPropertyClientDataERK14wxPGPropArgCls @6868
    _ZNK23wxPropertyGridInterface21GetPropertyHelpStringERK14wxPGPropArgCls @6869
    _ZNK23wxPropertyGridInterface21GetPropertyValueAsIntERK14wxPGPropArgCls @6870
    _ZNK23wxPropertyGridInterface21GetSelectedPropertiesEv @6871
    _ZNK23wxPropertyGridInterface21IsPropertyUnspecifiedERK14wxPGPropArgCls @6872
    _ZNK23wxPropertyGridInterface22GetPropertyValueAsBoolERK14wxPGPropArgCls @6873
    _ZNK23wxPropertyGridInterface22GetPropertyValueAsLongERK14wxPGPropArgCls @6874
    _ZNK23wxPropertyGridInterface22GetPropertyValueAsSizeERK14wxPGPropArgCls @6875
    _ZNK23wxPropertyGridInterface23GetPropertyValueAsPointERK14wxPGPropArgCls @6876
    _ZNK23wxPropertyGridInterface23GetPropertyValueAsULongERK14wxPGPropArgCls @6877
    _ZNK23wxPropertyGridInterface24GetPropertyValueAsDoubleERK14wxPGPropArgCls @6878
    _ZNK23wxPropertyGridInterface24GetPropertyValueAsStringERK14wxPGPropArgCls @6879
    _ZNK23wxPropertyGridInterface25GetPropertyValueAsVoidPtrERK14wxPGPropArgCls @6880
    _ZNK23wxPropertyGridInterface26GetPropertyValueAsArrayIntERK14wxPGPropArgCls @6881
    _ZNK23wxPropertyGridInterface26GetPropertyValueAsDateTimeERK14wxPGPropArgCls @6882
    _ZNK23wxPropertyGridInterface26GetPropertyValueAsLongLongERK14wxPGPropArgCls @6883
    _ZNK23wxPropertyGridInterface27GetPropertyValueAsULongLongERK14wxPGPropArgCls @6884
    _ZNK23wxPropertyGridInterface29GetPropertyValueAsArrayStringERK14wxPGPropArgCls @6885
    _ZNK23wxPropertyGridInterface29GetPropertyValueAsWxObjectPtrERK14wxPGPropArgCls @6886
    _ZNK23wxPropertyGridInterface8GetFirstEi @6887
    _ZNK23wxPropertyGridInterface8GetStateEv @6888
    _ZNK23wxPropertyGridPopulator12GetCurParentEv @6889
    _ZNK23wxPropertyGridPopulator8GetStateEv @6890
    _ZNK23wxWidgetsGUIConfigPanel13GetEventTableEv @6891
    _ZNK23wxWidgetsGUIConfigPanel17GetBitmapBaseNameEv @6892
    _ZNK23wxWidgetsGUIConfigPanel17GetEventHashTableEv @6893
    _ZNK23wxWidgetsGUIConfigPanel8GetTitleEv @6894
    _ZNK23wxsArrayStringEditorDlg13GetEventTableEv @6895
    _ZNK23wxsArrayStringEditorDlg17GetEventHashTableEv @6896
    _ZNK24wxPGDatePickerCtrlEditor12GetClassInfoEv @6897
    _ZNK24wxPGDatePickerCtrlEditor13UpdateControlEP12wxPGPropertyP8wxWindow @6898
    _ZNK24wxPGDatePickerCtrlEditor14CreateControlsEP14wxPropertyGridP12wxPGPropertyRK7wxPointRK6wxSize @6899
    _ZNK24wxPGDatePickerCtrlEditor19GetValueFromControlER9wxVariantP12wxPGPropertyP8wxWindow @6900
    _ZNK24wxPGDatePickerCtrlEditor21SetValueToUnspecifiedEP12wxPGPropertyP8wxWindow @6901
    _ZNK24wxPGDatePickerCtrlEditor7GetNameEv @6902
    _ZNK24wxPGDatePickerCtrlEditor7OnEventEP14wxPropertyGridP12wxPGPropertyP8wxWindowR7wxEvent @6903
    _ZNK24wxPGDoubleClickProcessor13GetEventTableEv @6904
    _ZNK24wxPGDoubleClickProcessor17GetEventHashTableEv @6905
    _ZNK24wxPGVariantDataULongLong12GetClassInfoEv @6906
    _ZNK24wxPGVariantDataULongLong15GetDefaultValueEv @6907
    _ZNK24wxPGVariantDataULongLong2EqER13wxVariantData @6908
    _ZNK24wxPGVariantDataULongLong5WriteER8wxString @6909
    _ZNK24wxPGVariantDataULongLong7GetTypeEv @6910
    _ZNK24wxPGVariantDataULongLong8GetValueEv @6911
    _ZNK24wxsAutoResourceTreeImage8GetIndexEv @6912
    _ZNK24wxsStoringSplitterWindow13GetEventTableEv @6913
    _ZNK24wxsStoringSplitterWindow17GetEventHashTableEv @6914
    _ZNK25wxPGChoiceAndButtonEditor12GetClassInfoEv @6915
    _ZNK25wxPGChoiceAndButtonEditor14CreateControlsEP14wxPropertyGridP12wxPGPropertyRK7wxPointRK6wxSize @6916
    _ZNK25wxPGChoiceAndButtonEditor7GetNameEv @6917
    _ZNK26wxPropertyGridIteratorBase11GetPropertyEv @6918
    _ZNK26wxPropertyGridIteratorBase5AtEndEv @6919
    _ZNK26wxWidgetsGUIAppAdoptingDlg13GetEventTableEv @6920
    _ZNK26wxWidgetsGUIAppAdoptingDlg17GetEventHashTableEv @6921
    _ZNK27wxPGArrayStringEditorDialog12GetClassInfoEv @6922
    _ZNK27wxPGArrayStringEditorDialog13GetEventTableEv @6923
    _ZNK27wxPGArrayStringEditorDialog14GetDialogValueEv @6924
    _ZNK27wxPGArrayStringEditorDialog17GetEventHashTableEv @6925
    _ZNK27wxPGTextCtrlAndButtonEditor12GetClassInfoEv @6926
    _ZNK27wxPGTextCtrlAndButtonEditor14CreateControlsEP14wxPropertyGridP12wxPGPropertyRK7wxPointRK6wxSize @6927
    _ZNK27wxPGTextCtrlAndButtonEditor7GetNameEv @6928
    _ZNK27wxPropertyGridConstIteratordeEv @6929
    _ZNK27wxPropertyGridHitTestResult11GetPropertyEv @6930
    _ZNK27wxPropertyGridHitTestResult11GetSplitterEv @6931
    _ZNK27wxPropertyGridHitTestResult20GetSplitterHitOffsetEv @6932
    _ZNK27wxPropertyGridHitTestResult9GetColumnEv @6933
    _ZNK28wxsArrayStringCheckEditorDlg13GetEventTableEv @6934
    _ZNK28wxsArrayStringCheckEditorDlg17GetEventHashTableEv @6935
    _ZNK33StringHash_wxImplementation_KeyExclERK32StringHash_wxImplementation_Pair @6936
    _ZNK34wxPGVariantDataColourPropertyValue12GetClassInfoEv @6937
    _ZNK34wxPGVariantDataColourPropertyValue15GetDefaultValueEv @6938
    _ZNK34wxPGVariantDataColourPropertyValue2EqER13wxVariantData @6939
    _ZNK34wxPGVariantDataColourPropertyValue5WriteER8wxString @6940
    _ZNK34wxPGVariantDataColourPropertyValue7GetTypeEv @6941
    _ZNK34wxPGVariantDataColourPropertyValue8GetValueEv @6942
    _ZNK35ProjectFiles_wxImplementation_KeyExclERK34ProjectFiles_wxImplementation_Pair @6943
    _ZNK37StringHash_wxImplementation_HashTable4sizeEv @6944
    _ZNK37wxPGHashMapI2I_wxImplementation_KeyExclERK36wxPGHashMapI2I_wxImplementation_Pair @6945
    _ZNK37wxPGHashMapP2P_wxImplementation_KeyExclERK36wxPGHashMapP2P_wxImplementation_Pair @6946
    _ZNK37wxPGHashMapS2P_wxImplementation_KeyExclERK36wxPGHashMapS2P_wxImplementation_Pair @6947
    _ZNK39ProjectFiles_wxImplementation_HashTable4sizeEv @6948
    _ZNK41wxPGHashMapI2I_wxImplementation_HashTable10GetNodePtrERKi @6949
    _ZNK41wxPGHashMapI2I_wxImplementation_HashTable14const_iteratordeEv @6950
    _ZNK41wxPGHashMapI2I_wxImplementation_HashTable14const_iteratorptEv @6951
    _ZNK41wxPGHashMapI2I_wxImplementation_HashTable3endEv @6952
    _ZNK41wxPGHashMapI2I_wxImplementation_HashTable4sizeEv @6953
    _ZNK41wxPGHashMapI2I_wxImplementation_HashTable5beginEv @6954
    _ZNK41wxPGHashMapI2I_wxImplementation_HashTable5emptyEv @6955
    _ZNK41wxPGHashMapI2I_wxImplementation_HashTable7GetNodeERKi @6956
    _ZNK41wxPGHashMapI2I_wxImplementation_HashTable8IteratoreqERKS0_ @6957
    _ZNK41wxPGHashMapI2I_wxImplementation_HashTable8IteratorneERKS0_ @6958
    _ZNK41wxPGHashMapI2I_wxImplementation_HashTable8iteratordeEv @6959
    _ZNK41wxPGHashMapI2I_wxImplementation_HashTable8iteratorptEv @6960
    _ZNK41wxPGHashMapI2I_wxImplementation_HashTable8max_sizeEv @6961
    _ZNK41wxPGHashMapP2P_wxImplementation_HashTable10GetNodePtrERKPKv @6962
    _ZNK41wxPGHashMapP2P_wxImplementation_HashTable14const_iteratordeEv @6963
    _ZNK41wxPGHashMapP2P_wxImplementation_HashTable14const_iteratorptEv @6964
    _ZNK41wxPGHashMapP2P_wxImplementation_HashTable3endEv @6965
    _ZNK41wxPGHashMapP2P_wxImplementation_HashTable4sizeEv @6966
    _ZNK41wxPGHashMapP2P_wxImplementation_HashTable5beginEv @6967
    _ZNK41wxPGHashMapP2P_wxImplementation_HashTable5emptyEv @6968
    _ZNK41wxPGHashMapP2P_wxImplementation_HashTable7GetNodeERKPKv @6969
    _ZNK41wxPGHashMapP2P_wxImplementation_HashTable8IteratoreqERKS0_ @6970
    _ZNK41wxPGHashMapP2P_wxImplementation_HashTable8IteratorneERKS0_ @6971
    _ZNK41wxPGHashMapP2P_wxImplementation_HashTable8iteratordeEv @6972
    _ZNK41wxPGHashMapP2P_wxImplementation_HashTable8iteratorptEv @6973
    _ZNK41wxPGHashMapP2P_wxImplementation_HashTable8max_sizeEv @6974
    _ZNK41wxPGHashMapS2P_wxImplementation_HashTable10GetNodePtrERK8wxString @6975
    _ZNK41wxPGHashMapS2P_wxImplementation_HashTable14const_iteratordeEv @6976
    _ZNK41wxPGHashMapS2P_wxImplementation_HashTable14const_iteratorptEv @6977
    _ZNK41wxPGHashMapS2P_wxImplementation_HashTable3endEv @6978
    _ZNK41wxPGHashMapS2P_wxImplementation_HashTable4sizeEv @6979
    _ZNK41wxPGHashMapS2P_wxImplementation_HashTable5beginEv @6980
    _ZNK41wxPGHashMapS2P_wxImplementation_HashTable5emptyEv @6981
    _ZNK41wxPGHashMapS2P_wxImplementation_HashTable7GetNodeERK8wxString @6982
    _ZNK41wxPGHashMapS2P_wxImplementation_HashTable8IteratoreqERKS0_ @6983
    _ZNK41wxPGHashMapS2P_wxImplementation_HashTable8IteratorneERKS0_ @6984
    _ZNK41wxPGHashMapS2P_wxImplementation_HashTable8iteratordeEv @6985
    _ZNK41wxPGHashMapS2P_wxImplementation_HashTable8iteratorptEv @6986
    _ZNK41wxPGHashMapS2P_wxImplementation_HashTable8max_sizeEv @6987
    _ZNK43wxImageHistogramBase_wxImplementation_KeyExclERK42wxImageHistogramBase_wxImplementation_Pair @6988
    _ZNK47wxImageHistogramBase_wxImplementation_HashTable8IteratorneERKS0_ @6989
    _ZNK47wxImageHistogramBase_wxImplementation_HashTable8iteratorptEv @6990
    _ZNK4wxDC6GetHDCEv @6991
    _ZNK6wxFile8IsOpenedEv @6992
    _ZNK6wxRect11GetPositionEv @6993
    _ZNK6wxRect4GetXEv @6994
    _ZNK6wxRect4GetYEv @6995
    _ZNK6wxRect7GetSizeEv @6996
    _ZNK6wxRect8ContainsERK7wxPoint @6997
    _ZNK6wxRect8GetWidthEv @6998
    _ZNK6wxRect9GetHeightEv @6999
    _ZNK6wxSize16IsFullySpecifiedEv @7000
    _ZNK6wxSize8GetWidthEv @7001
    _ZNK6wxSize9GetHeightEv @7002
    _ZNK6wxSizeeqERKS_ @7003
    _ZNK6wxSizeneERKS_ @7004
    _ZNK6wxsGUI10GetProjectEv @7005
    _ZNK6wxsGUI12GetClassInfoEv @7006
    _ZNK6wxsGUI7GetNameEv @7007
    _ZNK7wxEvent12GetEventTypeEv @7008
    _ZNK7wxEvent14GetEventObjectEv @7009
    _ZNK7wxEvent14IsCommandEventEv @7010
    _ZNK7wxEvent5GetIdEv @7011
    _ZNK7wxFrame10IsMDIChildEv @7012
    _ZNK7wxImage2OkEv @7013
    _ZNK7wxPointeqERKS_ @7014
    _ZNK7wxSmith13GetEventTableEv @7015
    _ZNK7wxSmith17GetEventHashTableEv @7016
    _ZNK7wxSmith21GetConfigurationGroupEv @7017
    _ZNK7wxSmith34ProjectMapT_wxImplementation_KeyExclERKNS_33ProjectMapT_wxImplementation_PairE @7018
    _ZNK7wxSmith38ProjectMapT_wxImplementation_HashTable10GetNodePtrERKPK9cbProject @7019
    _ZNK7wxSmith38ProjectMapT_wxImplementation_HashTable7GetNodeERKPK9cbProject @7020
    _ZNK7wxSmith38ProjectMapT_wxImplementation_HashTable8IteratoreqERKS1_ @7021
    _ZNK7wxSmith38ProjectMapT_wxImplementation_HashTable8IteratorneERKS1_ @7022
    _ZNK7wxSmith38ProjectMapT_wxImplementation_HashTable8iteratordeEv @7023
    _ZNK7wxSmith38ProjectMapT_wxImplementation_HashTable8iteratorptEv @7024
    _ZNK8cbPlugin10IsAttachedEv @7025
    _ZNK8cbPlugin21GetConfigurationGroupEv @7026
    _ZNK8cbPlugin24GetConfigurationPriorityEv @7027
    _ZNK8cbPlugin7GetTypeEv @7028
    _ZNK8cbPlugin9CanDetachEv @7029
    _ZNK8wxColour2OkEv @7030
    _ZNK8wxColour3RedEv @7031
    _ZNK8wxColour4BlueEv @7032
    _ZNK8wxColour4IsOkEv @7033
    _ZNK8wxColour5AlphaEv @7034
    _ZNK8wxColour5GreenEv @7035
    _ZNK8wxColoureqERKS_ @7036
    _ZNK8wxDCBase13GetTextExtentERK8wxStringPiS3_S3_S3_P6wxFont @7037
    _ZNK8wxDCBase15GetDeviceOriginEPiS0_ @7038
    _ZNK8wxDCBase7GetSizeEv @7039
    _ZNK8wxDCBase8GetPixelEiiP8wxColour @7040
    _ZNK8wxDialog7IsModalEv @7041
    _ZNK8wxPGCell7GetFontEv @7042
    _ZNK8wxPGCell7GetTextEv @7043
    _ZNK8wxPGCell7HasTextEv @7044
    _ZNK8wxPGCell8GetBgColEv @7045
    _ZNK8wxPGCell8GetFgColEv @7046
    _ZNK8wxPGCell9GetBitmapEv @7047
    _ZNK8wxString3LenEv @7048
    _ZNK8wxString4LastEv @7049
    _ZNK8wxString5FirstERKS_ @7050
    _ZNK8wxString6LengthEv @7051
    _ZNK8wxString7GetCharEj @7052
    _ZNK8wxString7IsEmptyEv @7053
    _ZNK8wxStringclEjj @7054
    _ZNK8wxStringcvPKwEv @7055
    _ZNK8wxWindow11HasToolTipsEv @7056
    _ZNK8wxWindow12ContainsHWNDEPv @7057
    _ZNK8wxWindow7GetHWNDEv @7058
    _ZNK8wxWindow8IsFrozenEv @7059
    _ZNK8wxWindow9GetHandleEv @7060
    _ZNK8wxsCoder15CodeChangeArrayixEj @7061
    _ZNK9TiXmlNode10NoChildrenEv @7062
    _ZNK9TiXmlNode5ValueEv @7063
    _ZNK9__gnu_cxx13new_allocatorISt13_Rb_tree_nodeISt4pairIK8wxString13wxArrayStringEEE8max_sizeEv @7064
    _ZNK9wxControl20GetDefaultAttributesEv @7065
    _ZNK9wxPGBrush15GetColourAsLongEv @7066
    _ZNK9wxVariant7GetDataEv @7067
    _ZNK9wxVariant7GetNameEv @7068
    _ZNK9wxVariantcv10wxDateTimeEv @7069
    _ZNK9wxVariantcv8wxStringEv @7070
    _ZNK9wxVariantcvdEv @7071
    _ZNK9wxVariantcvlEv @7072
    _ZNK9wxsAdvQPP13GetEventTableEv @7073
    _ZNK9wxsAdvQPP13wxArrayButtonixEj @7074
    _ZNK9wxsAdvQPP17GetEventHashTableEv @7075
    _ZNK9wxsAdvQPP18wxArrayAdvQPPChildixEj @7076
    _ZNK9wxsParent11wxArrayItem5IndexEP7wxsItemb @7077
    _ZNK9wxsParent11wxArrayItemixEj @7078
    _ZNK9wxsParent12wxArrayExtraixEj @7079
    _ZNKSt8_Rb_treeI8wxStringSt4pairIKS0_13wxArrayStringESt10_Select1stIS4_ESt4lessIS0_ESaIS4_EE13get_allocatorEv @7080
    _ZNKSt8_Rb_treeI8wxStringSt4pairIKS0_13wxArrayStringESt10_Select1stIS4_ESt4lessIS0_ESaIS4_EE21_M_get_Node_allocatorEv @7081
    _ZNKSt8_Rb_treeI8wxStringSt4pairIKS0_13wxArrayStringESt10_Select1stIS4_ESt4lessIS0_ESaIS4_EE7_M_rootEv @7082
    _ZNKSt8_Rb_treeI8wxStringSt4pairIKS0_13wxArrayStringESt10_Select1stIS4_ESt4lessIS0_ESaIS4_EE8_M_beginEv @7083
    _ZNSaISt4pairIK8wxString13wxArrayStringEEC1ISt13_Rb_tree_nodeIS3_EEERKSaIT_E @7084
    _ZNSaISt4pairIK8wxString13wxArrayStringEED1Ev @7085
    _ZNSt18_Rb_tree_node_base10_S_maximumEPS_ @7086
    _ZNSt18_Rb_tree_node_base10_S_minimumEPS_ @7087
    _ZNSt3mapI8wxString13wxArrayStringSt4lessIS0_ESaISt4pairIKS0_S1_EEEaSERKS8_ @7088
    _ZNSt4pairIK8wxString13wxArrayStringEC1ERKS3_ @7089
    _ZNSt4pairIK8wxString13wxArrayStringED1Ev @7090
    _ZNSt8_Rb_treeI8wxStringSt4pairIKS0_13wxArrayStringESt10_Select1stIS4_ESt4lessIS0_ESaIS4_EE10_S_maximumEPSt18_Rb_tree_node_base @7091
    _ZNSt8_Rb_treeI8wxStringSt4pairIKS0_13wxArrayStringESt10_Select1stIS4_ESt4lessIS0_ESaIS4_EE10_S_minimumEPSt18_Rb_tree_node_base @7092
    _ZNSt8_Rb_treeI8wxStringSt4pairIKS0_13wxArrayStringESt10_Select1stIS4_ESt4lessIS0_ESaIS4_EE11_M_get_nodeEv @7093
    _ZNSt8_Rb_treeI8wxStringSt4pairIKS0_13wxArrayStringESt10_Select1stIS4_ESt4lessIS0_ESaIS4_EE11_M_leftmostEv @7094
    _ZNSt8_Rb_treeI8wxStringSt4pairIKS0_13wxArrayStringESt10_Select1stIS4_ESt4lessIS0_ESaIS4_EE11_M_put_nodeEPSt13_Rb_tree_nodeIS4_E @7095
    _ZNSt8_Rb_treeI8wxStringSt4pairIKS0_13wxArrayStringESt10_Select1stIS4_ESt4lessIS0_ESaIS4_EE12_M_rightmostEv @7096
    _ZNSt8_Rb_treeI8wxStringSt4pairIKS0_13wxArrayStringESt10_Select1stIS4_ESt4lessIS0_ESaIS4_EE13_M_clone_nodeEPKSt13_Rb_tree_nodeIS4_E @7097
    _ZNSt8_Rb_treeI8wxStringSt4pairIKS0_13wxArrayStringESt10_Select1stIS4_ESt4lessIS0_ESaIS4_EE14_M_create_nodeERKS4_ @7098
    _ZNSt8_Rb_treeI8wxStringSt4pairIKS0_13wxArrayStringESt10_Select1stIS4_ESt4lessIS0_ESaIS4_EE15_M_destroy_nodeEPSt13_Rb_tree_nodeIS4_E @7099
    _ZNSt8_Rb_treeI8wxStringSt4pairIKS0_13wxArrayStringESt10_Select1stIS4_ESt4lessIS0_ESaIS4_EE5clearEv @7100
    _ZNSt8_Rb_treeI8wxStringSt4pairIKS0_13wxArrayStringESt10_Select1stIS4_ESt4lessIS0_ESaIS4_EE6_M_endEv @7101
    _ZNSt8_Rb_treeI8wxStringSt4pairIKS0_13wxArrayStringESt10_Select1stIS4_ESt4lessIS0_ESaIS4_EE7_M_copyEPKSt13_Rb_tree_nodeIS4_EPSC_ @7102
    _ZNSt8_Rb_treeI8wxStringSt4pairIKS0_13wxArrayStringESt10_Select1stIS4_ESt4lessIS0_ESaIS4_EE7_M_rootEv @7103
    _ZNSt8_Rb_treeI8wxStringSt4pairIKS0_13wxArrayStringESt10_Select1stIS4_ESt4lessIS0_ESaIS4_EE7_S_leftEPKSt18_Rb_tree_node_base @7104
    _ZNSt8_Rb_treeI8wxStringSt4pairIKS0_13wxArrayStringESt10_Select1stIS4_ESt4lessIS0_ESaIS4_EE7_S_leftEPSt18_Rb_tree_node_base @7105
    _ZNSt8_Rb_treeI8wxStringSt4pairIKS0_13wxArrayStringESt10_Select1stIS4_ESt4lessIS0_ESaIS4_EE8_M_beginEv @7106
    _ZNSt8_Rb_treeI8wxStringSt4pairIKS0_13wxArrayStringESt10_Select1stIS4_ESt4lessIS0_ESaIS4_EE8_M_eraseEPSt13_Rb_tree_nodeIS4_E @7107
    _ZNSt8_Rb_treeI8wxStringSt4pairIKS0_13wxArrayStringESt10_Select1stIS4_ESt4lessIS0_ESaIS4_EE8_S_rightEPKSt18_Rb_tree_node_base @7108
    _ZNSt8_Rb_treeI8wxStringSt4pairIKS0_13wxArrayStringESt10_Select1stIS4_ESt4lessIS0_ESaIS4_EE8_S_rightEPSt18_Rb_tree_node_base @7109
    _ZNSt8_Rb_treeI8wxStringSt4pairIKS0_13wxArrayStringESt10_Select1stIS4_ESt4lessIS0_ESaIS4_EEaSERKSA_ @7110
    _ZSt11__addressofISt4pairIK8wxString13wxArrayStringEEPT_RS5_ @7111
    _ZTI10EditorBase @7112 DATA
    _ZTI10NullLogger @7113 DATA
    _ZTI10wxListBase @7114 DATA
    _ZTI10wxPGCanvas @7115 DATA
    _ZTI10wxPGColour @7116 DATA
    _ZTI10wxPGEditor @7117 DATA
    _ZTI10wxTreeCtrl @7118 DATA
    _ZTI10wxsItemRes @7119 DATA
    _ZTI10wxsListBox @7120 DATA
    _ZTI10wxsMenuBar @7121 DATA
    _ZTI10wxsToolBar @7122 DATA
    _ZTI11cbException @7123 DATA
    _ZTI11wxBrushBase @7124 DATA
    _ZTI11wxComboCtrl @7125 DATA
    _ZTI11wxFrameBase @7126 DATA
    _ZTI11wxGDIObject @7127 DATA
    _ZTI11wxSmithMime @7128 DATA
    _ZTI11wxValidator @7129 DATA
    _ZTI11wxsBoxSizer @7130 DATA
    _ZTI11wxsCheckBox @7131 DATA
    _ZTI11wxsComboBox @7132 DATA
    _ZTI11wxsFrameRes @7133 DATA
    _ZTI11wxsGLCanvas @7134 DATA
    _ZTI11wxsListCtrl @7135 DATA
    _ZTI11wxsListView @7136 DATA
    _ZTI11wxsListbook @7137 DATA
    _ZTI11wxsMenuItem @7138 DATA
    _ZTI11wxsNotebook @7139 DATA
    _ZTI11wxsPanelRes @7140 DATA
    _ZTI11wxsProperty @7141 DATA
    _ZTI11wxsRadioBox @7142 DATA
    _ZTI11wxsResource @7143 DATA
    _ZTI11wxsSettings @7144 DATA
    _ZTI11wxsSpinCtrl @7145 DATA
    _ZTI11wxsTextCtrl @7146 DATA
    _ZTI11wxsTreeCtrl @7147 DATA
    _ZTI11wxsTreebook @7148 DATA
    _ZTI12IFunctorBase @7149 DATA
    _ZTI12TiXmlVisitor @7150 DATA
    _ZTI12cbMimePlugin @7151 DATA
    _ZTI12cbToolPlugin @7152 DATA
    _ZTI12wxButtonBase @7153 DATA
    _ZTI12wxClientData @7154 DATA
    _ZTI12wxColourBase @7155 DATA
    _ZTI12wxDataObject @7156 DATA
    _ZTI12wxDialogBase @7157 DATA
    _ZTI12wxEvtHandler @7158 DATA
    _ZTI12wxObjectList @7159 DATA
    _ZTI12wxPGComboBox @7160 DATA
    _ZTI12wxPGProperty @7161 DATA
    _ZTI12wxSliderBase @7162 DATA
    _ZTI12wxSpinButton @7163 DATA
    _ZTI12wxWidgetsGUI @7164 DATA
    _ZTI12wxWidgetsRes @7165 DATA
    _ZTI12wxWindowBase @7166 DATA
    _ZTI12wxWindowList @7167 DATA
    _ZTI12wxsContainer @7168 DATA
    _ZTI12wxsDialogRes @7169 DATA
    _ZTI12wxsDirDialog @7170 DATA
    _ZTI12wxsGridPanel @7171 DATA
    _ZTI12wxsGridSizer @7172 DATA
    _ZTI12wxsImageList @7173 DATA
    _ZTI12wxsScrollBar @7174 DATA
    _ZTI12wxsStaticBox @7175 DATA
    _ZTI12wxsStatusBar @7176 DATA
    _ZTI12wxsStopWatch @7177 DATA
    _ZTI12wxsToolSpace @7178 DATA
    _ZTI13SquirrelError @7179 DATA
    _ZTI13wxControlBase @7180 DATA
    _ZTI13wxDirProperty @7181 DATA
    _ZTI13wxIntProperty @7182 DATA
    _ZTI13wxVariantData @7183 DATA
    _ZTI13wxsChoicebook @7184 DATA
    _ZTI13wxsColourData @7185 DATA
    _ZTI13wxsFileDialog @7186 DATA
    _ZTI13wxsFontDialog @7187 DATA
    _ZTI13wxsGUIFactory @7188 DATA
    _ZTI13wxsHtmlWindow @7189 DATA
    _ZTI13wxsItemEditor @7190 DATA
    _ZTI13wxsMenuEditor @7191 DATA
    _ZTI13wxsSashWindow @7192 DATA
    _ZTI13wxsSearchCtrl @7193 DATA
    _ZTI13wxsSizerExtra @7194 DATA
    _ZTI13wxsSpinButton @7195 DATA
    _ZTI13wxsStaticLine @7196 DATA
    _ZTI13wxsStaticText @7197 DATA
    _ZTI14cbEventFunctorI7wxSmith15CodeBlocksEventE @7198 DATA
    _ZTI14cbWizardPlugin @7199 DATA
    _ZTI14wxBoolProperty @7200 DATA
    _ZTI14wxCheckBoxBase @7201 DATA
    _ZTI14wxCommandEvent @7202 DATA
    _ZTI14wxDateProperty @7203 DATA
    _ZTI14wxDialogHelper @7204 DATA
    _ZTI14wxEnumProperty @7205 DATA
    _ZTI14wxFileProperty @7206 DATA
    _ZTI14wxFontProperty @7207 DATA
    _ZTI14wxMemoryDCBase @7208 DATA
    _ZTI14wxMenuItemList @7209 DATA
    _ZTI14wxPGSpinButton @7210 DATA
    _ZTI14wxPropertyGrid @7211 DATA
    _ZTI14wxScrollHelper @7212 DATA
    _ZTI14wxTreeCtrlBase @7213 DATA
    _ZTI14wxTreeItemData @7214 DATA
    _ZTI14wxUIntProperty @7215 DATA
    _ZTI14wxsAdvQPPChild @7216 DATA
    _ZTI14wxsItemFactory @7217 DATA
    _ZTI14wxsItemResData @7218 DATA
    _ZTI14wxsPrintDialog @7219 DATA
    _ZTI14wxsRadioButton @7220 DATA
    _ZTI14wxsRegisterGUII12wxWidgetsGUIE @7221 DATA
    _ZTI14wxsToolBarItem @7222 DATA
    _ZTI15wxComboCtrlBase @7223 DATA
    _ZTI15wxDirDialogBase @7224 DATA
    _ZTI15wxFlagsProperty @7225 DATA
    _ZTI15wxFloatProperty @7226 DATA
    _ZTI15wxItemContainer @7227 DATA
    _ZTI15wxPGChoiceEntry @7228 DATA
    _ZTI15wxPGChoicesData @7229 DATA
    _ZTI15wxPGCommonValue @7230 DATA
    _ZTI15wxPGMultiButton @7231 DATA
    _ZTI15wxPGVariantData @7232 DATA
    _ZTI15wxScrollBarBase @7233 DATA
    _ZTI15wxStaticBoxBase @7234 DATA
    _ZTI15wxTextValidator @7235 DATA
    _ZTI15wxsBitmapButton @7236 DATA
    _ZTI15wxsBoolProperty @7237 DATA
    _ZTI15wxsCalendarCtrl @7238 DATA
    _ZTI15wxsCheckListBox @7239 DATA
    _ZTI15wxsColourDialog @7240 DATA
    _ZTI15wxsCustomWidget @7241 DATA
    _ZTI15wxsEnumProperty @7242 DATA
    _ZTI15wxsFontProperty @7243 DATA
    _ZTI15wxsImageListDlg @7244 DATA
    _ZTI15wxsLongProperty @7245 DATA
    _ZTI15wxsNewWindowDlg @7246 DATA
    _ZTI15wxsRegisterItemI10wxsListBoxE @7247 DATA
    _ZTI15wxsRegisterItemI10wxsMenuBarE @7248 DATA
    _ZTI15wxsRegisterItemI10wxsToolBarE @7249 DATA
    _ZTI15wxsRegisterItemI11wxsBoxSizerE @7250 DATA
    _ZTI15wxsRegisterItemI11wxsCheckBoxE @7251 DATA
    _ZTI15wxsRegisterItemI11wxsComboBoxE @7252 DATA
    _ZTI15wxsRegisterItemI11wxsGLCanvasE @7253 DATA
    _ZTI15wxsRegisterItemI11wxsListCtrlE @7254 DATA
    _ZTI15wxsRegisterItemI11wxsListViewE @7255 DATA
    _ZTI15wxsRegisterItemI11wxsListbookE @7256 DATA
    _ZTI15wxsRegisterItemI11wxsNotebookE @7257 DATA
    _ZTI15wxsRegisterItemI11wxsRadioBoxE @7258 DATA
    _ZTI15wxsRegisterItemI11wxsSpinCtrlE @7259 DATA
    _ZTI15wxsRegisterItemI11wxsTextCtrlE @7260 DATA
    _ZTI15wxsRegisterItemI11wxsTreeCtrlE @7261 DATA
    _ZTI15wxsRegisterItemI11wxsTreebookE @7262 DATA
    _ZTI15wxsRegisterItemI12wxsDirDialogE @7263 DATA
    _ZTI15wxsRegisterItemI12wxsGridSizerE @7264 DATA
    _ZTI15wxsRegisterItemI12wxsImageListE @7265 DATA
    _ZTI15wxsRegisterItemI12wxsScrollBarE @7266 DATA
    _ZTI15wxsRegisterItemI12wxsStaticBoxE @7267 DATA
    _ZTI15wxsRegisterItemI12wxsStatusBarE @7268 DATA
    _ZTI15wxsRegisterItemI12wxsStopWatchE @7269 DATA
    _ZTI15wxsRegisterItemI13wxsChoicebookE @7270 DATA
    _ZTI15wxsRegisterItemI13wxsFileDialogE @7271 DATA
    _ZTI15wxsRegisterItemI13wxsFontDialogE @7272 DATA
    _ZTI15wxsRegisterItemI13wxsHtmlWindowE @7273 DATA
    _ZTI15wxsRegisterItemI13wxsSashWindowE @7274 DATA
    _ZTI15wxsRegisterItemI13wxsSearchCtrlE @7275 DATA
    _ZTI15wxsRegisterItemI13wxsSpinButtonE @7276 DATA
    _ZTI15wxsRegisterItemI13wxsStaticLineE @7277 DATA
    _ZTI15wxsRegisterItemI13wxsStaticTextE @7278 DATA
    _ZTI15wxsRegisterItemI14wxsPrintDialogE @7279 DATA
    _ZTI15wxsRegisterItemI14wxsRadioButtonE @7280 DATA
    _ZTI15wxsRegisterItemI15wxsBitmapButtonE @7281 DATA
    _ZTI15wxsRegisterItemI15wxsCalendarCtrlE @7282 DATA
    _ZTI15wxsRegisterItemI15wxsCheckListBoxE @7283 DATA
    _ZTI15wxsRegisterItemI15wxsColourDialogE @7284 DATA
    _ZTI15wxsRegisterItemI15wxsCustomWidgetE @7285 DATA
    _ZTI15wxsRegisterItemI15wxsRichTextCtrlE @7286 DATA
    _ZTI15wxsRegisterItemI15wxsStaticBitmapE @7287 DATA
    _ZTI15wxsRegisterItemI15wxsToggleButtonE @7288 DATA
    _ZTI15wxsRegisterItemI16wxsAnimationCtrlE @7289 DATA
    _ZTI15wxsRegisterItemI16wxsDialUpManagerE @7290 DATA
    _ZTI15wxsRegisterItemI16wxsDirPickerCtrlE @7291 DATA
    _ZTI15wxsRegisterItemI16wxsFlexGridSizerE @7292 DATA
    _ZTI15wxsRegisterItemI16wxsHyperlinkCtrlE @7293 DATA
    _ZTI15wxsRegisterItemI16wxsMessageDialogE @7294 DATA
    _ZTI15wxsRegisterItemI17wxsBitmapComboBoxE @7295 DATA
    _ZTI15wxsRegisterItemI17wxsDatePickerCtrlE @7296 DATA
    _ZTI15wxsRegisterItemI17wxsFilePickerCtrlE @7297 DATA
    _ZTI15wxsRegisterItemI17wxsFontPickerCtrlE @7298 DATA
    _ZTI15wxsRegisterItemI17wxsGenericDirCtrlE @7299 DATA
    _ZTI15wxsRegisterItemI17wxsProgressDialogE @7300 DATA
    _ZTI15wxsRegisterItemI17wxsScrolledWindowE @7301 DATA
    _ZTI15wxsRegisterItemI17wxsSplitterWindowE @7302 DATA
    _ZTI15wxsRegisterItemI17wxsStaticBoxSizerE @7303 DATA
    _ZTI15wxsRegisterItemI18wxsPageSetupDialogE @7304 DATA
    _ZTI15wxsRegisterItemI18wxsScrollingDialogE @7305 DATA
    _ZTI15wxsRegisterItemI18wxsTextEntryDialogE @7306 DATA
    _ZTI15wxsRegisterItemI19wxsColourPickerCtrlE @7307 DATA
    _ZTI15wxsRegisterItemI19wxsHtmlEasyPrintingE @7308 DATA
    _ZTI15wxsRegisterItemI19wxsSashLayoutWindowE @7309 DATA
    _ZTI15wxsRegisterItemI20wxsContextHelpButtonE @7310 DATA
    _ZTI15wxsRegisterItemI20wxsFindReplaceDialogE @7311 DATA
    _ZTI15wxsRegisterItemI20wxsMultiChoiceDialogE @7312 DATA
    _ZTI15wxsRegisterItemI20wxsSimpleHtmlListBoxE @7313 DATA
    _ZTI15wxsRegisterItemI21wxsSingleChoiceDialogE @7314 DATA
    _ZTI15wxsRegisterItemI21wxsSymbolPickerDialogE @7315 DATA
    _ZTI15wxsRegisterItemI22wxsPasswordEntryDialogE @7316 DATA
    _ZTI15wxsRegisterItemI23wxsRichTextStyleListBoxE @7317 DATA
    _ZTI15wxsRegisterItemI23wxsStdDialogButtonSizerE @7318 DATA
    _ZTI15wxsRegisterItemI24wxsRichTextStyleListCtrlE @7319 DATA
    _ZTI15wxsRegisterItemI24wxsSingleInstanceCheckerE @7320 DATA
    _ZTI15wxsRegisterItemI25wxsRichTextStyleComboCtrlE @7321 DATA
    _ZTI15wxsRegisterItemI27wxsRichTextFormattingDialogE @7322 DATA
    _ZTI15wxsRegisterItemI31wxsRichTextStyleOrganiserDialogE @7323 DATA
    _ZTI15wxsRegisterItemI7wxsGridE @7324 DATA
    _ZTI15wxsRegisterItemI7wxsMenuE @7325 DATA
    _ZTI15wxsRegisterItemI8wxsFrameE @7326 DATA
    _ZTI15wxsRegisterItemI8wxsGaugeE @7327 DATA
    _ZTI15wxsRegisterItemI8wxsImageE @7328 DATA
    _ZTI15wxsRegisterItemI8wxsPanelE @7329 DATA
    _ZTI15wxsRegisterItemI8wxsTimerE @7330 DATA
    _ZTI15wxsRegisterItemI9wxsButtonE @7331 DATA
    _ZTI15wxsRegisterItemI9wxsChoiceE @7332 DATA
    _ZTI15wxsRegisterItemI9wxsDialogE @7333 DATA
    _ZTI15wxsRegisterItemI9wxsSliderE @7334 DATA
    _ZTI15wxsRegisterItemI9wxsSpacerE @7335 DATA
    _ZTI15wxsResourceTree @7336 DATA
    _ZTI15wxsRichTextCtrl @7337 DATA
    _ZTI15wxsStaticBitmap @7338 DATA
    _ZTI15wxsToggleButton @7339 DATA
    _ZTI16cbCompilerPlugin @7340 DATA
    _ZTI16cbDebuggerPlugin @7341 DATA
    _ZTI16wxColourProperty @7342 DATA
    _ZTI16wxCursorProperty @7343 DATA
    _ZTI16wxCustomProperty @7344 DATA
    _ZTI16wxDataObjectBase @7345 DATA
    _ZTI16wxPGCellRenderer @7346 DATA
    _ZTI16wxPGChoiceEditor @7347 DATA
    _ZTI16wxPGRootProperty @7348 DATA
    _ZTI16wxScrolledWindow @7349 DATA
    _ZTI16wxSimpleCheckBox @7350 DATA
    _ZTI16wxSpinButtonBase @7351 DATA
    _ZTI16wxStaticLineBase @7352 DATA
    _ZTI16wxStaticTextBase @7353 DATA
    _ZTI16wxStringProperty @7354 DATA
    _ZTI16wxTopLevelWindow @7355 DATA
    _ZTI16wxsAnimationCtrl @7356 DATA
    _ZTI16wxsCodeGenerator @7357 DATA
    _ZTI16wxsDeleteItemRes @7358 DATA
    _ZTI16wxsDialUpManager @7359 DATA
    _ZTI16wxsDirPickerCtrl @7360 DATA
    _ZTI16wxsDrawingWindow @7361 DATA
    _ZTI16wxsEmptyProperty @7362 DATA
    _ZTI16wxsFlagsProperty @7363 DATA
    _ZTI16wxsFlexGridSizer @7364 DATA
    _ZTI16wxsFontEditorDlg @7365 DATA
    _ZTI16wxsHyperlinkCtrl @7366 DATA
    _ZTI16wxsImageProperty @7367 DATA
    _ZTI16wxsMessageDialog @7368 DATA
    _ZTI16wxsSizerParentQP @7369 DATA
    _ZTI16wxsStyleProperty @7370 DATA
    _ZTI16wxsToolBarEditor @7371 DATA
    _ZTI17IEventFunctorBaseI15CodeBlocksEventE @7372 DATA
    _ZTI17wxPGVIteratorBase @7373 DATA
    _ZTI17wxScrollingDialog @7374 DATA
    _ZTI17wxStringTokenizer @7375 DATA
    _ZTI17wxsBaseProperties @7376 DATA
    _ZTI17wxsBitmapComboBox @7377 DATA
    _ZTI17wxsColourProperty @7378 DATA
    _ZTI17wxsDatePickerCtrl @7379 DATA
    _ZTI17wxsFilePickerCtrl @7380 DATA
    _ZTI17wxsFontPickerCtrl @7381 DATA
    _ZTI17wxsGenericDirCtrl @7382 DATA
    _ZTI17wxsProgressDialog @7383 DATA
    _ZTI17wxsPropertyStream @7384 DATA
    _ZTI17wxsScrolledWindow @7385 DATA
    _ZTI17wxsSplitterWindow @7386 DATA
    _ZTI17wxsStaticBoxSizer @7387 DATA
    _ZTI17wxsStringProperty @7388 DATA
    _ZTI18wxBaseEnumProperty @7389 DATA
    _ZTI18wxBitmapButtonBase @7390 DATA
    _ZTI18wxDataObjectSimple @7391 DATA
    _ZTI18wxEditEnumProperty @7392 DATA
    _ZTI18wxPGCheckBoxEditor @7393 DATA
    _ZTI18wxPGComboBoxEditor @7394 DATA
    _ZTI18wxPGSpinCtrlEditor @7395 DATA
    _ZTI18wxPGTextCtrlEditor @7396 DATA
    _ZTI18wxPropertyCategory @7397 DATA
    _ZTI18wxPropertyGridPage @7398 DATA
    _ZTI18wxsItemResTreeData @7399 DATA
    _ZTI18wxsPageSetupDialog @7400 DATA
    _ZTI18wxsQuickPropsPanel @7401 DATA
    _ZTI18wxsResourceFactory @7402 DATA
    _ZTI18wxsScrollingDialog @7403 DATA
    _ZTI18wxsTextEntryDialog @7404 DATA
    _ZTI19wxArrayEditorDialog @7405 DATA
    _ZTI19wxImageFileProperty @7406 DATA
    _ZTI19wxPGDefaultRenderer @7407 DATA
    _ZTI19wxPGVariantDataFont @7408 DATA
    _ZTI19wxPGVariantDataSize @7409 DATA
    _ZTI19wxPropertyGridEvent @7410 DATA
    _ZTI19wxPropertyGridState @7411 DATA
    _ZTI19wxTopLevelWindowMSW @7412 DATA
    _ZTI19wxWidgetsResFactory @7413 DATA
    _ZTI19wxsColourPickerCtrl @7414 DATA
    _ZTI19wxsEditEnumProperty @7415 DATA
    _ZTI19wxsHtmlEasyPrinting @7416 DATA
    _ZTI19wxsItemResFunctions @7417 DATA
    _ZTI19wxsSashLayoutWindow @7418 DATA
    _ZTI20cbConfigurationPanel @7419 DATA
    _ZTI20wxDatePickerCtrlBase @7420 DATA
    _ZTI20wxLongStringProperty @7421 DATA
    _ZTI20wxOwnerDrawnComboBox @7422 DATA
    _ZTI20wxPGVariantDataPoint @7423 DATA
    _ZTI20wxTopLevelWindowBase @7424 DATA
    _ZTI20wxsContextHelpButton @7425 DATA
    _ZTI20wxsDimensionProperty @7426 DATA
    _ZTI20wxsFindReplaceDialog @7427 DATA
    _ZTI20wxsFontFaceEditorDlg @7428 DATA
    _ZTI20wxsImageListProperty @7429 DATA
    _ZTI20wxsItemEditorContent @7430 DATA
    _ZTI20wxsItemResDataObject @7431 DATA
    _ZTI20wxsMultiChoiceDialog @7432 DATA
    _ZTI20wxsPropertyContainer @7433 DATA
    _ZTI20wxsSimpleHtmlListBox @7434 DATA
    _ZTI21wxArrayStringProperty @7435 DATA
    _ZTI21wxColourPropertyValue @7436 DATA
    _ZTI21wxHtmlWindowInterface @7437 DATA
    _ZTI21wxMultiChoiceProperty @7438 DATA
    _ZTI21wxPGFileDialogAdapter @7439 DATA
    _ZTI21wxPropertyGridManager @7440 DATA
    _ZTI21wxsBitmapIconProperty @7441 DATA
    _ZTI21wxsScrollingDialogRes @7442 DATA
    _ZTI21wxsSingleChoiceDialog @7443 DATA
    _ZTI21wxsSizerFlagsProperty @7444 DATA
    _ZTI21wxsSymbolPickerDialog @7445 DATA
    _ZTI22cbCodeCompletionPlugin @7446 DATA
    _ZTI22wxSystemColourProperty @7447 DATA
    _ZTI22wxsArrayStringProperty @7448 DATA
    _ZTI22wxsBitmapIconEditorDlg @7449 DATA
    _ZTI22wxsPasswordEntryDialog @7450 DATA
    _ZTI22wxsPropertyGridManager @7451 DATA
    _ZTI22wxsSimpleFontEditorDlg @7452 DATA
    _ZTI23wxPGEditorDialogAdapter @7453 DATA
    _ZTI23wxPGVIteratorBase_State @7454 DATA
    _ZTI23wxPGVariantDataArrayInt @7455 DATA
    _ZTI23wxPGVariantDataLongLong @7456 DATA
    _ZTI23wxPropertyGridInterface @7457 DATA
    _ZTI23wxPropertyGridPopulator @7458 DATA
    _ZTI23wxWidgetsGUIConfigPanel @7459 DATA
    _ZTI23wxsArrayStringEditorDlg @7460 DATA
    _ZTI23wxsCustomEditorProperty @7461 DATA
    _ZTI23wxsPositionSizeProperty @7462 DATA
    _ZTI23wxsResourceTreeItemData @7463 DATA
    _ZTI23wxsRichTextStyleListBox @7464 DATA
    _ZTI23wxsStdDialogButtonSizer @7465 DATA
    _ZTI24wxItemContainerImmutable @7466 DATA
    _ZTI24wxPGDatePickerCtrlEditor @7467 DATA
    _ZTI24wxPGDoubleClickProcessor @7468 DATA
    _ZTI24wxPGVariantDataULongLong @7469 DATA
    _ZTI24wxsRichTextStyleListCtrl @7470 DATA
    _ZTI24wxsSingleInstanceChecker @7471 DATA
    _ZTI24wxsStoringSplitterWindow @7472 DATA
    _ZTI25wxPGChoiceAndButtonEditor @7473 DATA
    _ZTI25wxPGVIteratorBase_Manager @7474 DATA
    _ZTI25wxsRichTextStyleComboCtrl @7475 DATA
    _ZTI26wxNumericPropertyValidator @7476 DATA
    _ZTI26wxWidgetsGUIAppAdoptingDlg @7477 DATA
    _ZTI27wxPGArrayStringEditorDialog @7478 DATA
    _ZTI27wxPGLongStringDialogAdapter @7479 DATA
    _ZTI27wxPGTextCtrlAndButtonEditor @7480 DATA
    _ZTI27wxsArrayStringCheckProperty @7481 DATA
    _ZTI27wxsRichTextFormattingDialog @7482 DATA
    _ZTI28wxsArrayStringCheckEditorDlg @7483 DATA
    _ZTI31wxsRichTextStyleOrganiserDialog @7484 DATA
    _ZTI34wxPGVariantDataColourPropertyValue @7485 DATA
    _ZTI6Logger @7486 DATA
    _ZTI6wxsGUI @7487 DATA
    _ZTI7wxBrush @7488 DATA
    _ZTI7wxEvent @7489 DATA
    _ZTI7wxFrame @7490 DATA
    _ZTI7wxPanel @7491 DATA
    _ZTI7wxSmith @7492 DATA
    _ZTI7wxsGrid @7493 DATA
    _ZTI7wxsItem @7494 DATA
    _ZTI7wxsMenu @7495 DATA
    _ZTI7wxsTool @7496 DATA
    _ZTI8cbPlugin @7497 DATA
    _ZTI8wxButton @7498 DATA
    _ZTI8wxColour @7499 DATA
    _ZTI8wxDialog @7500 DATA
    _ZTI8wxObject @7501 DATA
    _ZTI8wxPGCell @7502 DATA
    _ZTI8wxWindow @7503 DATA
    _ZTI8wxsCoder @7504 DATA
    _ZTI8wxsFrame @7505 DATA
    _ZTI8wxsGauge @7506 DATA
    _ZTI8wxsImage @7507 DATA
    _ZTI8wxsPanel @7508 DATA
    _ZTI8wxsSizer @7509 DATA
    _ZTI8wxsTimer @7510 DATA
    _ZTI9wxControl @7511 DATA
    _ZTI9wxPGBrush @7512 DATA
    _ZTI9wxsAdvQPP @7513 DATA
    _ZTI9wxsButton @7514 DATA
    _ZTI9wxsChoice @7515 DATA
    _ZTI9wxsDialog @7516 DATA
    _ZTI9wxsEditor @7517 DATA
    _ZTI9wxsParent @7518 DATA
    _ZTI9wxsSlider @7519 DATA
    _ZTI9wxsSpacer @7520 DATA
    _ZTI9wxsWidget @7521 DATA
    _ZTIN11wxsResource27wxsResourceRootTreeItemDataE @7522 DATA
    _ZTIN13wxsMenuEditor14MenuItemHolderE @7523 DATA
    _ZTIN16wxsToolBarEditor11ToolBarItemE @7524 DATA
    _ZTIN18ProjectLoaderHooks11HookFunctorI7wxSmithEE @7525 DATA
    _ZTIN18ProjectLoaderHooks15HookFunctorBaseE @7526 DATA
    _ZTS10EditorBase @7527 DATA
    _ZTS10NullLogger @7528 DATA
    _ZTS10wxListBase @7529 DATA
    _ZTS10wxPGCanvas @7530 DATA
    _ZTS10wxPGColour @7531 DATA
    _ZTS10wxPGEditor @7532 DATA
    _ZTS10wxTreeCtrl @7533 DATA
    _ZTS10wxsItemRes @7534 DATA
    _ZTS10wxsListBox @7535 DATA
    _ZTS10wxsMenuBar @7536 DATA
    _ZTS10wxsToolBar @7537 DATA
    _ZTS11cbException @7538 DATA
    _ZTS11wxBrushBase @7539 DATA
    _ZTS11wxComboCtrl @7540 DATA
    _ZTS11wxFrameBase @7541 DATA
    _ZTS11wxGDIObject @7542 DATA
    _ZTS11wxSmithMime @7543 DATA
    _ZTS11wxValidator @7544 DATA
    _ZTS11wxsBoxSizer @7545 DATA
    _ZTS11wxsCheckBox @7546 DATA
    _ZTS11wxsComboBox @7547 DATA
    _ZTS11wxsFrameRes @7548 DATA
    _ZTS11wxsGLCanvas @7549 DATA
    _ZTS11wxsListCtrl @7550 DATA
    _ZTS11wxsListView @7551 DATA
    _ZTS11wxsListbook @7552 DATA
    _ZTS11wxsMenuItem @7553 DATA
    _ZTS11wxsNotebook @7554 DATA
    _ZTS11wxsPanelRes @7555 DATA
    _ZTS11wxsProperty @7556 DATA
    _ZTS11wxsRadioBox @7557 DATA
    _ZTS11wxsResource @7558 DATA
    _ZTS11wxsSettings @7559 DATA
    _ZTS11wxsSpinCtrl @7560 DATA
    _ZTS11wxsTextCtrl @7561 DATA
    _ZTS11wxsTreeCtrl @7562 DATA
    _ZTS11wxsTreebook @7563 DATA
    _ZTS12IFunctorBase @7564 DATA
    _ZTS12TiXmlVisitor @7565 DATA
    _ZTS12cbMimePlugin @7566 DATA
    _ZTS12cbToolPlugin @7567 DATA
    _ZTS12wxButtonBase @7568 DATA
    _ZTS12wxClientData @7569 DATA
    _ZTS12wxColourBase @7570 DATA
    _ZTS12wxDataObject @7571 DATA
    _ZTS12wxDialogBase @7572 DATA
    _ZTS12wxEvtHandler @7573 DATA
    _ZTS12wxObjectList @7574 DATA
    _ZTS12wxPGComboBox @7575 DATA
    _ZTS12wxPGProperty @7576 DATA
    _ZTS12wxSliderBase @7577 DATA
    _ZTS12wxSpinButton @7578 DATA
    _ZTS12wxWidgetsGUI @7579 DATA
    _ZTS12wxWidgetsRes @7580 DATA
    _ZTS12wxWindowBase @7581 DATA
    _ZTS12wxWindowList @7582 DATA
    _ZTS12wxsContainer @7583 DATA
    _ZTS12wxsDialogRes @7584 DATA
    _ZTS12wxsDirDialog @7585 DATA
    _ZTS12wxsGridPanel @7586 DATA
    _ZTS12wxsGridSizer @7587 DATA
    _ZTS12wxsImageList @7588 DATA
    _ZTS12wxsScrollBar @7589 DATA
    _ZTS12wxsStaticBox @7590 DATA
    _ZTS12wxsStatusBar @7591 DATA
    _ZTS12wxsStopWatch @7592 DATA
    _ZTS12wxsToolSpace @7593 DATA
    _ZTS13SquirrelError @7594 DATA
    _ZTS13wxControlBase @7595 DATA
    _ZTS13wxDirProperty @7596 DATA
    _ZTS13wxIntProperty @7597 DATA
    _ZTS13wxVariantData @7598 DATA
    _ZTS13wxsChoicebook @7599 DATA
    _ZTS13wxsColourData @7600 DATA
    _ZTS13wxsFileDialog @7601 DATA
    _ZTS13wxsFontDialog @7602 DATA
    _ZTS13wxsGUIFactory @7603 DATA
    _ZTS13wxsHtmlWindow @7604 DATA
    _ZTS13wxsItemEditor @7605 DATA
    _ZTS13wxsMenuEditor @7606 DATA
    _ZTS13wxsSashWindow @7607 DATA
    _ZTS13wxsSearchCtrl @7608 DATA
    _ZTS13wxsSizerExtra @7609 DATA
    _ZTS13wxsSpinButton @7610 DATA
    _ZTS13wxsStaticLine @7611 DATA
    _ZTS13wxsStaticText @7612 DATA
    _ZTS14cbEventFunctorI7wxSmith15CodeBlocksEventE @7613 DATA
    _ZTS14cbWizardPlugin @7614 DATA
    _ZTS14wxBoolProperty @7615 DATA
    _ZTS14wxCheckBoxBase @7616 DATA
    _ZTS14wxCommandEvent @7617 DATA
    _ZTS14wxDateProperty @7618 DATA
    _ZTS14wxDialogHelper @7619 DATA
    _ZTS14wxEnumProperty @7620 DATA
    _ZTS14wxFileProperty @7621 DATA
    _ZTS14wxFontProperty @7622 DATA
    _ZTS14wxMemoryDCBase @7623 DATA
    _ZTS14wxMenuItemList @7624 DATA
    _ZTS14wxPGSpinButton @7625 DATA
    _ZTS14wxPropertyGrid @7626 DATA
    _ZTS14wxScrollHelper @7627 DATA
    _ZTS14wxTreeCtrlBase @7628 DATA
    _ZTS14wxTreeItemData @7629 DATA
    _ZTS14wxUIntProperty @7630 DATA
    _ZTS14wxsAdvQPPChild @7631 DATA
    _ZTS14wxsItemFactory @7632 DATA
    _ZTS14wxsItemResData @7633 DATA
    _ZTS14wxsPrintDialog @7634 DATA
    _ZTS14wxsRadioButton @7635 DATA
    _ZTS14wxsRegisterGUII12wxWidgetsGUIE @7636 DATA
    _ZTS14wxsToolBarItem @7637 DATA
    _ZTS15wxComboCtrlBase @7638 DATA
    _ZTS15wxDirDialogBase @7639 DATA
    _ZTS15wxFlagsProperty @7640 DATA
    _ZTS15wxFloatProperty @7641 DATA
    _ZTS15wxItemContainer @7642 DATA
    _ZTS15wxPGChoiceEntry @7643 DATA
    _ZTS15wxPGChoicesData @7644 DATA
    _ZTS15wxPGCommonValue @7645 DATA
    _ZTS15wxPGMultiButton @7646 DATA
    _ZTS15wxPGVariantData @7647 DATA
    _ZTS15wxScrollBarBase @7648 DATA
    _ZTS15wxStaticBoxBase @7649 DATA
    _ZTS15wxTextValidator @7650 DATA
    _ZTS15wxsBitmapButton @7651 DATA
    _ZTS15wxsBoolProperty @7652 DATA
    _ZTS15wxsCalendarCtrl @7653 DATA
    _ZTS15wxsCheckListBox @7654 DATA
    _ZTS15wxsColourDialog @7655 DATA
    _ZTS15wxsCustomWidget @7656 DATA
    _ZTS15wxsEnumProperty @7657 DATA
    _ZTS15wxsFontProperty @7658 DATA
    _ZTS15wxsImageListDlg @7659 DATA
    _ZTS15wxsLongProperty @7660 DATA
    _ZTS15wxsNewWindowDlg @7661 DATA
    _ZTS15wxsRegisterItemI10wxsListBoxE @7662 DATA
    _ZTS15wxsRegisterItemI10wxsMenuBarE @7663 DATA
    _ZTS15wxsRegisterItemI10wxsToolBarE @7664 DATA
    _ZTS15wxsRegisterItemI11wxsBoxSizerE @7665 DATA
    _ZTS15wxsRegisterItemI11wxsCheckBoxE @7666 DATA
    _ZTS15wxsRegisterItemI11wxsComboBoxE @7667 DATA
    _ZTS15wxsRegisterItemI11wxsGLCanvasE @7668 DATA
    _ZTS15wxsRegisterItemI11wxsListCtrlE @7669 DATA
    _ZTS15wxsRegisterItemI11wxsListViewE @7670 DATA
    _ZTS15wxsRegisterItemI11wxsListbookE @7671 DATA
    _ZTS15wxsRegisterItemI11wxsNotebookE @7672 DATA
    _ZTS15wxsRegisterItemI11wxsRadioBoxE @7673 DATA
    _ZTS15wxsRegisterItemI11wxsSpinCtrlE @7674 DATA
    _ZTS15wxsRegisterItemI11wxsTextCtrlE @7675 DATA
    _ZTS15wxsRegisterItemI11wxsTreeCtrlE @7676 DATA
    _ZTS15wxsRegisterItemI11wxsTreebookE @7677 DATA
    _ZTS15wxsRegisterItemI12wxsDirDialogE @7678 DATA
    _ZTS15wxsRegisterItemI12wxsGridSizerE @7679 DATA
    _ZTS15wxsRegisterItemI12wxsImageListE @7680 DATA
    _ZTS15wxsRegisterItemI12wxsScrollBarE @7681 DATA
    _ZTS15wxsRegisterItemI12wxsStaticBoxE @7682 DATA
    _ZTS15wxsRegisterItemI12wxsStatusBarE @7683 DATA
    _ZTS15wxsRegisterItemI12wxsStopWatchE @7684 DATA
    _ZTS15wxsRegisterItemI13wxsChoicebookE @7685 DATA
    _ZTS15wxsRegisterItemI13wxsFileDialogE @7686 DATA
    _ZTS15wxsRegisterItemI13wxsFontDialogE @7687 DATA
    _ZTS15wxsRegisterItemI13wxsHtmlWindowE @7688 DATA
    _ZTS15wxsRegisterItemI13wxsSashWindowE @7689 DATA
    _ZTS15wxsRegisterItemI13wxsSearchCtrlE @7690 DATA
    _ZTS15wxsRegisterItemI13wxsSpinButtonE @7691 DATA
    _ZTS15wxsRegisterItemI13wxsStaticLineE @7692 DATA
    _ZTS15wxsRegisterItemI13wxsStaticTextE @7693 DATA
    _ZTS15wxsRegisterItemI14wxsPrintDialogE @7694 DATA
    _ZTS15wxsRegisterItemI14wxsRadioButtonE @7695 DATA
    _ZTS15wxsRegisterItemI15wxsBitmapButtonE @7696 DATA
    _ZTS15wxsRegisterItemI15wxsCalendarCtrlE @7697 DATA
    _ZTS15wxsRegisterItemI15wxsCheckListBoxE @7698 DATA
    _ZTS15wxsRegisterItemI15wxsColourDialogE @7699 DATA
    _ZTS15wxsRegisterItemI15wxsCustomWidgetE @7700 DATA
    _ZTS15wxsRegisterItemI15wxsRichTextCtrlE @7701 DATA
    _ZTS15wxsRegisterItemI15wxsStaticBitmapE @7702 DATA
    _ZTS15wxsRegisterItemI15wxsToggleButtonE @7703 DATA
    _ZTS15wxsRegisterItemI16wxsAnimationCtrlE @7704 DATA
    _ZTS15wxsRegisterItemI16wxsDialUpManagerE @7705 DATA
    _ZTS15wxsRegisterItemI16wxsDirPickerCtrlE @7706 DATA
    _ZTS15wxsRegisterItemI16wxsFlexGridSizerE @7707 DATA
    _ZTS15wxsRegisterItemI16wxsHyperlinkCtrlE @7708 DATA
    _ZTS15wxsRegisterItemI16wxsMessageDialogE @7709 DATA
    _ZTS15wxsRegisterItemI17wxsBitmapComboBoxE @7710 DATA
    _ZTS15wxsRegisterItemI17wxsDatePickerCtrlE @7711 DATA
    _ZTS15wxsRegisterItemI17wxsFilePickerCtrlE @7712 DATA
    _ZTS15wxsRegisterItemI17wxsFontPickerCtrlE @7713 DATA
    _ZTS15wxsRegisterItemI17wxsGenericDirCtrlE @7714 DATA
    _ZTS15wxsRegisterItemI17wxsProgressDialogE @7715 DATA
    _ZTS15wxsRegisterItemI17wxsScrolledWindowE @7716 DATA
    _ZTS15wxsRegisterItemI17wxsSplitterWindowE @7717 DATA
    _ZTS15wxsRegisterItemI17wxsStaticBoxSizerE @7718 DATA
    _ZTS15wxsRegisterItemI18wxsPageSetupDialogE @7719 DATA
    _ZTS15wxsRegisterItemI18wxsScrollingDialogE @7720 DATA
    _ZTS15wxsRegisterItemI18wxsTextEntryDialogE @7721 DATA
    _ZTS15wxsRegisterItemI19wxsColourPickerCtrlE @7722 DATA
    _ZTS15wxsRegisterItemI19wxsHtmlEasyPrintingE @7723 DATA
    _ZTS15wxsRegisterItemI19wxsSashLayoutWindowE @7724 DATA
    _ZTS15wxsRegisterItemI20wxsContextHelpButtonE @7725 DATA
    _ZTS15wxsRegisterItemI20wxsFindReplaceDialogE @7726 DATA
    _ZTS15wxsRegisterItemI20wxsMultiChoiceDialogE @7727 DATA
    _ZTS15wxsRegisterItemI20wxsSimpleHtmlListBoxE @7728 DATA
    _ZTS15wxsRegisterItemI21wxsSingleChoiceDialogE @7729 DATA
    _ZTS15wxsRegisterItemI21wxsSymbolPickerDialogE @7730 DATA
    _ZTS15wxsRegisterItemI22wxsPasswordEntryDialogE @7731 DATA
    _ZTS15wxsRegisterItemI23wxsRichTextStyleListBoxE @7732 DATA
    _ZTS15wxsRegisterItemI23wxsStdDialogButtonSizerE @7733 DATA
    _ZTS15wxsRegisterItemI24wxsRichTextStyleListCtrlE @7734 DATA
    _ZTS15wxsRegisterItemI24wxsSingleInstanceCheckerE @7735 DATA
    _ZTS15wxsRegisterItemI25wxsRichTextStyleComboCtrlE @7736 DATA
    _ZTS15wxsRegisterItemI27wxsRichTextFormattingDialogE @7737 DATA
    _ZTS15wxsRegisterItemI31wxsRichTextStyleOrganiserDialogE @7738 DATA
    _ZTS15wxsRegisterItemI7wxsGridE @7739 DATA
    _ZTS15wxsRegisterItemI7wxsMenuE @7740 DATA
    _ZTS15wxsRegisterItemI8wxsFrameE @7741 DATA
    _ZTS15wxsRegisterItemI8wxsGaugeE @7742 DATA
    _ZTS15wxsRegisterItemI8wxsImageE @7743 DATA
    _ZTS15wxsRegisterItemI8wxsPanelE @7744 DATA
    _ZTS15wxsRegisterItemI8wxsTimerE @7745 DATA
    _ZTS15wxsRegisterItemI9wxsButtonE @7746 DATA
    _ZTS15wxsRegisterItemI9wxsChoiceE @7747 DATA
    _ZTS15wxsRegisterItemI9wxsDialogE @7748 DATA
    _ZTS15wxsRegisterItemI9wxsSliderE @7749 DATA
    _ZTS15wxsRegisterItemI9wxsSpacerE @7750 DATA
    _ZTS15wxsResourceTree @7751 DATA
    _ZTS15wxsRichTextCtrl @7752 DATA
    _ZTS15wxsStaticBitmap @7753 DATA
    _ZTS15wxsToggleButton @7754 DATA
    _ZTS16cbCompilerPlugin @7755 DATA
    _ZTS16cbDebuggerPlugin @7756 DATA
    _ZTS16wxColourProperty @7757 DATA
    _ZTS16wxCursorProperty @7758 DATA
    _ZTS16wxCustomProperty @7759 DATA
    _ZTS16wxDataObjectBase @7760 DATA
    _ZTS16wxPGCellRenderer @7761 DATA
    _ZTS16wxPGChoiceEditor @7762 DATA
    _ZTS16wxPGRootProperty @7763 DATA
    _ZTS16wxScrolledWindow @7764 DATA
    _ZTS16wxSimpleCheckBox @7765 DATA
    _ZTS16wxSpinButtonBase @7766 DATA
    _ZTS16wxStaticLineBase @7767 DATA
    _ZTS16wxStaticTextBase @7768 DATA
    _ZTS16wxStringProperty @7769 DATA
    _ZTS16wxTopLevelWindow @7770 DATA
    _ZTS16wxsAnimationCtrl @7771 DATA
    _ZTS16wxsCodeGenerator @7772 DATA
    _ZTS16wxsDeleteItemRes @7773 DATA
    _ZTS16wxsDialUpManager @7774 DATA
    _ZTS16wxsDirPickerCtrl @7775 DATA
    _ZTS16wxsDrawingWindow @7776 DATA
    _ZTS16wxsEmptyProperty @7777 DATA
    _ZTS16wxsFlagsProperty @7778 DATA
    _ZTS16wxsFlexGridSizer @7779 DATA
    _ZTS16wxsFontEditorDlg @7780 DATA
    _ZTS16wxsHyperlinkCtrl @7781 DATA
    _ZTS16wxsImageProperty @7782 DATA
    _ZTS16wxsMessageDialog @7783 DATA
    _ZTS16wxsSizerParentQP @7784 DATA
    _ZTS16wxsStyleProperty @7785 DATA
    _ZTS16wxsToolBarEditor @7786 DATA
    _ZTS17IEventFunctorBaseI15CodeBlocksEventE @7787 DATA
    _ZTS17wxPGVIteratorBase @7788 DATA
    _ZTS17wxScrollingDialog @7789 DATA
    _ZTS17wxStringTokenizer @7790 DATA
    _ZTS17wxsBaseProperties @7791 DATA
    _ZTS17wxsBitmapComboBox @7792 DATA
    _ZTS17wxsColourProperty @7793 DATA
    _ZTS17wxsDatePickerCtrl @7794 DATA
    _ZTS17wxsFilePickerCtrl @7795 DATA
    _ZTS17wxsFontPickerCtrl @7796 DATA
    _ZTS17wxsGenericDirCtrl @7797 DATA
    _ZTS17wxsProgressDialog @7798 DATA
    _ZTS17wxsPropertyStream @7799 DATA
    _ZTS17wxsScrolledWindow @7800 DATA
    _ZTS17wxsSplitterWindow @7801 DATA
    _ZTS17wxsStaticBoxSizer @7802 DATA
    _ZTS17wxsStringProperty @7803 DATA
    _ZTS18wxBaseEnumProperty @7804 DATA
    _ZTS18wxBitmapButtonBase @7805 DATA
    _ZTS18wxDataObjectSimple @7806 DATA
    _ZTS18wxEditEnumProperty @7807 DATA
    _ZTS18wxPGCheckBoxEditor @7808 DATA
    _ZTS18wxPGComboBoxEditor @7809 DATA
    _ZTS18wxPGSpinCtrlEditor @7810 DATA
    _ZTS18wxPGTextCtrlEditor @7811 DATA
    _ZTS18wxPropertyCategory @7812 DATA
    _ZTS18wxPropertyGridPage @7813 DATA
    _ZTS18wxsItemResTreeData @7814 DATA
    _ZTS18wxsPageSetupDialog @7815 DATA
    _ZTS18wxsQuickPropsPanel @7816 DATA
    _ZTS18wxsResourceFactory @7817 DATA
    _ZTS18wxsScrollingDialog @7818 DATA
    _ZTS18wxsTextEntryDialog @7819 DATA
    _ZTS19wxArrayEditorDialog @7820 DATA
    _ZTS19wxImageFileProperty @7821 DATA
    _ZTS19wxPGDefaultRenderer @7822 DATA
    _ZTS19wxPGVariantDataFont @7823 DATA
    _ZTS19wxPGVariantDataSize @7824 DATA
    _ZTS19wxPropertyGridEvent @7825 DATA
    _ZTS19wxPropertyGridState @7826 DATA
    _ZTS19wxTopLevelWindowMSW @7827 DATA
    _ZTS19wxWidgetsResFactory @7828 DATA
    _ZTS19wxsColourPickerCtrl @7829 DATA
    _ZTS19wxsEditEnumProperty @7830 DATA
    _ZTS19wxsHtmlEasyPrinting @7831 DATA
    _ZTS19wxsItemResFunctions @7832 DATA
    _ZTS19wxsSashLayoutWindow @7833 DATA
    _ZTS20cbConfigurationPanel @7834 DATA
    _ZTS20wxDatePickerCtrlBase @7835 DATA
    _ZTS20wxLongStringProperty @7836 DATA
    _ZTS20wxOwnerDrawnComboBox @7837 DATA
    _ZTS20wxPGVariantDataPoint @7838 DATA
    _ZTS20wxTopLevelWindowBase @7839 DATA
    _ZTS20wxsContextHelpButton @7840 DATA
    _ZTS20wxsDimensionProperty @7841 DATA
    _ZTS20wxsFindReplaceDialog @7842 DATA
    _ZTS20wxsFontFaceEditorDlg @7843 DATA
    _ZTS20wxsImageListProperty @7844 DATA
    _ZTS20wxsItemEditorContent @7845 DATA
    _ZTS20wxsItemResDataObject @7846 DATA
    _ZTS20wxsMultiChoiceDialog @7847 DATA
    _ZTS20wxsPropertyContainer @7848 DATA
    _ZTS20wxsSimpleHtmlListBox @7849 DATA
    _ZTS21wxArrayStringProperty @7850 DATA
    _ZTS21wxColourPropertyValue @7851 DATA
    _ZTS21wxHtmlWindowInterface @7852 DATA
    _ZTS21wxMultiChoiceProperty @7853 DATA
    _ZTS21wxPGFileDialogAdapter @7854 DATA
    _ZTS21wxPropertyGridManager @7855 DATA
    _ZTS21wxsBitmapIconProperty @7856 DATA
    _ZTS21wxsScrollingDialogRes @7857 DATA
    _ZTS21wxsSingleChoiceDialog @7858 DATA
    _ZTS21wxsSizerFlagsProperty @7859 DATA
    _ZTS21wxsSymbolPickerDialog @7860 DATA
    _ZTS22cbCodeCompletionPlugin @7861 DATA
    _ZTS22wxSystemColourProperty @7862 DATA
    _ZTS22wxsArrayStringProperty @7863 DATA
    _ZTS22wxsBitmapIconEditorDlg @7864 DATA
    _ZTS22wxsPasswordEntryDialog @7865 DATA
    _ZTS22wxsPropertyGridManager @7866 DATA
    _ZTS22wxsSimpleFontEditorDlg @7867 DATA
    _ZTS23wxPGEditorDialogAdapter @7868 DATA
    _ZTS23wxPGVIteratorBase_State @7869 DATA
    _ZTS23wxPGVariantDataArrayInt @7870 DATA
    _ZTS23wxPGVariantDataLongLong @7871 DATA
    _ZTS23wxPropertyGridInterface @7872 DATA
    _ZTS23wxPropertyGridPopulator @7873 DATA
    _ZTS23wxWidgetsGUIConfigPanel @7874 DATA
    _ZTS23wxsArrayStringEditorDlg @7875 DATA
    _ZTS23wxsCustomEditorProperty @7876 DATA
    _ZTS23wxsPositionSizeProperty @7877 DATA
    _ZTS23wxsResourceTreeItemData @7878 DATA
    _ZTS23wxsRichTextStyleListBox @7879 DATA
    _ZTS23wxsStdDialogButtonSizer @7880 DATA
    _ZTS24wxItemContainerImmutable @7881 DATA
    _ZTS24wxPGDatePickerCtrlEditor @7882 DATA
    _ZTS24wxPGDoubleClickProcessor @7883 DATA
    _ZTS24wxPGVariantDataULongLong @7884 DATA
    _ZTS24wxsRichTextStyleListCtrl @7885 DATA
    _ZTS24wxsSingleInstanceChecker @7886 DATA
    _ZTS24wxsStoringSplitterWindow @7887 DATA
    _ZTS25wxPGChoiceAndButtonEditor @7888 DATA
    _ZTS25wxPGVIteratorBase_Manager @7889 DATA
    _ZTS25wxsRichTextStyleComboCtrl @7890 DATA
    _ZTS26wxNumericPropertyValidator @7891 DATA
    _ZTS26wxWidgetsGUIAppAdoptingDlg @7892 DATA
    _ZTS27wxPGArrayStringEditorDialog @7893 DATA
    _ZTS27wxPGLongStringDialogAdapter @7894 DATA
    _ZTS27wxPGTextCtrlAndButtonEditor @7895 DATA
    _ZTS27wxsArrayStringCheckProperty @7896 DATA
    _ZTS27wxsRichTextFormattingDialog @7897 DATA
    _ZTS28wxsArrayStringCheckEditorDlg @7898 DATA
    _ZTS31wxsRichTextStyleOrganiserDialog @7899 DATA
    _ZTS34wxPGVariantDataColourPropertyValue @7900 DATA
    _ZTS6Logger @7901 DATA
    _ZTS6wxsGUI @7902 DATA
    _ZTS7wxBrush @7903 DATA
    _ZTS7wxEvent @7904 DATA
    _ZTS7wxFrame @7905 DATA
    _ZTS7wxPanel @7906 DATA
    _ZTS7wxSmith @7907 DATA
    _ZTS7wxsGrid @7908 DATA
    _ZTS7wxsItem @7909 DATA
    _ZTS7wxsMenu @7910 DATA
    _ZTS7wxsTool @7911 DATA
    _ZTS8cbPlugin @7912 DATA
    _ZTS8wxButton @7913 DATA
    _ZTS8wxColour @7914 DATA
    _ZTS8wxDialog @7915 DATA
    _ZTS8wxObject @7916 DATA
    _ZTS8wxPGCell @7917 DATA
    _ZTS8wxWindow @7918 DATA
    _ZTS8wxsCoder @7919 DATA
    _ZTS8wxsFrame @7920 DATA
    _ZTS8wxsGauge @7921 DATA
    _ZTS8wxsImage @7922 DATA
    _ZTS8wxsPanel @7923 DATA
    _ZTS8wxsSizer @7924 DATA
    _ZTS8wxsTimer @7925 DATA
    _ZTS9wxControl @7926 DATA
    _ZTS9wxPGBrush @7927 DATA
    _ZTS9wxsAdvQPP @7928 DATA
    _ZTS9wxsButton @7929 DATA
    _ZTS9wxsChoice @7930 DATA
    _ZTS9wxsDialog @7931 DATA
    _ZTS9wxsEditor @7932 DATA
    _ZTS9wxsParent @7933 DATA
    _ZTS9wxsSlider @7934 DATA
    _ZTS9wxsSpacer @7935 DATA
    _ZTS9wxsWidget @7936 DATA
    _ZTSN11wxsResource27wxsResourceRootTreeItemDataE @7937 DATA
    _ZTSN13wxsMenuEditor14MenuItemHolderE @7938 DATA
    _ZTSN16wxsToolBarEditor11ToolBarItemE @7939 DATA
    _ZTSN18ProjectLoaderHooks11HookFunctorI7wxSmithEE @7940 DATA
    _ZTSN18ProjectLoaderHooks15HookFunctorBaseE @7941 DATA
    _ZTV10wxPGCanvas @7942 DATA
    _ZTV10wxPGColour @7943 DATA
    _ZTV10wxPGEditor @7944 DATA
    _ZTV10wxsItemRes @7945 DATA
    _ZTV10wxsListBox @7946 DATA
    _ZTV10wxsMenuBar @7947 DATA
    _ZTV10wxsToolBar @7948 DATA
    _ZTV11wxSmithMime @7949 DATA
    _ZTV11wxsBoxSizer @7950 DATA
    _ZTV11wxsCheckBox @7951 DATA
    _ZTV11wxsComboBox @7952 DATA
    _ZTV11wxsFrameRes @7953 DATA
    _ZTV11wxsGLCanvas @7954 DATA
    _ZTV11wxsListCtrl @7955 DATA
    _ZTV11wxsListView @7956 DATA
    _ZTV11wxsListbook @7957 DATA
    _ZTV11wxsMenuItem @7958 DATA
    _ZTV11wxsNotebook @7959 DATA
    _ZTV11wxsPanelRes @7960 DATA
    _ZTV11wxsProperty @7961 DATA
    _ZTV11wxsRadioBox @7962 DATA
    _ZTV11wxsResource @7963 DATA
    _ZTV11wxsSettings @7964 DATA
    _ZTV11wxsSpinCtrl @7965 DATA
    _ZTV11wxsTextCtrl @7966 DATA
    _ZTV11wxsTreeCtrl @7967 DATA
    _ZTV11wxsTreebook @7968 DATA
    _ZTV12IFunctorBase @7969 DATA
    _ZTV12TiXmlVisitor @7970 DATA
    _ZTV12cbMimePlugin @7971 DATA
    _ZTV12cbToolPlugin @7972 DATA
    _ZTV12wxPGComboBox @7973 DATA
    _ZTV12wxPGProperty @7974 DATA
    _ZTV12wxWidgetsGUI @7975 DATA
    _ZTV12wxWidgetsRes @7976 DATA
    _ZTV12wxsContainer @7977 DATA
    _ZTV12wxsDialogRes @7978 DATA
    _ZTV12wxsDirDialog @7979 DATA
    _ZTV12wxsGridPanel @7980 DATA
    _ZTV12wxsGridSizer @7981 DATA
    _ZTV12wxsImageList @7982 DATA
    _ZTV12wxsScrollBar @7983 DATA
    _ZTV12wxsStaticBox @7984 DATA
    _ZTV12wxsStatusBar @7985 DATA
    _ZTV12wxsStopWatch @7986 DATA
    _ZTV12wxsToolSpace @7987 DATA
    _ZTV13wxDirProperty @7988 DATA
    _ZTV13wxIntProperty @7989 DATA
    _ZTV13wxsChoicebook @7990 DATA
    _ZTV13wxsColourData @7991 DATA
    _ZTV13wxsFileDialog @7992 DATA
    _ZTV13wxsFontDialog @7993 DATA
    _ZTV13wxsGUIFactory @7994 DATA
    _ZTV13wxsHtmlWindow @7995 DATA
    _ZTV13wxsItemEditor @7996 DATA
    _ZTV13wxsMenuEditor @7997 DATA
    _ZTV13wxsSashWindow @7998 DATA
    _ZTV13wxsSearchCtrl @7999 DATA
    _ZTV13wxsSizerExtra @8000 DATA
    _ZTV13wxsSpinButton @8001 DATA
    _ZTV13wxsStaticLine @8002 DATA
    _ZTV13wxsStaticText @8003 DATA
    _ZTV14cbEventFunctorI7wxSmith15CodeBlocksEventE @8004 DATA
    _ZTV14cbWizardPlugin @8005 DATA
    _ZTV14wxBoolProperty @8006 DATA
    _ZTV14wxDateProperty @8007 DATA
    _ZTV14wxEnumProperty @8008 DATA
    _ZTV14wxFileProperty @8009 DATA
    _ZTV14wxFontProperty @8010 DATA
    _ZTV14wxPGSpinButton @8011 DATA
    _ZTV14wxPropertyGrid @8012 DATA
    _ZTV14wxUIntProperty @8013 DATA
    _ZTV14wxsAdvQPPChild @8014 DATA
    _ZTV14wxsItemFactory @8015 DATA
    _ZTV14wxsItemResData @8016 DATA
    _ZTV14wxsPrintDialog @8017 DATA
    _ZTV14wxsRadioButton @8018 DATA
    _ZTV14wxsRegisterGUII12wxWidgetsGUIE @8019 DATA
    _ZTV14wxsToolBarItem @8020 DATA
    _ZTV15wxFlagsProperty @8021 DATA
    _ZTV15wxFloatProperty @8022 DATA
    _ZTV15wxPGChoiceEntry @8023 DATA
    _ZTV15wxPGChoicesData @8024 DATA
    _ZTV15wxPGCommonValue @8025 DATA
    _ZTV15wxPGMultiButton @8026 DATA
    _ZTV15wxPGVariantData @8027 DATA
    _ZTV15wxsBitmapButton @8028 DATA
    _ZTV15wxsBoolProperty @8029 DATA
    _ZTV15wxsCalendarCtrl @8030 DATA
    _ZTV15wxsCheckListBox @8031 DATA
    _ZTV15wxsColourDialog @8032 DATA
    _ZTV15wxsCustomWidget @8033 DATA
    _ZTV15wxsEnumProperty @8034 DATA
    _ZTV15wxsFontProperty @8035 DATA
    _ZTV15wxsImageListDlg @8036 DATA
    _ZTV15wxsLongProperty @8037 DATA
    _ZTV15wxsNewWindowDlg @8038 DATA
    _ZTV15wxsRegisterItemI10wxsListBoxE @8039 DATA
    _ZTV15wxsRegisterItemI10wxsMenuBarE @8040 DATA
    _ZTV15wxsRegisterItemI10wxsToolBarE @8041 DATA
    _ZTV15wxsRegisterItemI11wxsBoxSizerE @8042 DATA
    _ZTV15wxsRegisterItemI11wxsCheckBoxE @8043 DATA
    _ZTV15wxsRegisterItemI11wxsComboBoxE @8044 DATA
    _ZTV15wxsRegisterItemI11wxsGLCanvasE @8045 DATA
    _ZTV15wxsRegisterItemI11wxsListCtrlE @8046 DATA
    _ZTV15wxsRegisterItemI11wxsListViewE @8047 DATA
    _ZTV15wxsRegisterItemI11wxsListbookE @8048 DATA
    _ZTV15wxsRegisterItemI11wxsNotebookE @8049 DATA
    _ZTV15wxsRegisterItemI11wxsRadioBoxE @8050 DATA
    _ZTV15wxsRegisterItemI11wxsSpinCtrlE @8051 DATA
    _ZTV15wxsRegisterItemI11wxsTextCtrlE @8052 DATA
    _ZTV15wxsRegisterItemI11wxsTreeCtrlE @8053 DATA
    _ZTV15wxsRegisterItemI11wxsTreebookE @8054 DATA
    _ZTV15wxsRegisterItemI12wxsDirDialogE @8055 DATA
    _ZTV15wxsRegisterItemI12wxsGridSizerE @8056 DATA
    _ZTV15wxsRegisterItemI12wxsImageListE @8057 DATA
    _ZTV15wxsRegisterItemI12wxsScrollBarE @8058 DATA
    _ZTV15wxsRegisterItemI12wxsStaticBoxE @8059 DATA
    _ZTV15wxsRegisterItemI12wxsStatusBarE @8060 DATA
    _ZTV15wxsRegisterItemI12wxsStopWatchE @8061 DATA
    _ZTV15wxsRegisterItemI13wxsChoicebookE @8062 DATA
    _ZTV15wxsRegisterItemI13wxsFileDialogE @8063 DATA
    _ZTV15wxsRegisterItemI13wxsFontDialogE @8064 DATA
    _ZTV15wxsRegisterItemI13wxsHtmlWindowE @8065 DATA
    _ZTV15wxsRegisterItemI13wxsSashWindowE @8066 DATA
    _ZTV15wxsRegisterItemI13wxsSearchCtrlE @8067 DATA
    _ZTV15wxsRegisterItemI13wxsSpinButtonE @8068 DATA
    _ZTV15wxsRegisterItemI13wxsStaticLineE @8069 DATA
    _ZTV15wxsRegisterItemI13wxsStaticTextE @8070 DATA
    _ZTV15wxsRegisterItemI14wxsPrintDialogE @8071 DATA
    _ZTV15wxsRegisterItemI14wxsRadioButtonE @8072 DATA
    _ZTV15wxsRegisterItemI15wxsBitmapButtonE @8073 DATA
    _ZTV15wxsRegisterItemI15wxsCalendarCtrlE @8074 DATA
    _ZTV15wxsRegisterItemI15wxsCheckListBoxE @8075 DATA
    _ZTV15wxsRegisterItemI15wxsColourDialogE @8076 DATA
    _ZTV15wxsRegisterItemI15wxsCustomWidgetE @8077 DATA
    _ZTV15wxsRegisterItemI15wxsRichTextCtrlE @8078 DATA
    _ZTV15wxsRegisterItemI15wxsStaticBitmapE @8079 DATA
    _ZTV15wxsRegisterItemI15wxsToggleButtonE @8080 DATA
    _ZTV15wxsRegisterItemI16wxsAnimationCtrlE @8081 DATA
    _ZTV15wxsRegisterItemI16wxsDialUpManagerE @8082 DATA
    _ZTV15wxsRegisterItemI16wxsDirPickerCtrlE @8083 DATA
    _ZTV15wxsRegisterItemI16wxsFlexGridSizerE @8084 DATA
    _ZTV15wxsRegisterItemI16wxsHyperlinkCtrlE @8085 DATA
    _ZTV15wxsRegisterItemI16wxsMessageDialogE @8086 DATA
    _ZTV15wxsRegisterItemI17wxsBitmapComboBoxE @8087 DATA
    _ZTV15wxsRegisterItemI17wxsDatePickerCtrlE @8088 DATA
    _ZTV15wxsRegisterItemI17wxsFilePickerCtrlE @8089 DATA
    _ZTV15wxsRegisterItemI17wxsFontPickerCtrlE @8090 DATA
    _ZTV15wxsRegisterItemI17wxsGenericDirCtrlE @8091 DATA
    _ZTV15wxsRegisterItemI17wxsProgressDialogE @8092 DATA
    _ZTV15wxsRegisterItemI17wxsScrolledWindowE @8093 DATA
    _ZTV15wxsRegisterItemI17wxsSplitterWindowE @8094 DATA
    _ZTV15wxsRegisterItemI17wxsStaticBoxSizerE @8095 DATA
    _ZTV15wxsRegisterItemI18wxsPageSetupDialogE @8096 DATA
    _ZTV15wxsRegisterItemI18wxsScrollingDialogE @8097 DATA
    _ZTV15wxsRegisterItemI18wxsTextEntryDialogE @8098 DATA
    _ZTV15wxsRegisterItemI19wxsColourPickerCtrlE @8099 DATA
    _ZTV15wxsRegisterItemI19wxsHtmlEasyPrintingE @8100 DATA
    _ZTV15wxsRegisterItemI19wxsSashLayoutWindowE @8101 DATA
    _ZTV15wxsRegisterItemI20wxsContextHelpButtonE @8102 DATA
    _ZTV15wxsRegisterItemI20wxsFindReplaceDialogE @8103 DATA
    _ZTV15wxsRegisterItemI20wxsMultiChoiceDialogE @8104 DATA
    _ZTV15wxsRegisterItemI20wxsSimpleHtmlListBoxE @8105 DATA
    _ZTV15wxsRegisterItemI21wxsSingleChoiceDialogE @8106 DATA
    _ZTV15wxsRegisterItemI21wxsSymbolPickerDialogE @8107 DATA
    _ZTV15wxsRegisterItemI22wxsPasswordEntryDialogE @8108 DATA
    _ZTV15wxsRegisterItemI23wxsRichTextStyleListBoxE @8109 DATA
    _ZTV15wxsRegisterItemI23wxsStdDialogButtonSizerE @8110 DATA
    _ZTV15wxsRegisterItemI24wxsRichTextStyleListCtrlE @8111 DATA
    _ZTV15wxsRegisterItemI24wxsSingleInstanceCheckerE @8112 DATA
    _ZTV15wxsRegisterItemI25wxsRichTextStyleComboCtrlE @8113 DATA
    _ZTV15wxsRegisterItemI27wxsRichTextFormattingDialogE @8114 DATA
    _ZTV15wxsRegisterItemI31wxsRichTextStyleOrganiserDialogE @8115 DATA
    _ZTV15wxsRegisterItemI7wxsGridE @8116 DATA
    _ZTV15wxsRegisterItemI7wxsMenuE @8117 DATA
    _ZTV15wxsRegisterItemI8wxsFrameE @8118 DATA
    _ZTV15wxsRegisterItemI8wxsGaugeE @8119 DATA
    _ZTV15wxsRegisterItemI8wxsImageE @8120 DATA
    _ZTV15wxsRegisterItemI8wxsPanelE @8121 DATA
    _ZTV15wxsRegisterItemI8wxsTimerE @8122 DATA
    _ZTV15wxsRegisterItemI9wxsButtonE @8123 DATA
    _ZTV15wxsRegisterItemI9wxsChoiceE @8124 DATA
    _ZTV15wxsRegisterItemI9wxsDialogE @8125 DATA
    _ZTV15wxsRegisterItemI9wxsSliderE @8126 DATA
    _ZTV15wxsRegisterItemI9wxsSpacerE @8127 DATA
    _ZTV15wxsResourceTree @8128 DATA
    _ZTV15wxsRichTextCtrl @8129 DATA
    _ZTV15wxsStaticBitmap @8130 DATA
    _ZTV15wxsToggleButton @8131 DATA
    _ZTV16cbCompilerPlugin @8132 DATA
    _ZTV16cbDebuggerPlugin @8133 DATA
    _ZTV16wxColourProperty @8134 DATA
    _ZTV16wxCursorProperty @8135 DATA
    _ZTV16wxCustomProperty @8136 DATA
    _ZTV16wxPGCellRenderer @8137 DATA
    _ZTV16wxPGChoiceEditor @8138 DATA
    _ZTV16wxPGRootProperty @8139 DATA
    _ZTV16wxSimpleCheckBox @8140 DATA
    _ZTV16wxStringProperty @8141 DATA
    _ZTV16wxsAnimationCtrl @8142 DATA
    _ZTV16wxsCodeGenerator @8143 DATA
    _ZTV16wxsDeleteItemRes @8144 DATA
    _ZTV16wxsDialUpManager @8145 DATA
    _ZTV16wxsDirPickerCtrl @8146 DATA
    _ZTV16wxsDrawingWindow @8147 DATA
    _ZTV16wxsEmptyProperty @8148 DATA
    _ZTV16wxsFlagsProperty @8149 DATA
    _ZTV16wxsFlexGridSizer @8150 DATA
    _ZTV16wxsFontEditorDlg @8151 DATA
    _ZTV16wxsHyperlinkCtrl @8152 DATA
    _ZTV16wxsImageProperty @8153 DATA
    _ZTV16wxsMessageDialog @8154 DATA
    _ZTV16wxsSizerParentQP @8155 DATA
    _ZTV16wxsStyleProperty @8156 DATA
    _ZTV16wxsToolBarEditor @8157 DATA
    _ZTV17IEventFunctorBaseI15CodeBlocksEventE @8158 DATA
    _ZTV17wxPGVIteratorBase @8159 DATA
    _ZTV17wxsBaseProperties @8160 DATA
    _ZTV17wxsBitmapComboBox @8161 DATA
    _ZTV17wxsColourProperty @8162 DATA
    _ZTV17wxsDatePickerCtrl @8163 DATA
    _ZTV17wxsFilePickerCtrl @8164 DATA
    _ZTV17wxsFontPickerCtrl @8165 DATA
    _ZTV17wxsGenericDirCtrl @8166 DATA
    _ZTV17wxsProgressDialog @8167 DATA
    _ZTV17wxsPropertyStream @8168 DATA
    _ZTV17wxsScrolledWindow @8169 DATA
    _ZTV17wxsSplitterWindow @8170 DATA
    _ZTV17wxsStaticBoxSizer @8171 DATA
    _ZTV17wxsStringProperty @8172 DATA
    _ZTV18wxBaseEnumProperty @8173 DATA
    _ZTV18wxEditEnumProperty @8174 DATA
    _ZTV18wxPGCheckBoxEditor @8175 DATA
    _ZTV18wxPGComboBoxEditor @8176 DATA
    _ZTV18wxPGSpinCtrlEditor @8177 DATA
    _ZTV18wxPGTextCtrlEditor @8178 DATA
    _ZTV18wxPropertyCategory @8179 DATA
    _ZTV18wxPropertyGridPage @8180 DATA
    _ZTV18wxsItemResTreeData @8181 DATA
    _ZTV18wxsPageSetupDialog @8182 DATA
    _ZTV18wxsQuickPropsPanel @8183 DATA
    _ZTV18wxsResourceFactory @8184 DATA
    _ZTV18wxsScrollingDialog @8185 DATA
    _ZTV18wxsTextEntryDialog @8186 DATA
    _ZTV19wxArrayEditorDialog @8187 DATA
    _ZTV19wxImageFileProperty @8188 DATA
    _ZTV19wxPGDefaultRenderer @8189 DATA
    _ZTV19wxPGVariantDataFont @8190 DATA
    _ZTV19wxPGVariantDataSize @8191 DATA
    _ZTV19wxPropertyGridEvent @8192 DATA
    _ZTV19wxPropertyGridState @8193 DATA
    _ZTV19wxWidgetsResFactory @8194 DATA
    _ZTV19wxsColourPickerCtrl @8195 DATA
    _ZTV19wxsEditEnumProperty @8196 DATA
    _ZTV19wxsHtmlEasyPrinting @8197 DATA
    _ZTV19wxsItemResFunctions @8198 DATA
    _ZTV19wxsSashLayoutWindow @8199 DATA
    _ZTV20wxLongStringProperty @8200 DATA
    _ZTV20wxPGVariantDataPoint @8201 DATA
    _ZTV20wxsContextHelpButton @8202 DATA
    _ZTV20wxsDimensionProperty @8203 DATA
    _ZTV20wxsFindReplaceDialog @8204 DATA
    _ZTV20wxsFontFaceEditorDlg @8205 DATA
    _ZTV20wxsImageListProperty @8206 DATA
    _ZTV20wxsItemEditorContent @8207 DATA
    _ZTV20wxsItemResDataObject @8208 DATA
    _ZTV20wxsMultiChoiceDialog @8209 DATA
    _ZTV20wxsPropertyContainer @8210 DATA
    _ZTV20wxsSimpleHtmlListBox @8211 DATA
    _ZTV21wxArrayStringProperty @8212 DATA
    _ZTV21wxColourPropertyValue @8213 DATA
    _ZTV21wxMultiChoiceProperty @8214 DATA
    _ZTV21wxPGFileDialogAdapter @8215 DATA
    _ZTV21wxPropertyGridManager @8216 DATA
    _ZTV21wxsBitmapIconProperty @8217 DATA
    _ZTV21wxsScrollingDialogRes @8218 DATA
    _ZTV21wxsSingleChoiceDialog @8219 DATA
    _ZTV21wxsSizerFlagsProperty @8220 DATA
    _ZTV21wxsSymbolPickerDialog @8221 DATA
    _ZTV22cbCodeCompletionPlugin @8222 DATA
    _ZTV22wxSystemColourProperty @8223 DATA
    _ZTV22wxsArrayStringProperty @8224 DATA
    _ZTV22wxsBitmapIconEditorDlg @8225 DATA
    _ZTV22wxsPasswordEntryDialog @8226 DATA
    _ZTV22wxsPropertyGridManager @8227 DATA
    _ZTV22wxsSimpleFontEditorDlg @8228 DATA
    _ZTV23wxPGEditorDialogAdapter @8229 DATA
    _ZTV23wxPGVIteratorBase_State @8230 DATA
    _ZTV23wxPGVariantDataArrayInt @8231 DATA
    _ZTV23wxPGVariantDataLongLong @8232 DATA
    _ZTV23wxPropertyGridInterface @8233 DATA
    _ZTV23wxPropertyGridPopulator @8234 DATA
    _ZTV23wxWidgetsGUIConfigPanel @8235 DATA
    _ZTV23wxsArrayStringEditorDlg @8236 DATA
    _ZTV23wxsCustomEditorProperty @8237 DATA
    _ZTV23wxsPositionSizeProperty @8238 DATA
    _ZTV23wxsResourceTreeItemData @8239 DATA
    _ZTV23wxsRichTextStyleListBox @8240 DATA
    _ZTV23wxsStdDialogButtonSizer @8241 DATA
    _ZTV24wxPGDatePickerCtrlEditor @8242 DATA
    _ZTV24wxPGDoubleClickProcessor @8243 DATA
    _ZTV24wxPGVariantDataULongLong @8244 DATA
    _ZTV24wxsRichTextStyleListCtrl @8245 DATA
    _ZTV24wxsSingleInstanceChecker @8246 DATA
    _ZTV24wxsStoringSplitterWindow @8247 DATA
    _ZTV25wxPGChoiceAndButtonEditor @8248 DATA
    _ZTV25wxPGVIteratorBase_Manager @8249 DATA
    _ZTV25wxsRichTextStyleComboCtrl @8250 DATA
    _ZTV26wxNumericPropertyValidator @8251 DATA
    _ZTV26wxWidgetsGUIAppAdoptingDlg @8252 DATA
    _ZTV27wxPGArrayStringEditorDialog @8253 DATA
    _ZTV27wxPGLongStringDialogAdapter @8254 DATA
    _ZTV27wxPGTextCtrlAndButtonEditor @8255 DATA
    _ZTV27wxsArrayStringCheckProperty @8256 DATA
    _ZTV27wxsRichTextFormattingDialog @8257 DATA
    _ZTV28wxsArrayStringCheckEditorDlg @8258 DATA
    _ZTV31wxsRichTextStyleOrganiserDialog @8259 DATA
    _ZTV34wxPGVariantDataColourPropertyValue @8260 DATA
    _ZTV6wxsGUI @8261 DATA
    _ZTV7wxSmith @8262 DATA
    _ZTV7wxsGrid @8263 DATA
    _ZTV7wxsItem @8264 DATA
    _ZTV7wxsMenu @8265 DATA
    _ZTV7wxsTool @8266 DATA
    _ZTV8wxPGCell @8267 DATA
    _ZTV8wxsCoder @8268 DATA
    _ZTV8wxsFrame @8269 DATA
    _ZTV8wxsGauge @8270 DATA
    _ZTV8wxsImage @8271 DATA
    _ZTV8wxsPanel @8272 DATA
    _ZTV8wxsSizer @8273 DATA
    _ZTV8wxsTimer @8274 DATA
    _ZTV9wxPGBrush @8275 DATA
    _ZTV9wxsAdvQPP @8276 DATA
    _ZTV9wxsButton @8277 DATA
    _ZTV9wxsChoice @8278 DATA
    _ZTV9wxsDialog @8279 DATA
    _ZTV9wxsEditor @8280 DATA
    _ZTV9wxsParent @8281 DATA
    _ZTV9wxsSlider @8282 DATA
    _ZTV9wxsSpacer @8283 DATA
    _ZTV9wxsWidget @8284 DATA
    _ZTVN11wxsResource27wxsResourceRootTreeItemDataE @8285 DATA
    _ZTVN13wxsMenuEditor14MenuItemHolderE @8286 DATA
    _ZTVN16wxsToolBarEditor11ToolBarItemE @8287 DATA
    _ZTVN18ProjectLoaderHooks11HookFunctorI7wxSmithEE @8288 DATA
    _ZThn12_N10wxsListBox19OnBuildCreatingCodeEv @8289
    _ZThn12_N10wxsListBoxD0Ev @8290
    _ZThn12_N10wxsListBoxD1Ev @8291
    _ZThn12_N10wxsMenuBar19OnBuildCreatingCodeEv @8292
    _ZThn12_N10wxsMenuBarD0Ev @8293
    _ZThn12_N10wxsMenuBarD1Ev @8294
    _ZThn12_N10wxsToolBar19OnBuildCreatingCodeEv @8295
    _ZThn12_N10wxsToolBarD0Ev @8296
    _ZThn12_N10wxsToolBarD1Ev @8297
    _ZThn12_N11wxsBoxSizerD0Ev @8298
    _ZThn12_N11wxsBoxSizerD1Ev @8299
    _ZThn12_N11wxsCheckBox19OnBuildCreatingCodeEv @8300
    _ZThn12_N11wxsCheckBoxD0Ev @8301
    _ZThn12_N11wxsCheckBoxD1Ev @8302
    _ZThn12_N11wxsComboBox19OnBuildCreatingCodeEv @8303
    _ZThn12_N11wxsComboBoxD0Ev @8304
    _ZThn12_N11wxsComboBoxD1Ev @8305
    _ZThn12_N11wxsGLCanvas19OnBuildCreatingCodeEv @8306
    _ZThn12_N11wxsGLCanvasD0Ev @8307
    _ZThn12_N11wxsGLCanvasD1Ev @8308
    _ZThn12_N11wxsListCtrl19OnBuildCreatingCodeEv @8309
    _ZThn12_N11wxsListCtrlD0Ev @8310
    _ZThn12_N11wxsListCtrlD1Ev @8311
    _ZThn12_N11wxsListView19OnBuildCreatingCodeEv @8312
    _ZThn12_N11wxsListViewD0Ev @8313
    _ZThn12_N11wxsListViewD1Ev @8314
    _ZThn12_N11wxsListbook19OnBuildCreatingCodeEv @8315
    _ZThn12_N11wxsListbookD0Ev @8316
    _ZThn12_N11wxsListbookD1Ev @8317
    _ZThn12_N11wxsMenuItem19OnBuildCreatingCodeEv @8318
    _ZThn12_N11wxsMenuItem22OnBuildXRCFetchingCodeEv @8319
    _ZThn12_N11wxsMenuItem23OnBuildDeclarationsCodeEv @8320
    _ZThn12_N11wxsMenuItemD0Ev @8321
    _ZThn12_N11wxsMenuItemD1Ev @8322
    _ZThn12_N11wxsNotebook19OnBuildCreatingCodeEv @8323
    _ZThn12_N11wxsNotebookD0Ev @8324
    _ZThn12_N11wxsNotebookD1Ev @8325
    _ZThn12_N11wxsRadioBox19OnBuildCreatingCodeEv @8326
    _ZThn12_N11wxsRadioBoxD0Ev @8327
    _ZThn12_N11wxsRadioBoxD1Ev @8328
    _ZThn12_N11wxsSpinCtrl19OnBuildCreatingCodeEv @8329
    _ZThn12_N11wxsSpinCtrlD0Ev @8330
    _ZThn12_N11wxsSpinCtrlD1Ev @8331
    _ZThn12_N11wxsTextCtrl19OnBuildCreatingCodeEv @8332
    _ZThn12_N11wxsTextCtrlD0Ev @8333
    _ZThn12_N11wxsTextCtrlD1Ev @8334
    _ZThn12_N11wxsTreeCtrl19OnBuildCreatingCodeEv @8335
    _ZThn12_N11wxsTreeCtrlD0Ev @8336
    _ZThn12_N11wxsTreeCtrlD1Ev @8337
    _ZThn12_N11wxsTreebook19OnBuildCreatingCodeEv @8338
    _ZThn12_N11wxsTreebookD0Ev @8339
    _ZThn12_N11wxsTreebookD1Ev @8340
    _ZThn12_N12wxsContainerD0Ev @8341
    _ZThn12_N12wxsContainerD1Ev @8342
    _ZThn12_N12wxsDirDialog19OnBuildCreatingCodeEv @8343
    _ZThn12_N12wxsDirDialogD0Ev @8344
    _ZThn12_N12wxsDirDialogD1Ev @8345
    _ZThn12_N12wxsGridSizerD0Ev @8346
    _ZThn12_N12wxsGridSizerD1Ev @8347
    _ZThn12_N12wxsImageList19OnBuildCreatingCodeEv @8348
    _ZThn12_N12wxsImageListD0Ev @8349
    _ZThn12_N12wxsImageListD1Ev @8350
    _ZThn12_N12wxsScrollBar19OnBuildCreatingCodeEv @8351
    _ZThn12_N12wxsScrollBarD0Ev @8352
    _ZThn12_N12wxsScrollBarD1Ev @8353
    _ZThn12_N12wxsStaticBox19OnBuildCreatingCodeEv @8354
    _ZThn12_N12wxsStaticBoxD0Ev @8355
    _ZThn12_N12wxsStaticBoxD1Ev @8356
    _ZThn12_N12wxsStatusBar19OnBuildCreatingCodeEv @8357
    _ZThn12_N12wxsStatusBarD0Ev @8358
    _ZThn12_N12wxsStatusBarD1Ev @8359
    _ZThn12_N12wxsStopWatch19OnBuildCreatingCodeEv @8360
    _ZThn12_N12wxsStopWatchD0Ev @8361
    _ZThn12_N12wxsStopWatchD1Ev @8362
    _ZThn12_N13wxsChoicebook19OnBuildCreatingCodeEv @8363
    _ZThn12_N13wxsChoicebookD0Ev @8364
    _ZThn12_N13wxsChoicebookD1Ev @8365
    _ZThn12_N13wxsFileDialog19OnBuildCreatingCodeEv @8366
    _ZThn12_N13wxsFileDialogD0Ev @8367
    _ZThn12_N13wxsFileDialogD1Ev @8368
    _ZThn12_N13wxsFontDialog19OnBuildCreatingCodeEv @8369
    _ZThn12_N13wxsFontDialogD0Ev @8370
    _ZThn12_N13wxsFontDialogD1Ev @8371
    _ZThn12_N13wxsHtmlWindow19OnBuildCreatingCodeEv @8372
    _ZThn12_N13wxsHtmlWindowD0Ev @8373
    _ZThn12_N13wxsHtmlWindowD1Ev @8374
    _ZThn12_N13wxsSashWindow19OnBuildCreatingCodeEv @8375
    _ZThn12_N13wxsSashWindowD0Ev @8376
    _ZThn12_N13wxsSashWindowD1Ev @8377
    _ZThn12_N13wxsSearchCtrl19OnBuildCreatingCodeEv @8378
    _ZThn12_N13wxsSearchCtrlD0Ev @8379
    _ZThn12_N13wxsSearchCtrlD1Ev @8380
    _ZThn12_N13wxsSpinButton19OnBuildCreatingCodeEv @8381
    _ZThn12_N13wxsSpinButtonD0Ev @8382
    _ZThn12_N13wxsSpinButtonD1Ev @8383
    _ZThn12_N13wxsStaticLine19OnBuildCreatingCodeEv @8384
    _ZThn12_N13wxsStaticLineD0Ev @8385
    _ZThn12_N13wxsStaticLineD1Ev @8386
    _ZThn12_N13wxsStaticText19OnBuildCreatingCodeEv @8387
    _ZThn12_N13wxsStaticTextD0Ev @8388
    _ZThn12_N13wxsStaticTextD1Ev @8389
    _ZThn12_N14wxsPrintDialog19OnBuildCreatingCodeEv @8390
    _ZThn12_N14wxsPrintDialogD0Ev @8391
    _ZThn12_N14wxsPrintDialogD1Ev @8392
    _ZThn12_N14wxsRadioButton19OnBuildCreatingCodeEv @8393
    _ZThn12_N14wxsRadioButtonD0Ev @8394
    _ZThn12_N14wxsRadioButtonD1Ev @8395
    _ZThn12_N14wxsToolBarItem19OnBuildCreatingCodeEv @8396
    _ZThn12_N14wxsToolBarItem23OnBuildDeclarationsCodeEv @8397
    _ZThn12_N14wxsToolBarItemD0Ev @8398
    _ZThn12_N14wxsToolBarItemD1Ev @8399
    _ZThn12_N15wxsBitmapButton19OnBuildCreatingCodeEv @8400
    _ZThn12_N15wxsBitmapButtonD0Ev @8401
    _ZThn12_N15wxsBitmapButtonD1Ev @8402
    _ZThn12_N15wxsCalendarCtrl19OnBuildCreatingCodeEv @8403
    _ZThn12_N15wxsCalendarCtrlD0Ev @8404
    _ZThn12_N15wxsCalendarCtrlD1Ev @8405
    _ZThn12_N15wxsCheckListBox19OnBuildCreatingCodeEv @8406
    _ZThn12_N15wxsCheckListBoxD0Ev @8407
    _ZThn12_N15wxsCheckListBoxD1Ev @8408
    _ZThn12_N15wxsColourDialog19OnBuildCreatingCodeEv @8409
    _ZThn12_N15wxsColourDialogD0Ev @8410
    _ZThn12_N15wxsColourDialogD1Ev @8411
    _ZThn12_N15wxsCustomWidget19OnBuildCreatingCodeEv @8412
    _ZThn12_N15wxsCustomWidgetD0Ev @8413
    _ZThn12_N15wxsCustomWidgetD1Ev @8414
    _ZThn12_N15wxsRichTextCtrl19OnBuildCreatingCodeEv @8415
    _ZThn12_N15wxsRichTextCtrlD0Ev @8416
    _ZThn12_N15wxsRichTextCtrlD1Ev @8417
    _ZThn12_N15wxsStaticBitmap19OnBuildCreatingCodeEv @8418
    _ZThn12_N15wxsStaticBitmapD0Ev @8419
    _ZThn12_N15wxsStaticBitmapD1Ev @8420
    _ZThn12_N15wxsToggleButton19OnBuildCreatingCodeEv @8421
    _ZThn12_N15wxsToggleButtonD0Ev @8422
    _ZThn12_N15wxsToggleButtonD1Ev @8423
    _ZThn12_N16wxsAnimationCtrl19OnBuildCreatingCodeEv @8424
    _ZThn12_N16wxsAnimationCtrlD0Ev @8425
    _ZThn12_N16wxsAnimationCtrlD1Ev @8426
    _ZThn12_N16wxsDialUpManager19OnBuildCreatingCodeEv @8427
    _ZThn12_N16wxsDialUpManagerD0Ev @8428
    _ZThn12_N16wxsDialUpManagerD1Ev @8429
    _ZThn12_N16wxsDirPickerCtrl19OnBuildCreatingCodeEv @8430
    _ZThn12_N16wxsDirPickerCtrlD0Ev @8431
    _ZThn12_N16wxsDirPickerCtrlD1Ev @8432
    _ZThn12_N16wxsFlexGridSizerD0Ev @8433
    _ZThn12_N16wxsFlexGridSizerD1Ev @8434
    _ZThn12_N16wxsHyperlinkCtrl19OnBuildCreatingCodeEv @8435
    _ZThn12_N16wxsHyperlinkCtrlD0Ev @8436
    _ZThn12_N16wxsHyperlinkCtrlD1Ev @8437
    _ZThn12_N16wxsMessageDialog19OnBuildCreatingCodeEv @8438
    _ZThn12_N16wxsMessageDialogD0Ev @8439
    _ZThn12_N16wxsMessageDialogD1Ev @8440
    _ZThn12_N17wxsBitmapComboBox19OnBuildCreatingCodeEv @8441
    _ZThn12_N17wxsBitmapComboBoxD0Ev @8442
    _ZThn12_N17wxsBitmapComboBoxD1Ev @8443
    _ZThn12_N17wxsDatePickerCtrl19OnBuildCreatingCodeEv @8444
    _ZThn12_N17wxsDatePickerCtrlD0Ev @8445
    _ZThn12_N17wxsDatePickerCtrlD1Ev @8446
    _ZThn12_N17wxsFilePickerCtrl19OnBuildCreatingCodeEv @8447
    _ZThn12_N17wxsFilePickerCtrlD0Ev @8448
    _ZThn12_N17wxsFilePickerCtrlD1Ev @8449
    _ZThn12_N17wxsFontPickerCtrl19OnBuildCreatingCodeEv @8450
    _ZThn12_N17wxsFontPickerCtrlD0Ev @8451
    _ZThn12_N17wxsFontPickerCtrlD1Ev @8452
    _ZThn12_N17wxsGenericDirCtrl19OnBuildCreatingCodeEv @8453
    _ZThn12_N17wxsGenericDirCtrlD0Ev @8454
    _ZThn12_N17wxsGenericDirCtrlD1Ev @8455
    _ZThn12_N17wxsProgressDialog19OnBuildCreatingCodeEv @8456
    _ZThn12_N17wxsProgressDialogD0Ev @8457
    _ZThn12_N17wxsProgressDialogD1Ev @8458
    _ZThn12_N17wxsScrolledWindow19OnBuildCreatingCodeEv @8459
    _ZThn12_N17wxsScrolledWindowD0Ev @8460
    _ZThn12_N17wxsScrolledWindowD1Ev @8461
    _ZThn12_N17wxsSplitterWindow19OnBuildCreatingCodeEv @8462
    _ZThn12_N17wxsSplitterWindowD0Ev @8463
    _ZThn12_N17wxsSplitterWindowD1Ev @8464
    _ZThn12_N17wxsStaticBoxSizerD0Ev @8465
    _ZThn12_N17wxsStaticBoxSizerD1Ev @8466
    _ZThn12_N18wxsPageSetupDialog19OnBuildCreatingCodeEv @8467
    _ZThn12_N18wxsPageSetupDialogD0Ev @8468
    _ZThn12_N18wxsPageSetupDialogD1Ev @8469
    _ZThn12_N18wxsScrollingDialog19OnBuildCreatingCodeEv @8470
    _ZThn12_N18wxsScrollingDialogD0Ev @8471
    _ZThn12_N18wxsScrollingDialogD1Ev @8472
    _ZThn12_N18wxsTextEntryDialog19OnBuildCreatingCodeEv @8473
    _ZThn12_N18wxsTextEntryDialogD0Ev @8474
    _ZThn12_N18wxsTextEntryDialogD1Ev @8475
    _ZThn12_N19wxsColourPickerCtrl19OnBuildCreatingCodeEv @8476
    _ZThn12_N19wxsColourPickerCtrlD0Ev @8477
    _ZThn12_N19wxsColourPickerCtrlD1Ev @8478
    _ZThn12_N19wxsHtmlEasyPrinting19OnBuildCreatingCodeEv @8479
    _ZThn12_N19wxsHtmlEasyPrintingD0Ev @8480
    _ZThn12_N19wxsHtmlEasyPrintingD1Ev @8481
    _ZThn12_N19wxsSashLayoutWindow19OnBuildCreatingCodeEv @8482
    _ZThn12_N19wxsSashLayoutWindowD0Ev @8483
    _ZThn12_N19wxsSashLayoutWindowD1Ev @8484
    _ZThn12_N20wxsContextHelpButton19OnBuildCreatingCodeEv @8485
    _ZThn12_N20wxsContextHelpButtonD0Ev @8486
    _ZThn12_N20wxsContextHelpButtonD1Ev @8487
    _ZThn12_N20wxsFindReplaceDialog19OnBuildCreatingCodeEv @8488
    _ZThn12_N20wxsFindReplaceDialogD0Ev @8489
    _ZThn12_N20wxsFindReplaceDialogD1Ev @8490
    _ZThn12_N20wxsMultiChoiceDialog19OnBuildCreatingCodeEv @8491
    _ZThn12_N20wxsMultiChoiceDialogD0Ev @8492
    _ZThn12_N20wxsMultiChoiceDialogD1Ev @8493
    _ZThn12_N20wxsSimpleHtmlListBox19OnBuildCreatingCodeEv @8494
    _ZThn12_N20wxsSimpleHtmlListBoxD0Ev @8495
    _ZThn12_N20wxsSimpleHtmlListBoxD1Ev @8496
    _ZThn12_N21wxsSingleChoiceDialog19OnBuildCreatingCodeEv @8497
    _ZThn12_N21wxsSingleChoiceDialogD0Ev @8498
    _ZThn12_N21wxsSingleChoiceDialogD1Ev @8499
    _ZThn12_N21wxsSymbolPickerDialog19OnBuildCreatingCodeEv @8500
    _ZThn12_N21wxsSymbolPickerDialogD0Ev @8501
    _ZThn12_N21wxsSymbolPickerDialogD1Ev @8502
    _ZThn12_N22wxsPasswordEntryDialog19OnBuildCreatingCodeEv @8503
    _ZThn12_N22wxsPasswordEntryDialogD0Ev @8504
    _ZThn12_N22wxsPasswordEntryDialogD1Ev @8505
    _ZThn12_N23wxsRichTextStyleListBox19OnBuildCreatingCodeEv @8506
    _ZThn12_N23wxsRichTextStyleListBoxD0Ev @8507
    _ZThn12_N23wxsRichTextStyleListBoxD1Ev @8508
    _ZThn12_N23wxsStdDialogButtonSizer19OnBuildCreatingCodeEv @8509
    _ZThn12_N23wxsStdDialogButtonSizer23OnBuildDeclarationsCodeEv @8510
    _ZThn12_N23wxsStdDialogButtonSizerD0Ev @8511
    _ZThn12_N23wxsStdDialogButtonSizerD1Ev @8512
    _ZThn12_N24wxsRichTextStyleListCtrl19OnBuildCreatingCodeEv @8513
    _ZThn12_N24wxsRichTextStyleListCtrlD0Ev @8514
    _ZThn12_N24wxsRichTextStyleListCtrlD1Ev @8515
    _ZThn12_N24wxsSingleInstanceChecker19OnBuildCreatingCodeEv @8516
    _ZThn12_N24wxsSingleInstanceCheckerD0Ev @8517
    _ZThn12_N24wxsSingleInstanceCheckerD1Ev @8518
    _ZThn12_N25wxsRichTextStyleComboCtrl19OnBuildCreatingCodeEv @8519
    _ZThn12_N25wxsRichTextStyleComboCtrlD0Ev @8520
    _ZThn12_N25wxsRichTextStyleComboCtrlD1Ev @8521
    _ZThn12_N27wxsRichTextFormattingDialog19OnBuildCreatingCodeEv @8522
    _ZThn12_N27wxsRichTextFormattingDialogD0Ev @8523
    _ZThn12_N27wxsRichTextFormattingDialogD1Ev @8524
    _ZThn12_N31wxsRichTextStyleOrganiserDialog19OnBuildCreatingCodeEv @8525
    _ZThn12_N31wxsRichTextStyleOrganiserDialogD0Ev @8526
    _ZThn12_N31wxsRichTextStyleOrganiserDialogD1Ev @8527
    _ZThn12_N7wxsGrid19OnBuildCreatingCodeEv @8528
    _ZThn12_N7wxsGridD0Ev @8529
    _ZThn12_N7wxsGridD1Ev @8530
    _ZThn12_N7wxsItem13OnBuildIdCodeEv @8531
    _ZThn12_N7wxsItem13OnUpdateFlagsERl @8532
    _ZThn12_N7wxsItem22OnBuildXRCFetchingCodeEv @8533
    _ZThn12_N7wxsItem23OnBuildDeclarationsCodeEv @8534
    _ZThn12_N7wxsItem27OnBuildEventsConnectingCodeEv @8535
    _ZThn12_N7wxsItemD0Ev @8536
    _ZThn12_N7wxsItemD1Ev @8537
    _ZThn12_N7wxsMenu19OnBuildCreatingCodeEv @8538
    _ZThn12_N7wxsMenuD0Ev @8539
    _ZThn12_N7wxsMenuD1Ev @8540
    _ZThn12_N7wxsToolD0Ev @8541
    _ZThn12_N7wxsToolD1Ev @8542
    _ZThn12_N8wxsFrame19OnBuildCreatingCodeEv @8543
    _ZThn12_N8wxsFrameD0Ev @8544
    _ZThn12_N8wxsFrameD1Ev @8545
    _ZThn12_N8wxsGauge19OnBuildCreatingCodeEv @8546
    _ZThn12_N8wxsGaugeD0Ev @8547
    _ZThn12_N8wxsGaugeD1Ev @8548
    _ZThn12_N8wxsImage19OnBuildCreatingCodeEv @8549
    _ZThn12_N8wxsImage23OnBuildDeclarationsCodeEv @8550
    _ZThn12_N8wxsImageD0Ev @8551
    _ZThn12_N8wxsImageD1Ev @8552
    _ZThn12_N8wxsPanel19OnBuildCreatingCodeEv @8553
    _ZThn12_N8wxsPanelD0Ev @8554
    _ZThn12_N8wxsPanelD1Ev @8555
    _ZThn12_N8wxsSizer19OnBuildCreatingCodeEv @8556
    _ZThn12_N8wxsSizer23OnBuildDeclarationsCodeEv @8557
    _ZThn12_N8wxsSizerD0Ev @8558
    _ZThn12_N8wxsSizerD1Ev @8559
    _ZThn12_N8wxsTimer19OnBuildCreatingCodeEv @8560
    _ZThn12_N8wxsTimerD0Ev @8561
    _ZThn12_N8wxsTimerD1Ev @8562
    _ZThn12_N9wxsButton19OnBuildCreatingCodeEv @8563
    _ZThn12_N9wxsButtonD0Ev @8564
    _ZThn12_N9wxsButtonD1Ev @8565
    _ZThn12_N9wxsChoice19OnBuildCreatingCodeEv @8566
    _ZThn12_N9wxsChoiceD0Ev @8567
    _ZThn12_N9wxsChoiceD1Ev @8568
    _ZThn12_N9wxsDialog19OnBuildCreatingCodeEv @8569
    _ZThn12_N9wxsDialogD0Ev @8570
    _ZThn12_N9wxsDialogD1Ev @8571
    _ZThn12_N9wxsParentD0Ev @8572
    _ZThn12_N9wxsParentD1Ev @8573
    _ZThn12_N9wxsSlider19OnBuildCreatingCodeEv @8574
    _ZThn12_N9wxsSliderD0Ev @8575
    _ZThn12_N9wxsSliderD1Ev @8576
    _ZThn12_N9wxsSpacer19OnBuildCreatingCodeEv @8577
    _ZThn12_N9wxsSpacer23OnBuildDeclarationsCodeEv @8578
    _ZThn12_N9wxsSpacerD0Ev @8579
    _ZThn12_N9wxsSpacerD1Ev @8580
    _ZThn12_N9wxsWidgetD0Ev @8581
    _ZThn12_N9wxsWidgetD1Ev @8582
    _ZThn256_N10wxMemoryDCD1Ev @8583
    _ZThn256_N12wxBufferedDCD1Ev @8584
    _ZThn336_N12wxsToolSpaceD0Ev @8585
    _ZThn336_N12wxsToolSpaceD1Ev @8586
    _ZThn336_N14wxPropertyGridD0Ev @8587
    _ZThn336_N14wxPropertyGridD1Ev @8588
    _ZThn336_N16wxsDrawingWindowD0Ev @8589
    _ZThn336_N16wxsDrawingWindowD1Ev @8590
    _ZThn336_N20wxsItemEditorContentD0Ev @8591
    _ZThn336_N20wxsItemEditorContentD1Ev @8592
    _ZThn336_N21wxPropertyGridManager12DoSelectPageEi @8593
    _ZThn336_N21wxPropertyGridManager15RefreshPropertyEP12wxPGProperty @8594
    _ZThn336_N21wxPropertyGridManager20SetEditableStateItemERK8wxString9wxVariant @8595
    _ZThn336_N21wxPropertyGridManager5ClearEv @8596
    _ZThn336_N21wxPropertyGridManagerD0Ev @8597
    _ZThn336_N21wxPropertyGridManagerD1Ev @8598
    _ZThn336_N22wxsPropertyGridManagerD0Ev @8599
    _ZThn336_N22wxsPropertyGridManagerD1Ev @8600
    _ZThn336_NK21wxPropertyGridManager12GetPageStateEi @8601
    _ZThn336_NK21wxPropertyGridManager12GetVIteratorEi @8602
    _ZThn336_NK21wxPropertyGridManager18IsPropertySelectedERK14wxPGPropArgCls @8603
    _ZThn336_NK21wxPropertyGridManager19DoGetPropertyByNameERK8wxString @8604
    _ZThn336_NK21wxPropertyGridManager20GetEditableStateItemERK8wxString @8605
    _ZThn36_N10wxsItemResD0Ev @8606
    _ZThn36_N10wxsItemResD1Ev @8607
    _ZThn36_N11wxsFrameRes19OnBuildExactPreviewEP8wxWindowP14wxsItemResData @8608
    _ZThn36_N11wxsFrameResD0Ev @8609
    _ZThn36_N11wxsFrameResD1Ev @8610
    _ZThn36_N11wxsPanelRes19OnBuildExactPreviewEP8wxWindowP14wxsItemResData @8611
    _ZThn36_N11wxsPanelResD0Ev @8612
    _ZThn36_N11wxsPanelResD1Ev @8613
    _ZThn36_N12wxsDialogRes19OnBuildExactPreviewEP8wxWindowP14wxsItemResData @8614
    _ZThn36_N12wxsDialogResD0Ev @8615
    _ZThn36_N12wxsDialogResD1Ev @8616
    _ZThn36_N21wxsScrollingDialogRes19OnBuildExactPreviewEP8wxWindowP14wxsItemResData @8617
    _ZThn36_N21wxsScrollingDialogResD0Ev @8618
    _ZThn36_N21wxsScrollingDialogResD1Ev @8619
    _ZThn40_N18wxPropertyGridPage15RefreshPropertyEP12wxPGProperty @8620
    _ZThn40_N18wxPropertyGridPage5ClearEv @8621
    _ZThn40_N18wxPropertyGridPageD0Ev @8622
    _ZThn40_N18wxPropertyGridPageD1Ev @8623
    _ZThn416_N15wxsImageListDlgD0Ev @8624
    _ZThn416_N15wxsImageListDlgD1Ev @8625
    _ZThn416_N15wxsNewWindowDlgD0Ev @8626
    _ZThn416_N15wxsNewWindowDlgD1Ev @8627
    _ZThn416_N16wxsDeleteItemResD0Ev @8628
    _ZThn416_N16wxsDeleteItemResD1Ev @8629
    _ZThn416_N16wxsFontEditorDlgD0Ev @8630
    _ZThn416_N16wxsFontEditorDlgD1Ev @8631
    _ZThn416_N20wxsFontFaceEditorDlgD0Ev @8632
    _ZThn416_N20wxsFontFaceEditorDlgD1Ev @8633
    _ZThn416_N22wxsBitmapIconEditorDlgD0Ev @8634
    _ZThn416_N22wxsBitmapIconEditorDlgD1Ev @8635
    _ZThn416_N22wxsSimpleFontEditorDlgD0Ev @8636
    _ZThn416_N22wxsSimpleFontEditorDlgD1Ev @8637
    _ZThn416_N23wxsArrayStringEditorDlgD0Ev @8638
    _ZThn416_N23wxsArrayStringEditorDlgD1Ev @8639
    _ZThn416_N26wxWidgetsGUIAppAdoptingDlgD0Ev @8640
    _ZThn416_N26wxWidgetsGUIAppAdoptingDlgD1Ev @8641
    _ZThn416_N28wxsArrayStringCheckEditorDlgD0Ev @8642
    _ZThn416_N28wxsArrayStringCheckEditorDlgD1Ev @8643
    _ZThn432_N14wxPropertyGrid15RefreshPropertyEP12wxPGProperty @8644
    _ZThn432_N14wxPropertyGrid5ClearEv @8645
    _ZThn432_N14wxPropertyGridD0Ev @8646
    _ZThn432_N14wxPropertyGridD1Ev @8647
    _ZThn56_N18wxPropertyGridPage21DoSetSplitterPositionEiibb @8648
    _ZThn56_N18wxPropertyGridPageD0Ev @8649
    _ZThn56_N18wxPropertyGridPageD1Ev @8650
    _ZThn624_N12wxPGComboBoxD0Ev @8651
    _ZThn624_N12wxPGComboBoxD1Ev @8652
    _ZThn624_N20wxOwnerDrawnComboBox12SetSelectionEi @8653
    _ZZN13wxsGUIFactory7GetHashEvE4Hash @8654 DATA
    _ZdlPvS_ @8655
    _ZeqRK10wxArrayIntS1_ @8656
    _ZeqRK21wxColourPropertyValueS1_ @8657
    _ZeqRK8wxStringPKw @8658
    _ZeqRK8wxStringS1_ @8659
    _ZlsR10wxArrayIntRK9wxVariant @8660
    _ZlsR16wxLongLongNativeRK9wxVariant @8661
    _ZlsR17wxULongLongNativeRK9wxVariant @8662
    _ZlsR21wxColourPropertyValueRK9wxVariant @8663
    _ZlsR6wxFontRK9wxVariant @8664
    _ZlsR6wxSizeRK9wxVariant @8665
    _ZlsR7wxPointRK9wxVariant @8666
    _ZlsR9wxVariantRK10wxArrayInt @8667
    _ZlsR9wxVariantRK16wxLongLongNative @8668
    _ZlsR9wxVariantRK17wxULongLongNative @8669
    _ZlsR9wxVariantRK21wxColourPropertyValue @8670
    _ZlsR9wxVariantRK6wxFont @8671
    _ZlsR9wxVariantRK6wxSize @8672
    _ZlsR9wxVariantRK7wxPoint @8673
    _ZneRK12wxTreeItemIdS1_ @8674
    _ZneRK8wxStringPKw @8675
    _ZneRK8wxStringS1_ @8676
    _ZnwjPv @8677
    _nm___ZN10EditorBase13sm_eventTableE @8678 DATA
    _nm___ZN10SquirrelVM3_VME @8679 DATA
    _nm___ZN10wxStockGDI11ms_instanceE @8680 DATA
    _nm___ZN10wxTextCtrl12ms_classInfoE @8681 DATA
    _nm___ZN11TiXmlString8nullrep_E @8682 DATA
    _nm___ZN11wxClassInfo8sm_firstE @8683 DATA
    _nm___ZN11wxComboCtrl12ms_classInfoE @8684 DATA
    _nm___ZN11wxSizerItem12ms_classInfoE @8685 DATA
    _nm___ZN11wxValidator12ms_classInfoE @8686 DATA
    _nm___ZN12wxAppConsole14ms_appInstanceE @8687 DATA
    _nm___ZN12wxDialogBase13sm_eventTableE @8688 DATA
    _nm___ZN12wxEvtHandler12ms_classInfoE @8689 DATA
    _nm___ZN12wxEvtHandler13sm_eventTableE @8690 DATA
    _nm___ZN12wxStringBase4nposE @8691 DATA
    _nm___ZN12wxWindowBase16ms_lastControlIdE @8692 DATA
    _nm___ZN13ConfigManager14data_path_userE @8693 DATA
    _nm___ZN13ConfigManager16data_path_globalE @8694 DATA
    _nm___ZN13wxVariantData12ms_classInfoE @8695 DATA
    _nm___ZN14wxCommandEvent12ms_classInfoE @8696 DATA
    _nm___ZN16wxScrolledWindow12ms_classInfoE @8697 DATA
    _nm___ZN16wxScrolledWindow13sm_eventTableE @8698 DATA
    _nm___ZN17wxScrollingDialog12ms_classInfoE @8699 DATA
    _nm___ZN20wxOwnerDrawnComboBox12ms_classInfoE @8700 DATA
    _nm___ZN3MgrI14ProjectManagerE10isShutdownE @8701 DATA
    _nm___ZN3MgrI14ProjectManagerE8instanceE @8702 DATA
    _nm___ZN7wxFrame12ms_classInfoE @8703 DATA
    _nm___ZN7wxFrame13sm_eventTableE @8704 DATA
    _nm___ZN7wxImage11sm_handlersE @8705 DATA
    _nm___ZN7wxPanel12ms_classInfoE @8706 DATA
    _nm___ZN7wxPanel13sm_eventTableE @8707 DATA
    _nm___ZN7wxSizer12ms_classInfoE @8708 DATA
    _nm___ZN8wxColour12ms_classInfoE @8709 DATA
    _nm___ZN8wxDialog12ms_classInfoE @8710 DATA
    _nm___ZN8wxObject12ms_classInfoE @8711 DATA
    _nm___ZN8wxWindow12ms_classInfoE @8712 DATA
    _nm___ZN8wxWindow13sm_eventTableE @8713 DATA
    _nm___ZN9TiXmlBase18condenseWhiteSpaceE @8714 DATA
    _nm___ZTV10NullLogger @8715 DATA
    _nm___ZTV10wxCheckBox @8716 DATA
    _nm___ZTV10wxComboBox @8717 DATA
    _nm___ZTV10wxFontBase @8718 DATA
    _nm___ZTV10wxGDIImage @8719 DATA
    _nm___ZTV10wxListBase @8720 DATA
    _nm___ZTV10wxListCtrl @8721 DATA
    _nm___ZTV10wxListView @8722 DATA
    _nm___ZTV10wxListbook @8723 DATA
    _nm___ZTV10wxMemoryDC @8724 DATA
    _nm___ZTV10wxMenuBase @8725 DATA
    _nm___ZTV10wxRadioBox @8726 DATA
    _nm___ZTV10wxSpinCtrl @8727 DATA
    _nm___ZTV10wxTextCtrl @8728 DATA
    _nm___ZTV10wxTreeCtrl @8729 DATA
    _nm___ZTV10wxTreebook @8730 DATA
    _nm___ZTV11wxAnimation @8731 DATA
    _nm___ZTV11wxBrushBase @8732 DATA
    _nm___ZTV11wxComboCtrl @8733 DATA
    _nm___ZTV11wxDirDialog @8734 DATA
    _nm___ZTV11wxGDIObject @8735 DATA
    _nm___ZTV11wxGaugeBase @8736 DATA
    _nm___ZTV11wxImageList @8737 DATA
    _nm___ZTV11wxScrollBar @8738 DATA
    _nm___ZTV11wxSizeEvent @8739 DATA
    _nm___ZTV11wxSpinEvent @8740 DATA
    _nm___ZTV11wxStaticBox @8741 DATA
    _nm___ZTV11wxTimerBase @8742 DATA
    _nm___ZTV12TiXmlPrinter @8743 DATA
    _nm___ZTV12wxBufferedDC @8744 DATA
    _nm___ZTV12wxButtonBase @8745 DATA
    _nm___ZTV12wxChoiceBase @8746 DATA
    _nm___ZTV12wxChoicebook @8747 DATA
    _nm___ZTV12wxClientData @8748 DATA
    _nm___ZTV12wxColourBase @8749 DATA
    _nm___ZTV12wxDialogBase @8750 DATA
    _nm___ZTV12wxFileDialog @8751 DATA
    _nm___ZTV12wxFontDialog @8752 DATA
    _nm___ZTV12wxHtmlWindow @8753 DATA
    _nm___ZTV12wxMBConvUTF8 @8754 DATA
    _nm___ZTV12wxObjectList @8755 DATA
    _nm___ZTV12wxPickerBase @8756 DATA
    _nm___ZTV12wxSashWindow @8757 DATA
    _nm___ZTV12wxSliderBase @8758 DATA
    _nm___ZTV12wxSpinButton @8759 DATA
    _nm___ZTV12wxStaticLine @8760 DATA
    _nm___ZTV12wxStaticText @8761 DATA
    _nm___ZTV12wxWindowList @8762 DATA
    _nm___ZTV13TiXmlDocument @8763 DATA
    _nm___ZTV13wxControlBase @8764 DATA
    _nm___ZTV13wxListBoxBase @8765 DATA
    _nm___ZTV13wxNotifyEvent @8766 DATA
    _nm___ZTV13wxRadioButton @8767 DATA
    _nm___ZTV13wxVariantData @8768 DATA
    _nm___ZTV14wxBitmapButton @8769 DATA
    _nm___ZTV14wxBookCtrlBase @8770 DATA
    _nm___ZTV14wxCheckBoxBase @8771 DATA
    _nm___ZTV14wxColourDialog @8772 DATA
    _nm___ZTV14wxCommandEvent @8773 DATA
    _nm___ZTV14wxDialogHelper @8774 DATA
    _nm___ZTV14wxMemoryDCBase @8775 DATA
    _nm___ZTV14wxMenuItemList @8776 DATA
    _nm___ZTV14wxRadioBoxBase @8777 DATA
    _nm___ZTV14wxStaticBitmap @8778 DATA
    _nm___ZTV14wxTextCtrlBase @8779 DATA
    _nm___ZTV14wxToggleButton @8780 DATA
    _nm___ZTV14wxTreeCtrlBase @8781 DATA
    _nm___ZTV14wxTreeItemData @8782 DATA
    _nm___ZTV15CodeBlocksEvent @8783 DATA
    _nm___ZTV15wxAnimationBase @8784 DATA
    _nm___ZTV15wxAnimationCtrl @8785 DATA
    _nm___ZTV15wxComboCtrlBase @8786 DATA
    _nm___ZTV15wxDirDialogBase @8787 DATA
    _nm___ZTV15wxDirPickerCtrl @8788 DATA
    _nm___ZTV15wxHyperlinkCtrl @8789 DATA
    _nm___ZTV15wxItemContainer @8790 DATA
    _nm___ZTV15wxScrollBarBase @8791 DATA
    _nm___ZTV15wxStaticBoxBase @8792 DATA
    _nm___ZTV15wxTextValidator @8793 DATA
    _nm___ZTV16TiXmlDeclaration @8794 DATA
    _nm___ZTV16wxDatePickerCtrl @8795 DATA
    _nm___ZTV16wxFileDialogBase @8796 DATA
    _nm___ZTV16wxFilePickerCtrl @8797 DATA
    _nm___ZTV16wxFontDialogBase @8798 DATA
    _nm___ZTV16wxFontEnumerator @8799 DATA
    _nm___ZTV16wxFontPickerCtrl @8800 DATA
    _nm___ZTV16wxGenericDirCtrl @8801 DATA
    _nm___ZTV16wxObjectListNode @8802 DATA
    _nm___ZTV16wxScrolledWindow @8803 DATA
    _nm___ZTV16wxSpinButtonBase @8804 DATA
    _nm___ZTV16wxSplitterWindow @8805 DATA
    _nm___ZTV16wxStaticLineBase @8806 DATA
    _nm___ZTV16wxStaticTextBase @8807 DATA
    _nm___ZTV16wxTextDataObject @8808 DATA
    _nm___ZTV16wxTopLevelWindow @8809 DATA
    _nm___ZTV16wxWindowListNode @8810 DATA
    _nm___ZTV17wxAnyChoiceDialog @8811 DATA
    _nm___ZTV17wxScrollingDialog @8812 DATA
    _nm___ZTV17wxStringTokenizer @8813 DATA
    _nm___ZTV17wxTextEntryDialog @8814 DATA
    _nm___ZTV18wxAcceleratorTable @8815 DATA
    _nm___ZTV18wxBitmapButtonBase @8816 DATA
    _nm___ZTV18wxColourPickerCtrl @8817 DATA
    _nm___ZTV18wxControlWithItems @8818 DATA
    _nm___ZTV18wxDataObjectSimple @8819 DATA
    _nm___ZTV18wxSashLayoutWindow @8820 DATA
    _nm___ZTV18wxStaticBitmapBase @8821 DATA
    _nm___ZTV19CodeBlocksDockEvent @8822 DATA
    _nm___ZTV19wxAnimationCtrlBase @8823 DATA
    _nm___ZTV19wxMultiChoiceDialog @8824 DATA
    _nm___ZTV19wxSimpleHtmlListBox @8825 DATA
    _nm___ZTV19wxTopLevelWindowMSW @8826 DATA
    _nm___ZTV20cbConfigurationPanel @8827 DATA
    _nm___ZTV20wxDatePickerCtrlBase @8828 DATA
    _nm___ZTV20wxNavigationKeyEvent @8829 DATA
    _nm___ZTV20wxOwnerDrawnComboBox @8830 DATA
    _nm___ZTV20wxStringOutputStream @8831 DATA
    _nm___ZTV20wxwxMenuItemListNode @8832 DATA
    _nm___ZTV21wxHtmlWindowInterface @8833 DATA
    _nm___ZTV23wxFileDirPickerCtrlBase @8834 DATA
    _nm___ZTV23wxHtmlWindowMouseHelper @8835 DATA
    _nm___ZTV24wxItemContainerImmutable @8836 DATA
    _nm___ZTV24wxRichTextStyleComboCtrl @8837 DATA
    _nm___ZTV4wxDC @8838 DATA
    _nm___ZTV6Logger @8839 DATA
    _nm___ZTV6wxFont @8840 DATA
    _nm___ZTV6wxIcon @8841 DATA
    _nm___ZTV6wxList @8842 DATA
    _nm___ZTV6wxMenu @8843 DATA
    _nm___ZTV7wxBrush @8844 DATA
    _nm___ZTV7wxEvent @8845 DATA
    _nm___ZTV7wxFrame @8846 DATA
    _nm___ZTV7wxImage @8847 DATA
    _nm___ZTV7wxPanel @8848 DATA
    _nm___ZTV7wxTimer @8849 DATA
    _nm___ZTV8wxBitmap @8850 DATA
    _nm___ZTV8wxButton @8851 DATA
    _nm___ZTV8wxChoice @8852 DATA
    _nm___ZTV8wxColour @8853 DATA
    _nm___ZTV8wxDCBase @8854 DATA
    _nm___ZTV8wxDialog @8855 DATA
    _nm___ZTV8wxMBConv @8856 DATA
    _nm___ZTV8wxObject @8857 DATA
    _nm___ZTV8wxSlider @8858 DATA
    _nm___ZTV8wxWindow @8859 DATA
    _nm___ZTV9TiXmlText @8860 DATA
    _nm___ZTV9wxControl @8861 DATA
    _nm___ZTV9wxGauge95 @8862 DATA
    _nm___ZTV9wxListBox @8863 DATA
    _nm___ZTVN18ProjectLoaderHooks15HookFunctorBaseE @8864 DATA
    _nm__cbEVT_ADD_DOCK_WINDOW @8865 DATA
    _nm__cbEVT_HIDE_DOCK_WINDOW @8866 DATA
    _nm__cbEVT_PROJECT_CLOSE @8867 DATA
    _nm__cbEVT_PROJECT_FILE_CHANGED @8868 DATA
    _nm__cbEVT_PROJECT_OPEN @8869 DATA
    _nm__cbEVT_PROJECT_RENAMED @8870 DATA
    _nm__cbEVT_SHOW_DOCK_WINDOW @8871 DATA
    _nm__wxAnimationCtrlNameStr @8872 DATA
    _nm__wxBitmapComboBoxNameStr @8873 DATA
    _nm__wxButtonNameStr @8874 DATA
    _nm__wxCheckBoxNameStr @8875 DATA
    _nm__wxChoiceNameStr @8876 DATA
    _nm__wxColourPickerCtrlNameStr @8877 DATA
    _nm__wxComboBoxNameStr @8878 DATA
    _nm__wxControlNameStr @8879 DATA
    _nm__wxConvUTF8 @8880 DATA
    _nm__wxDefaultDateTime @8881 DATA
    _nm__wxDefaultDateTimeFormat @8882 DATA
    _nm__wxDefaultPosition @8883 DATA
    _nm__wxDefaultSize @8884 DATA
    _nm__wxDefaultValidator @8885 DATA
    _nm__wxDialogNameStr @8886 DATA
    _nm__wxDirDialogNameStr @8887 DATA
    _nm__wxDirPickerCtrlNameStr @8888 DATA
    _nm__wxDirSelectorPromptStr @8889 DATA
    _nm__wxEVT_CHAR @8890 DATA
    _nm__wxEVT_CHILD_FOCUS @8891 DATA
    _nm__wxEVT_CLOSE_WINDOW @8892 DATA
    _nm__wxEVT_COMMAND_BUTTON_CLICKED @8893 DATA
    _nm__wxEVT_COMMAND_CHECKBOX_CLICKED @8894 DATA
    _nm__wxEVT_COMMAND_CHECKLISTBOX_TOGGLED @8895 DATA
    _nm__wxEVT_COMMAND_CHOICE_SELECTED @8896 DATA
    _nm__wxEVT_COMMAND_COMBOBOX_SELECTED @8897 DATA
    _nm__wxEVT_COMMAND_LISTBOX_SELECTED @8898 DATA
    _nm__wxEVT_COMMAND_MENU_SELECTED @8899 DATA
    _nm__wxEVT_COMMAND_RADIOBUTTON_SELECTED @8900 DATA
    _nm__wxEVT_COMMAND_SPINCTRL_UPDATED @8901 DATA
    _nm__wxEVT_COMMAND_SPLITTER_SASH_POS_CHANGED @8902 DATA
    _nm__wxEVT_COMMAND_SPLITTER_SASH_POS_CHANGING @8903 DATA
    _nm__wxEVT_COMMAND_TEXT_ENTER @8904 DATA
    _nm__wxEVT_COMMAND_TEXT_UPDATED @8905 DATA
    _nm__wxEVT_COMMAND_TREE_ITEM_RIGHT_CLICK @8906 DATA
    _nm__wxEVT_COMMAND_TREE_SEL_CHANGED @8907 DATA
    _nm__wxEVT_DATE_CHANGED @8908 DATA
    _nm__wxEVT_ENTER_WINDOW @8909 DATA
    _nm__wxEVT_ERASE_BACKGROUND @8910 DATA
    _nm__wxEVT_IDLE @8911 DATA
    _nm__wxEVT_KEY_DOWN @8912 DATA
    _nm__wxEVT_KEY_UP @8913 DATA
    _nm__wxEVT_KILL_FOCUS @8914 DATA
    _nm__wxEVT_LEAVE_WINDOW @8915 DATA
    _nm__wxEVT_LEFT_DCLICK @8916 DATA
    _nm__wxEVT_LEFT_DOWN @8917 DATA
    _nm__wxEVT_LEFT_UP @8918 DATA
    _nm__wxEVT_MIDDLE_DCLICK @8919 DATA
    _nm__wxEVT_MIDDLE_DOWN @8920 DATA
    _nm__wxEVT_MIDDLE_UP @8921 DATA
    _nm__wxEVT_MOTION @8922 DATA
    _nm__wxEVT_MOUSEWHEEL @8923 DATA
    _nm__wxEVT_MOUSE_CAPTURE_CHANGED @8924 DATA
    _nm__wxEVT_MOUSE_CAPTURE_LOST @8925 DATA
    _nm__wxEVT_NAVIGATION_KEY @8926 DATA
    _nm__wxEVT_NULL @8927 DATA
    _nm__wxEVT_PAINT @8928 DATA
    _nm__wxEVT_RIGHT_DCLICK @8929 DATA
    _nm__wxEVT_RIGHT_DOWN @8930 DATA
    _nm__wxEVT_RIGHT_UP @8931 DATA
    _nm__wxEVT_SCROLLWIN_BOTTOM @8932 DATA
    _nm__wxEVT_SCROLLWIN_LINEDOWN @8933 DATA
    _nm__wxEVT_SCROLLWIN_LINEUP @8934 DATA
    _nm__wxEVT_SCROLLWIN_PAGEDOWN @8935 DATA
    _nm__wxEVT_SCROLLWIN_PAGEUP @8936 DATA
    _nm__wxEVT_SCROLLWIN_THUMBRELEASE @8937 DATA
    _nm__wxEVT_SCROLLWIN_THUMBTRACK @8938 DATA
    _nm__wxEVT_SCROLLWIN_TOP @8939 DATA
    _nm__wxEVT_SCROLL_LINEDOWN @8940 DATA
    _nm__wxEVT_SCROLL_LINEUP @8941 DATA
    _nm__wxEVT_SET_FOCUS @8942 DATA
    _nm__wxEVT_SIZE @8943 DATA
    _nm__wxEVT_SYS_COLOUR_CHANGED @8944 DATA
    _nm__wxEVT_TIMER @8945 DATA
    _nm__wxEVT_UPDATE_UI @8946 DATA
    _nm__wxEmptyString @8947 DATA
    _nm__wxFileDialogNameStr @8948 DATA
    _nm__wxFilePickerCtrlNameStr @8949 DATA
    _nm__wxFileSelectorDefaultWildcardStr @8950 DATA
    _nm__wxFileSelectorPromptStr @8951 DATA
    _nm__wxFontPickerCtrlNameStr @8952 DATA
    _nm__wxFrameNameStr @8953 DATA
    _nm__wxGaugeNameStr @8954 DATA
    _nm__wxGetPasswordFromUserPromptStr @8955 DATA
    _nm__wxGetTextFromUserPromptStr @8956 DATA
    _nm__wxGridNameStr @8957 DATA
    _nm__wxHyperlinkCtrlNameStr @8958 DATA
    _nm__wxListBoxNameStr @8959 DATA
    _nm__wxListCtrlNameStr @8960 DATA
    _nm__wxMessageBoxCaptionStr @8961 DATA
    _nm__wxNotebookNameStr @8962 DATA
    _nm__wxNullBitmap @8963 DATA
    _nm__wxNullColour @8964 DATA
    _nm__wxNullCursor @8965 DATA
    _nm__wxNullFont @8966 DATA
    _nm__wxNullVariant @8967 DATA
    _nm__wxPanelNameStr @8968 DATA
    _nm__wxPendingDelete @8969 DATA
    _nm__wxRadioBoxNameStr @8970 DATA
    _nm__wxRadioButtonNameStr @8971 DATA
    _nm__wxScrollBarNameStr @8972 DATA
    _nm__wxSearchCtrlNameStr @8973 DATA
    _nm__wxSimpleHtmlListBoxNameStr @8974 DATA
    _nm__wxSliderNameStr @8975 DATA
    _nm__wxStaticBitmapNameStr @8976 DATA
    _nm__wxStaticBoxNameStr @8977 DATA
    _nm__wxStaticLineNameStr @8978 DATA
    _nm__wxStaticTextNameStr @8979 DATA
    _nm__wxTextCtrlNameStr @8980 DATA
    _nm__wxTreeCtrlNameStr @8981 DATA
    gs_emptyChoices @8982 DATA
    wxEVT_PG_CHANGED @8983 DATA
    wxEVT_PG_CHANGING @8984 DATA
    wxEVT_PG_DOUBLE_CLICK @8985 DATA
    wxEVT_PG_HIGHLIGHTED @8986 DATA
    wxEVT_PG_ITEM_COLLAPSED @8987 DATA
    wxEVT_PG_ITEM_EXPANDED @8988 DATA
    wxEVT_PG_LABEL_EDIT_BEGIN @8989 DATA
    wxEVT_PG_LABEL_EDIT_ENDING @8990 DATA
    wxEVT_PG_PAGE_CHANGED @8991 DATA
    wxEVT_PG_RIGHT_CLICK @8992 DATA
    wxEVT_PG_SELECTED @8993 DATA
    wxPGEditor_CheckBox @8994 DATA
    wxPGEditor_Choice @8995 DATA
    wxPGEditor_ChoiceAndButton @8996 DATA
    wxPGEditor_ComboBox @8997 DATA
    wxPGEditor_DatePickerCtrl @8998 DATA
    wxPGEditor_SpinCtrl @8999 DATA
    wxPGEditor_TextCtrl @9000 DATA
    wxPGEditor_TextCtrlAndButton @9001 DATA
    wxPGGlobalVars @9002 DATA
    wxPGTypeName_bool @9003 DATA
    wxPGTypeName_double @9004 DATA
    wxPGTypeName_long @9005 DATA
    wxPGTypeName_void @9006 DATA
    wxPGTypeName_wxArrayString @9007 DATA
    wxPGTypeName_wxString @9008 DATA
    wxPGVariantDataArrayInt_ClassInfo @9009 DATA
    wxPGVariantDataColourPropertyValue_ClassInfo @9010 DATA
    wxPGVariantDataFont_ClassInfo @9011 DATA
    wxPGVariantDataLongLong_ClassInfo @9012 DATA
    wxPGVariantDataPoint_ClassInfo @9013 DATA
    wxPGVariantDataSize_ClassInfo @9014 DATA
    wxPGVariantDataULongLong_ClassInfo @9015 DATA
    wxPropertyGridManagerNameStr @9016 DATA
    wxPropertyGridNameStr @9017 DATA
